
build_gd32/main.elf:     file format elf32-littlearm


Disassembly of section .vectors:

08000000 <__gVectors>:
 8000000:	20020000 	andcs	r0, r2, r0
 8000004:	080007e5 	stmdaeq	r0, {r0, r2, r5, r6, r7, r8, r9, sl}
 8000008:	08000829 	stmdaeq	r0, {r0, r3, r5, fp}
 800000c:	08000829 	stmdaeq	r0, {r0, r3, r5, fp}
 8000010:	08000829 	stmdaeq	r0, {r0, r3, r5, fp}
 8000014:	08000829 	stmdaeq	r0, {r0, r3, r5, fp}
 8000018:	08000829 	stmdaeq	r0, {r0, r3, r5, fp}
	...
 800002c:	08000829 	stmdaeq	r0, {r0, r3, r5, fp}
 8000030:	08000829 	stmdaeq	r0, {r0, r3, r5, fp}
 8000034:	00000000 	andeq	r0, r0, r0
 8000038:	08000829 	stmdaeq	r0, {r0, r3, r5, fp}
 800003c:	08004095 	stmdaeq	r0, {r0, r2, r4, r7, lr}
 8000040:	08000829 	stmdaeq	r0, {r0, r3, r5, fp}
 8000044:	08000829 	stmdaeq	r0, {r0, r3, r5, fp}
 8000048:	08000829 	stmdaeq	r0, {r0, r3, r5, fp}
 800004c:	08000829 	stmdaeq	r0, {r0, r3, r5, fp}
 8000050:	08000829 	stmdaeq	r0, {r0, r3, r5, fp}
 8000054:	08000829 	stmdaeq	r0, {r0, r3, r5, fp}
 8000058:	08000829 	stmdaeq	r0, {r0, r3, r5, fp}
 800005c:	08000829 	stmdaeq	r0, {r0, r3, r5, fp}
 8000060:	08000829 	stmdaeq	r0, {r0, r3, r5, fp}
 8000064:	08000829 	stmdaeq	r0, {r0, r3, r5, fp}
 8000068:	08000829 	stmdaeq	r0, {r0, r3, r5, fp}
 800006c:	08000829 	stmdaeq	r0, {r0, r3, r5, fp}
 8000070:	08000829 	stmdaeq	r0, {r0, r3, r5, fp}
 8000074:	08000829 	stmdaeq	r0, {r0, r3, r5, fp}
 8000078:	08000829 	stmdaeq	r0, {r0, r3, r5, fp}
 800007c:	08000829 	stmdaeq	r0, {r0, r3, r5, fp}
 8000080:	08000829 	stmdaeq	r0, {r0, r3, r5, fp}
 8000084:	08000829 	stmdaeq	r0, {r0, r3, r5, fp}
 8000088:	08000829 	stmdaeq	r0, {r0, r3, r5, fp}
 800008c:	08000829 	stmdaeq	r0, {r0, r3, r5, fp}
 8000090:	08000829 	stmdaeq	r0, {r0, r3, r5, fp}
 8000094:	08000829 	stmdaeq	r0, {r0, r3, r5, fp}
 8000098:	08000829 	stmdaeq	r0, {r0, r3, r5, fp}
 800009c:	08000829 	stmdaeq	r0, {r0, r3, r5, fp}
 80000a0:	08000829 	stmdaeq	r0, {r0, r3, r5, fp}
 80000a4:	08000829 	stmdaeq	r0, {r0, r3, r5, fp}
 80000a8:	08000829 	stmdaeq	r0, {r0, r3, r5, fp}
 80000ac:	08000829 	stmdaeq	r0, {r0, r3, r5, fp}
 80000b0:	08000829 	stmdaeq	r0, {r0, r3, r5, fp}
 80000b4:	08000829 	stmdaeq	r0, {r0, r3, r5, fp}
 80000b8:	08000829 	stmdaeq	r0, {r0, r3, r5, fp}
 80000bc:	08000829 	stmdaeq	r0, {r0, r3, r5, fp}
 80000c0:	08000829 	stmdaeq	r0, {r0, r3, r5, fp}
 80000c4:	08000829 	stmdaeq	r0, {r0, r3, r5, fp}
 80000c8:	08000829 	stmdaeq	r0, {r0, r3, r5, fp}
 80000cc:	00000000 	andeq	r0, r0, r0
 80000d0:	08000829 	stmdaeq	r0, {r0, r3, r5, fp}
 80000d4:	08000829 	stmdaeq	r0, {r0, r3, r5, fp}
 80000d8:	08000829 	stmdaeq	r0, {r0, r3, r5, fp}
 80000dc:	08000829 	stmdaeq	r0, {r0, r3, r5, fp}
 80000e0:	08000829 	stmdaeq	r0, {r0, r3, r5, fp}
 80000e4:	08000829 	stmdaeq	r0, {r0, r3, r5, fp}
 80000e8:	08000829 	stmdaeq	r0, {r0, r3, r5, fp}
 80000ec:	08000829 	stmdaeq	r0, {r0, r3, r5, fp}
 80000f0:	08000829 	stmdaeq	r0, {r0, r3, r5, fp}
 80000f4:	08000829 	stmdaeq	r0, {r0, r3, r5, fp}
 80000f8:	08000829 	stmdaeq	r0, {r0, r3, r5, fp}
 80000fc:	08000829 	stmdaeq	r0, {r0, r3, r5, fp}
 8000100:	08000829 	stmdaeq	r0, {r0, r3, r5, fp}
 8000104:	08000829 	stmdaeq	r0, {r0, r3, r5, fp}
 8000108:	08000829 	stmdaeq	r0, {r0, r3, r5, fp}
 800010c:	08000829 	stmdaeq	r0, {r0, r3, r5, fp}
 8000110:	08000829 	stmdaeq	r0, {r0, r3, r5, fp}
 8000114:	08000829 	stmdaeq	r0, {r0, r3, r5, fp}
 8000118:	08000829 	stmdaeq	r0, {r0, r3, r5, fp}
 800011c:	08000829 	stmdaeq	r0, {r0, r3, r5, fp}
 8000120:	08000829 	stmdaeq	r0, {r0, r3, r5, fp}
 8000124:	08000829 	stmdaeq	r0, {r0, r3, r5, fp}
 8000128:	08000829 	stmdaeq	r0, {r0, r3, r5, fp}
 800012c:	08000829 	stmdaeq	r0, {r0, r3, r5, fp}
 8000130:	08000829 	stmdaeq	r0, {r0, r3, r5, fp}
 8000134:	08000829 	stmdaeq	r0, {r0, r3, r5, fp}
 8000138:	08000829 	stmdaeq	r0, {r0, r3, r5, fp}
 800013c:	08000829 	stmdaeq	r0, {r0, r3, r5, fp}
 8000140:	08000829 	stmdaeq	r0, {r0, r3, r5, fp}
 8000144:	08000829 	stmdaeq	r0, {r0, r3, r5, fp}
 8000148:	08000829 	stmdaeq	r0, {r0, r3, r5, fp}
 800014c:	08000829 	stmdaeq	r0, {r0, r3, r5, fp}
 8000150:	00000000 	andeq	r0, r0, r0
 8000154:	08000829 	stmdaeq	r0, {r0, r3, r5, fp}
 8000158:	08000829 	stmdaeq	r0, {r0, r3, r5, fp}
 800015c:	08000829 	stmdaeq	r0, {r0, r3, r5, fp}
 8000160:	08000829 	stmdaeq	r0, {r0, r3, r5, fp}
 8000164:	08000829 	stmdaeq	r0, {r0, r3, r5, fp}
	...
 8000178:	08000829 	stmdaeq	r0, {r0, r3, r5, fp}
 800017c:	08000829 	stmdaeq	r0, {r0, r3, r5, fp}
 8000180:	08000829 	stmdaeq	r0, {r0, r3, r5, fp}
 8000184:	00000000 	andeq	r0, r0, r0
 8000188:	08000829 	stmdaeq	r0, {r0, r3, r5, fp}
 800018c:	08000829 	stmdaeq	r0, {r0, r3, r5, fp}
	...
 80001a0:	08000829 	stmdaeq	r0, {r0, r3, r5, fp}
 80001a4:	08000829 	stmdaeq	r0, {r0, r3, r5, fp}

Disassembly of section .text:

080001a8 <net_init>:
 80001a8:	e92d 41f0 	stmdb	sp!, {r4, r5, r6, r7, r8, lr}
 80001ac:	460c      	mov	r4, r1
 80001ae:	4616      	mov	r6, r2
 80001b0:	9f06      	ldr	r7, [sp, #24]
 80001b2:	4a22      	ldr	r2, [pc, #136]	; (800023c <net_init+0x94>)
 80001b4:	461d      	mov	r5, r3
 80001b6:	1e43      	subs	r3, r0, #1
 80001b8:	3005      	adds	r0, #5
 80001ba:	f813 1f01 	ldrb.w	r1, [r3, #1]!
 80001be:	4283      	cmp	r3, r0
 80001c0:	f802 1b01 	strb.w	r1, [r2], #1
 80001c4:	d1f9      	bne.n	80001ba <net_init+0x12>
 80001c6:	4623      	mov	r3, r4
 80001c8:	4a1d      	ldr	r2, [pc, #116]	; (8000240 <net_init+0x98>)
 80001ca:	f104 010c 	add.w	r1, r4, #12
 80001ce:	f813 0b01 	ldrb.w	r0, [r3], #1
 80001d2:	428b      	cmp	r3, r1
 80001d4:	f802 0b01 	strb.w	r0, [r2], #1
 80001d8:	d1f9      	bne.n	80001ce <net_init+0x26>
 80001da:	f04f 0800 	mov.w	r8, #0
 80001de:	4918      	ldr	r1, [pc, #96]	; (8000240 <net_init+0x98>)
 80001e0:	4816      	ldr	r0, [pc, #88]	; (800023c <net_init+0x94>)
 80001e2:	f000 f995 	bl	8000510 <ip_init>
 80001e6:	4815      	ldr	r0, [pc, #84]	; (800023c <net_init+0x94>)
 80001e8:	f000 f83c 	bl	8000264 <rfc3927_init>
 80001ec:	f887 8000 	strb.w	r8, [r7]
 80001f0:	782b      	ldrb	r3, [r5, #0]
 80001f2:	b163      	cbz	r3, 800020e <net_init+0x66>
 80001f4:	4632      	mov	r2, r6
 80001f6:	4912      	ldr	r1, [pc, #72]	; (8000240 <net_init+0x98>)
 80001f8:	4810      	ldr	r0, [pc, #64]	; (800023c <net_init+0x94>)
 80001fa:	f003 fa13 	bl	8003624 <dhcp_client>
 80001fe:	4540      	cmp	r0, r8
 8000200:	da05      	bge.n	800020e <net_init+0x66>
 8000202:	480f      	ldr	r0, [pc, #60]	; (8000240 <net_init+0x98>)
 8000204:	f885 8000 	strb.w	r8, [r5]
 8000208:	f002 fa8c 	bl	8002724 <rfc3927>
 800020c:	7038      	strb	r0, [r7, #0]
 800020e:	490c      	ldr	r1, [pc, #48]	; (8000240 <net_init+0x98>)
 8000210:	480a      	ldr	r0, [pc, #40]	; (800023c <net_init+0x94>)
 8000212:	f000 f87f 	bl	8000314 <arp_init>
 8000216:	480a      	ldr	r0, [pc, #40]	; (8000240 <net_init+0x98>)
 8000218:	f003 fbea 	bl	80039f0 <ip_set_ip>
 800021c:	f000 f82e 	bl	800027c <tcp_init>
 8000220:	4a07      	ldr	r2, [pc, #28]	; (8000240 <net_init+0x98>)
 8000222:	1e63      	subs	r3, r4, #1
 8000224:	340b      	adds	r4, #11
 8000226:	f812 1b01 	ldrb.w	r1, [r2], #1
 800022a:	f803 1f01 	strb.w	r1, [r3, #1]!
 800022e:	429c      	cmp	r4, r3
 8000230:	d1f9      	bne.n	8000226 <net_init+0x7e>
 8000232:	782a      	ldrb	r2, [r5, #0]
 8000234:	4b03      	ldr	r3, [pc, #12]	; (8000244 <net_init+0x9c>)
 8000236:	701a      	strb	r2, [r3, #0]
 8000238:	e8bd 81f0 	ldmia.w	sp!, {r4, r5, r6, r7, r8, pc}
 800023c:	20001160 	andcs	r1, r0, r0, ror #2
 8000240:	20001154 	andcs	r1, r0, r4, asr r1
 8000244:	20001166 	andcs	r1, r0, r6, ror #2

08000248 <net_shutdown>:
 8000248:	b508      	push	{r3, lr}
 800024a:	f000 f96c 	bl	8000526 <ip_shutdown>
 800024e:	4b04      	ldr	r3, [pc, #16]	; (8000260 <net_shutdown+0x18>)
 8000250:	781b      	ldrb	r3, [r3, #0]
 8000252:	b11b      	cbz	r3, 800025c <net_shutdown+0x14>
 8000254:	e8bd 4008 	ldmia.w	sp!, {r3, lr}
 8000258:	f003 baec 	b.w	8003834 <dhcp_client_release>
 800025c:	bd08      	pop	{r3, pc}
 800025e:	bf00      	nop
 8000260:	20001166 	andcs	r1, r0, r6, ror #2

08000264 <rfc3927_init>:
 8000264:	4b04      	ldr	r3, [pc, #16]	; (8000278 <rfc3927_init+0x14>)
 8000266:	1d82      	adds	r2, r0, #6
 8000268:	4290      	cmp	r0, r2
 800026a:	d100      	bne.n	800026e <rfc3927_init+0xa>
 800026c:	4770      	bx	lr
 800026e:	f810 1b01 	ldrb.w	r1, [r0], #1
 8000272:	f803 1b01 	strb.w	r1, [r3], #1
 8000276:	e7f7      	b.n	8000268 <rfc3927_init+0x4>
 8000278:	20001170 	andcs	r1, r0, r0, ror r1

0800027c <tcp_init>:
 800027c:	2206      	movs	r2, #6
 800027e:	b513      	push	{r0, r1, r4, lr}
 8000280:	4c0b      	ldr	r4, [pc, #44]	; (80002b0 <tcp_init+0x34>)
 8000282:	490c      	ldr	r1, [pc, #48]	; (80002b4 <tcp_init+0x38>)
 8000284:	18a0      	adds	r0, r4, r2
 8000286:	f002 fa8d 	bl	80027a4 <memcpy.isra.0>
 800028a:	2308      	movs	r3, #8
 800028c:	2204      	movs	r2, #4
 800028e:	81a3      	strh	r3, [r4, #12]
 8000290:	4b09      	ldr	r3, [pc, #36]	; (80002b8 <tcp_init+0x3c>)
 8000292:	eb0d 0102 	add.w	r1, sp, r2
 8000296:	681b      	ldr	r3, [r3, #0]
 8000298:	f104 001a 	add.w	r0, r4, #26
 800029c:	9301      	str	r3, [sp, #4]
 800029e:	f002 fa81 	bl	80027a4 <memcpy.isra.0>
 80002a2:	2345      	movs	r3, #69	; 0x45
 80002a4:	81e3      	strh	r3, [r4, #14]
 80002a6:	4b05      	ldr	r3, [pc, #20]	; (80002bc <tcp_init+0x40>)
 80002a8:	6163      	str	r3, [r4, #20]
 80002aa:	b002      	add	sp, #8
 80002ac:	bd10      	pop	{r4, pc}
 80002ae:	bf00      	nop
 80002b0:	20001180 	andcs	r1, r0, r0, lsl #3
 80002b4:	20001160 	andcs	r1, r0, r0, ror #2
 80002b8:	20001154 	andcs	r1, r0, r4, asr r1
 80002bc:	06400040 	strbeq	r0, [r0], -r0, asr #32

080002c0 <udp_init>:
 80002c0:	b570      	push	{r4, r5, r6, lr}
 80002c2:	2400      	movs	r4, #0
 80002c4:	4a0c      	ldr	r2, [pc, #48]	; (80002f8 <udp_init+0x38>)
 80002c6:	460e      	mov	r6, r1
 80002c8:	6014      	str	r4, [r2, #0]
 80002ca:	6054      	str	r4, [r2, #4]
 80002cc:	2206      	movs	r2, #6
 80002ce:	4b0b      	ldr	r3, [pc, #44]	; (80002fc <udp_init+0x3c>)
 80002d0:	4d0b      	ldr	r5, [pc, #44]	; (8000300 <udp_init+0x40>)
 80002d2:	601c      	str	r4, [r3, #0]
 80002d4:	f8c3 4b94 	str.w	r4, [r3, #2964]	; 0xb94
 80002d8:	4b0a      	ldr	r3, [pc, #40]	; (8000304 <udp_init+0x44>)
 80002da:	4601      	mov	r1, r0
 80002dc:	18a8      	adds	r0, r5, r2
 80002de:	801c      	strh	r4, [r3, #0]
 80002e0:	f002 fa6a 	bl	80027b8 <memcpy.isra.0>
 80002e4:	4b08      	ldr	r3, [pc, #32]	; (8000308 <udp_init+0x48>)
 80002e6:	4630      	mov	r0, r6
 80002e8:	60eb      	str	r3, [r5, #12]
 80002ea:	4b08      	ldr	r3, [pc, #32]	; (800030c <udp_init+0x4c>)
 80002ec:	616b      	str	r3, [r5, #20]
 80002ee:	f002 fa8b 	bl	8002808 <udp_set_ip>
 80002f2:	852c      	strh	r4, [r5, #40]	; 0x28
 80002f4:	bd70      	pop	{r4, r5, r6, pc}
 80002f6:	bf00      	nop
 80002f8:	2000177c 	andcs	r1, r0, ip, ror r7
 80002fc:	20001784 	andcs	r1, r0, r4, lsl #15
 8000300:	20002eac 	andcs	r2, r0, ip, lsr #29
 8000304:	20001778 	andcs	r1, r0, r8, ror r7
 8000308:	00450008 	subeq	r0, r5, r8
 800030c:	11400040 	cmpne	r0, r0, asr #32

08000310 <udp_shutdown>:
 8000310:	4770      	bx	lr
	...

08000314 <arp_init>:
 8000314:	e92d 41f0 	stmdb	sp!, {r4, r5, r6, r7, r8, lr}
 8000318:	4604      	mov	r4, r0
 800031a:	460d      	mov	r5, r1
 800031c:	f000 f876 	bl	800040c <arp_cache_init>
 8000320:	2206      	movs	r2, #6
 8000322:	4621      	mov	r1, r4
 8000324:	482e      	ldr	r0, [pc, #184]	; (80003e0 <arp_init+0xcc>)
 8000326:	682f      	ldr	r7, [r5, #0]
 8000328:	f002 fffd 	bl	8003326 <memcpy.isra.0>
 800032c:	4b2d      	ldr	r3, [pc, #180]	; (80003e4 <arp_init+0xd0>)
 800032e:	2507      	movs	r5, #7
 8000330:	461e      	mov	r6, r3
 8000332:	22ff      	movs	r2, #255	; 0xff
 8000334:	3d01      	subs	r5, #1
 8000336:	d146      	bne.n	80003c6 <arp_init+0xb2>
 8000338:	4b2b      	ldr	r3, [pc, #172]	; (80003e8 <arp_init+0xd4>)
 800033a:	f8df 80b0 	ldr.w	r8, [pc, #176]	; 80003ec <arp_init+0xd8>
 800033e:	2206      	movs	r2, #6
 8000340:	e9c6 3803 	strd	r3, r8, [r6, #12]
 8000344:	f44f 7380 	mov.w	r3, #256	; 0x100
 8000348:	4621      	mov	r1, r4
 800034a:	4829      	ldr	r0, [pc, #164]	; (80003f0 <arp_init+0xdc>)
 800034c:	82b3      	strh	r3, [r6, #20]
 800034e:	f002 ffea 	bl	8003326 <memcpy.isra.0>
 8000352:	2307      	movs	r3, #7
 8000354:	4a27      	ldr	r2, [pc, #156]	; (80003f4 <arp_init+0xe0>)
 8000356:	61f7      	str	r7, [r6, #28]
 8000358:	3b01      	subs	r3, #1
 800035a:	d137      	bne.n	80003cc <arp_init+0xb8>
 800035c:	2206      	movs	r2, #6
 800035e:	4621      	mov	r1, r4
 8000360:	4825      	ldr	r0, [pc, #148]	; (80003f8 <arp_init+0xe4>)
 8000362:	f8c6 7026 	str.w	r7, [r6, #38]	; 0x26
 8000366:	f002 ffde 	bl	8003326 <memcpy.isra.0>
 800036a:	4a24      	ldr	r2, [pc, #144]	; (80003fc <arp_init+0xe8>)
 800036c:	2306      	movs	r3, #6
 800036e:	4615      	mov	r5, r2
 8000370:	21ff      	movs	r1, #255	; 0xff
 8000372:	3b01      	subs	r3, #1
 8000374:	d22d      	bcs.n	80003d2 <arp_init+0xbe>
 8000376:	4b1c      	ldr	r3, [pc, #112]	; (80003e8 <arp_init+0xd4>)
 8000378:	2206      	movs	r2, #6
 800037a:	e9c5 3803 	strd	r3, r8, [r5, #12]
 800037e:	f44f 7380 	mov.w	r3, #256	; 0x100
 8000382:	4621      	mov	r1, r4
 8000384:	481e      	ldr	r0, [pc, #120]	; (8000400 <arp_init+0xec>)
 8000386:	82ab      	strh	r3, [r5, #20]
 8000388:	f002 ffcd 	bl	8003326 <memcpy.isra.0>
 800038c:	2307      	movs	r3, #7
 800038e:	2100      	movs	r1, #0
 8000390:	4a1c      	ldr	r2, [pc, #112]	; (8000404 <arp_init+0xf0>)
 8000392:	61ef      	str	r7, [r5, #28]
 8000394:	3b01      	subs	r3, #1
 8000396:	d11f      	bne.n	80003d8 <arp_init+0xc4>
 8000398:	2206      	movs	r2, #6
 800039a:	4d1b      	ldr	r5, [pc, #108]	; (8000408 <arp_init+0xf4>)
 800039c:	4621      	mov	r1, r4
 800039e:	18a8      	adds	r0, r5, r2
 80003a0:	f002 ffc1 	bl	8003326 <memcpy.isra.0>
 80003a4:	4b10      	ldr	r3, [pc, #64]	; (80003e8 <arp_init+0xd4>)
 80003a6:	4621      	mov	r1, r4
 80003a8:	e9c5 3803 	strd	r3, r8, [r5, #12]
 80003ac:	f44f 7300 	mov.w	r3, #512	; 0x200
 80003b0:	f105 0016 	add.w	r0, r5, #22
 80003b4:	2206      	movs	r2, #6
 80003b6:	82ab      	strh	r3, [r5, #20]
 80003b8:	f002 ffb5 	bl	8003326 <memcpy.isra.0>
 80003bc:	61ef      	str	r7, [r5, #28]
 80003be:	e8bd 41f0 	ldmia.w	sp!, {r4, r5, r6, r7, r8, lr}
 80003c2:	f002 bfbb 	b.w	800333c <arp_announce>
 80003c6:	f803 2b01 	strb.w	r2, [r3], #1
 80003ca:	e7b3      	b.n	8000334 <arp_init+0x20>
 80003cc:	f802 5b01 	strb.w	r5, [r2], #1
 80003d0:	e7c2      	b.n	8000358 <arp_init+0x44>
 80003d2:	f802 1b01 	strb.w	r1, [r2], #1
 80003d6:	e7cc      	b.n	8000372 <arp_init+0x5e>
 80003d8:	f802 1b01 	strb.w	r1, [r2], #1
 80003dc:	e7da      	b.n	8000394 <arp_init+0x80>
 80003de:	bf00      	nop
 80003e0:	200034a6 	andcs	r3, r0, r6, lsr #9
 80003e4:	200034a0 	andcs	r3, r0, r0, lsr #9
 80003e8:	01000608 	tsteq	r0, r8, lsl #12
 80003ec:	04060008 	streq	r0, [r6], #-8
 80003f0:	200034b6 			; <UNDEFINED> instruction: 0x200034b6
 80003f4:	200034c0 	andcs	r3, r0, r0, asr #9
 80003f8:	200034fe 	strdcs	r3, [r0], -lr
 80003fc:	200034f8 	strdcs	r3, [r0], -r8
 8000400:	2000350e 	andcs	r3, r0, lr, lsl #10
 8000404:	20003518 	andcs	r3, r0, r8, lsl r5
 8000408:	200034cc 	andcs	r3, r0, ip, asr #9

0800040c <arp_cache_init>:
 800040c:	2300      	movs	r3, #0
 800040e:	4618      	mov	r0, r3
 8000410:	4a09      	ldr	r2, [pc, #36]	; (8000438 <arp_cache_init+0x2c>)
 8000412:	b510      	push	{r4, lr}
 8000414:	8013      	strh	r3, [r2, #0]
 8000416:	4a09      	ldr	r2, [pc, #36]	; (800043c <arp_cache_init+0x30>)
 8000418:	4611      	mov	r1, r2
 800041a:	f842 0c04 	str.w	r0, [r2, #-4]
 800041e:	1d94      	adds	r4, r2, #6
 8000420:	42a1      	cmp	r1, r4
 8000422:	d105      	bne.n	8000430 <arp_cache_init+0x24>
 8000424:	3303      	adds	r3, #3
 8000426:	2b60      	cmp	r3, #96	; 0x60
 8000428:	f102 020c 	add.w	r2, r2, #12
 800042c:	d1f4      	bne.n	8000418 <arp_cache_init+0xc>
 800042e:	bd10      	pop	{r4, pc}
 8000430:	f801 0b01 	strb.w	r0, [r1], #1
 8000434:	e7f4      	b.n	8000420 <arp_cache_init+0x14>
 8000436:	bf00      	nop
 8000438:	200036a4 	andcs	r3, r0, r4, lsr #13
 800043c:	20003528 	andcs	r3, r0, r8, lsr #10

08000440 <igmp_init>:
 8000440:	e92d 43f8 	stmdb	sp!, {r3, r4, r5, r6, r7, r8, r9, lr}
 8000444:	2200      	movs	r2, #0
 8000446:	4606      	mov	r6, r0
 8000448:	2509      	movs	r5, #9
 800044a:	4608      	mov	r0, r1
 800044c:	4b20      	ldr	r3, [pc, #128]	; (80004d0 <igmp_init+0x90>)
 800044e:	3d01      	subs	r5, #1
 8000450:	d13a      	bne.n	80004c8 <igmp_init+0x88>
 8000452:	4b20      	ldr	r3, [pc, #128]	; (80004d4 <igmp_init+0x94>)
 8000454:	4c20      	ldr	r4, [pc, #128]	; (80004d8 <igmp_init+0x98>)
 8000456:	601d      	str	r5, [r3, #0]
 8000458:	4b20      	ldr	r3, [pc, #128]	; (80004dc <igmp_init+0x9c>)
 800045a:	f44f 5700 	mov.w	r7, #8192	; 0x2000
 800045e:	801d      	strh	r5, [r3, #0]
 8000460:	f003 fa60 	bl	8003924 <igmp_set_ip>
 8000464:	2201      	movs	r2, #1
 8000466:	4b1e      	ldr	r3, [pc, #120]	; (80004e0 <igmp_init+0xa0>)
 8000468:	4631      	mov	r1, r6
 800046a:	801a      	strh	r2, [r3, #0]
 800046c:	225e      	movs	r2, #94	; 0x5e
 800046e:	709a      	strb	r2, [r3, #2]
 8000470:	2206      	movs	r2, #6
 8000472:	18a0      	adds	r0, r4, r2
 8000474:	f003 fa0c 	bl	8003890 <memcpy.isra.0>
 8000478:	f240 4394 	movw	r3, #1172	; 0x494
 800047c:	8463      	strh	r3, [r4, #34]	; 0x22
 800047e:	2316      	movs	r3, #22
 8000480:	f8df 9060 	ldr.w	r9, [pc, #96]	; 80004e4 <igmp_init+0xa4>
 8000484:	f8df 8060 	ldr.w	r8, [pc, #96]	; 80004e8 <igmp_init+0xa8>
 8000488:	84e3      	strh	r3, [r4, #38]	; 0x26
 800048a:	f8c4 9014 	str.w	r9, [r4, #20]
 800048e:	4b17      	ldr	r3, [pc, #92]	; (80004ec <igmp_init+0xac>)
 8000490:	f8c4 800c 	str.w	r8, [r4, #12]
 8000494:	8227      	strh	r7, [r4, #16]
 8000496:	84a5      	strh	r5, [r4, #36]	; 0x24
 8000498:	4c15      	ldr	r4, [pc, #84]	; (80004f0 <igmp_init+0xb0>)
 800049a:	2206      	movs	r2, #6
 800049c:	6023      	str	r3, [r4, #0]
 800049e:	f44f 7300 	mov.w	r3, #512	; 0x200
 80004a2:	18a0      	adds	r0, r4, r2
 80004a4:	80a3      	strh	r3, [r4, #4]
 80004a6:	4631      	mov	r1, r6
 80004a8:	f003 f9f2 	bl	8003890 <memcpy.isra.0>
 80004ac:	23e0      	movs	r3, #224	; 0xe0
 80004ae:	83e3      	strh	r3, [r4, #30]
 80004b0:	f44f 13b8 	mov.w	r3, #1507328	; 0x170000
 80004b4:	4a0f      	ldr	r2, [pc, #60]	; (80004f4 <igmp_init+0xb4>)
 80004b6:	f8c4 9014 	str.w	r9, [r4, #20]
 80004ba:	e9c4 2308 	strd	r2, r3, [r4, #32]
 80004be:	f8c4 800c 	str.w	r8, [r4, #12]
 80004c2:	8227      	strh	r7, [r4, #16]
 80004c4:	e8bd 83f8 	ldmia.w	sp!, {r3, r4, r5, r6, r7, r8, r9, pc}
 80004c8:	f803 2b01 	strb.w	r2, [r3], #1
 80004cc:	e7bf      	b.n	800044e <igmp_init+0xe>
 80004ce:	bf00      	nop
 80004d0:	200038dc 	ldrdcs	r3, [r0], -ip
 80004d4:	200038e8 	andcs	r3, r0, r8, ror #17
 80004d8:	20003924 	andcs	r3, r0, r4, lsr #18
 80004dc:	200038e4 	andcs	r3, r0, r4, ror #17
 80004e0:	2000391c 	andcs	r3, r0, ip, lsl r9
 80004e4:	02010040 	andeq	r0, r1, #64	; 0x40
 80004e8:	00460008 	subeq	r0, r6, r8
 80004ec:	005e0001 	subseq	r0, lr, r1
 80004f0:	200038ec 	andcs	r3, r0, ip, ror #17
 80004f4:	04940200 	ldreq	r0, [r4], #512	; 0x200

080004f8 <igmp_shutdown>:
 80004f8:	b510      	push	{r4, lr}
 80004fa:	4c04      	ldr	r4, [pc, #16]	; (800050c <igmp_shutdown+0x14>)
 80004fc:	6820      	ldr	r0, [r4, #0]
 80004fe:	b120      	cbz	r0, 800050a <igmp_shutdown+0x12>
 8000500:	f003 fa40 	bl	8003984 <igmp_leave>
 8000504:	2300      	movs	r3, #0
 8000506:	6023      	str	r3, [r4, #0]
 8000508:	80a3      	strh	r3, [r4, #4]
 800050a:	bd10      	pop	{r4, pc}
 800050c:	200038dc 	ldrdcs	r3, [r0], -ip

08000510 <ip_init>:
 8000510:	b538      	push	{r3, r4, r5, lr}
 8000512:	4604      	mov	r4, r0
 8000514:	460d      	mov	r5, r1
 8000516:	f7ff fed3 	bl	80002c0 <udp_init>
 800051a:	4629      	mov	r1, r5
 800051c:	4620      	mov	r0, r4
 800051e:	e8bd 4038 	ldmia.w	sp!, {r3, r4, r5, lr}
 8000522:	f7ff bf8d 	b.w	8000440 <igmp_init>

08000526 <ip_shutdown>:
 8000526:	b508      	push	{r3, lr}
 8000528:	f7ff ffe6 	bl	80004f8 <igmp_shutdown>
 800052c:	e8bd 4008 	ldmia.w	sp!, {r3, lr}
 8000530:	f7ff beee 	b.w	8000310 <udp_shutdown>

08000534 <console_init>:
 8000534:	b508      	push	{r3, lr}
 8000536:	f003 fd4f 	bl	8003fd8 <uart0_init>
 800053a:	4804      	ldr	r0, [pc, #16]	; (800054c <console_init+0x18>)
 800053c:	f003 fd7c 	bl	8004038 <uart0_puts>
 8000540:	4803      	ldr	r0, [pc, #12]	; (8000550 <console_init+0x1c>)
 8000542:	f003 fd79 	bl	8004038 <uart0_puts>
 8000546:	2000      	movs	r0, #0
 8000548:	bd08      	pop	{r3, pc}
 800054a:	bf00      	nop
 800054c:	08006954 	stmdaeq	r0, {r2, r4, r6, r8, fp, sp, lr}
 8000550:	0800695a 	stmdaeq	r0, {r1, r3, r4, r6, r8, fp, sp, lr}

08000554 <net_handle>:
 8000554:	b510      	push	{r4, lr}
 8000556:	4c0c      	ldr	r4, [pc, #48]	; (8000588 <net_handle+0x34>)
 8000558:	4620      	mov	r0, r4
 800055a:	f004 fb59 	bl	8004c10 <emac_eth_recv>
 800055e:	2800      	cmp	r0, #0
 8000560:	dd07      	ble.n	8000572 <net_handle+0x1e>
 8000562:	6820      	ldr	r0, [r4, #0]
 8000564:	8983      	ldrh	r3, [r0, #12]
 8000566:	2b08      	cmp	r3, #8
 8000568:	d107      	bne.n	800057a <net_handle+0x26>
 800056a:	f000 f8c1 	bl	80006f0 <ip_handle>
 800056e:	f004 fb63 	bl	8004c38 <emac_free_pkt>
 8000572:	e8bd 4010 	ldmia.w	sp!, {r4, lr}
 8000576:	f002 b8c5 	b.w	8002704 <net_timers_run>
 800057a:	f5b3 6fc1 	cmp.w	r3, #1544	; 0x608
 800057e:	d1f6      	bne.n	800056e <net_handle+0x1a>
 8000580:	f000 f85a 	bl	8000638 <arp_handle>
 8000584:	e7f3      	b.n	800056e <net_handle+0x1a>
 8000586:	bf00      	nop
 8000588:	20001168 	andcs	r1, r0, r8, ror #2

0800058c <udp_handle>:
 800058c:	e92d 41f3 	stmdb	sp!, {r0, r1, r4, r5, r6, r7, r8, lr}
 8000590:	8c83      	ldrh	r3, [r0, #36]	; 0x24
 8000592:	4606      	mov	r6, r0
 8000594:	ba5b      	rev16	r3, r3
 8000596:	b29b      	uxth	r3, r3
 8000598:	f1a3 0244 	sub.w	r2, r3, #68	; 0x44
 800059c:	2a01      	cmp	r2, #1
 800059e:	d901      	bls.n	80005a4 <udp_handle+0x18>
 80005a0:	2b7b      	cmp	r3, #123	; 0x7b
 80005a2:	d108      	bne.n	80005b6 <udp_handle+0x2a>
 80005a4:	4a22      	ldr	r2, [pc, #136]	; (8000630 <udp_handle+0xa4>)
 80005a6:	6811      	ldr	r1, [r2, #0]
 80005a8:	4299      	cmp	r1, r3
 80005aa:	d00a      	beq.n	80005c2 <udp_handle+0x36>
 80005ac:	6852      	ldr	r2, [r2, #4]
 80005ae:	4293      	cmp	r3, r2
 80005b0:	d104      	bne.n	80005bc <udp_handle+0x30>
 80005b2:	2701      	movs	r7, #1
 80005b4:	e006      	b.n	80005c4 <udp_handle+0x38>
 80005b6:	f5b3 6f80 	cmp.w	r3, #1024	; 0x400
 80005ba:	d2f3      	bcs.n	80005a4 <udp_handle+0x18>
 80005bc:	b002      	add	sp, #8
 80005be:	e8bd 81f0 	ldmia.w	sp!, {r4, r5, r6, r7, r8, pc}
 80005c2:	2700      	movs	r7, #0
 80005c4:	f640 3394 	movw	r3, #2964	; 0xb94
 80005c8:	8cf5      	ldrh	r5, [r6, #38]	; 0x26
 80005ca:	435f      	muls	r7, r3
 80005cc:	f44f 63b9 	mov.w	r3, #1480	; 0x5c8
 80005d0:	ba6d      	rev16	r5, r5
 80005d2:	3d08      	subs	r5, #8
 80005d4:	b2ad      	uxth	r5, r5
 80005d6:	f5b5 6fb8 	cmp.w	r5, #1472	; 0x5c0
 80005da:	bf28      	it	cs
 80005dc:	f44f 65b8 	movcs.w	r5, #1472	; 0x5c0
 80005e0:	f8df 8050 	ldr.w	r8, [pc, #80]	; 8000634 <udp_handle+0xa8>
 80005e4:	1d38      	adds	r0, r7, #4
 80005e6:	f838 4007 	ldrh.w	r4, [r8, r7]
 80005ea:	462a      	mov	r2, r5
 80005ec:	435c      	muls	r4, r3
 80005ee:	4420      	add	r0, r4
 80005f0:	f106 012a 	add.w	r1, r6, #42	; 0x2a
 80005f4:	4440      	add	r0, r8
 80005f6:	f002 f8df 	bl	80027b8 <memcpy.isra.0>
 80005fa:	2204      	movs	r2, #4
 80005fc:	f106 011a 	add.w	r1, r6, #26
 8000600:	eb0d 0002 	add.w	r0, sp, r2
 8000604:	f002 f8d8 	bl	80027b8 <memcpy.isra.0>
 8000608:	9a01      	ldr	r2, [sp, #4]
 800060a:	19e3      	adds	r3, r4, r7
 800060c:	4443      	add	r3, r8
 800060e:	f8c3 25c4 	str.w	r2, [r3, #1476]	; 0x5c4
 8000612:	8c72      	ldrh	r2, [r6, #34]	; 0x22
 8000614:	f8a3 55ca 	strh.w	r5, [r3, #1482]	; 0x5ca
 8000618:	ba52      	rev16	r2, r2
 800061a:	f8a3 25c8 	strh.w	r2, [r3, #1480]	; 0x5c8
 800061e:	f838 3007 	ldrh.w	r3, [r8, r7]
 8000622:	3301      	adds	r3, #1
 8000624:	f003 0301 	and.w	r3, r3, #1
 8000628:	f828 3007 	strh.w	r3, [r8, r7]
 800062c:	e7c6      	b.n	80005bc <udp_handle+0x30>
 800062e:	bf00      	nop
 8000630:	2000177c 	andcs	r1, r0, ip, ror r7
 8000634:	20001784 	andcs	r1, r0, r4, lsl #15

08000638 <arp_handle>:
 8000638:	8a83      	ldrh	r3, [r0, #20]
 800063a:	f5b3 7f80 	cmp.w	r3, #256	; 0x100
 800063e:	d003      	beq.n	8000648 <arp_handle+0x10>
 8000640:	f5b3 7f00 	cmp.w	r3, #512	; 0x200
 8000644:	d002      	beq.n	800064c <arp_handle+0x14>
 8000646:	4770      	bx	lr
 8000648:	f002 be82 	b.w	8003350 <arp_handle_request>
 800064c:	f002 bea8 	b.w	80033a0 <arp_handle_reply>

08000650 <igmp_handle>:
 8000650:	7b83      	ldrb	r3, [r0, #14]
 8000652:	e92d 43f7 	stmdb	sp!, {r0, r1, r2, r4, r5, r6, r7, r8, r9, lr}
 8000656:	2b45      	cmp	r3, #69	; 0x45
 8000658:	d116      	bne.n	8000688 <igmp_handle+0x38>
 800065a:	f890 3022 	ldrb.w	r3, [r0, #34]	; 0x22
 800065e:	2b11      	cmp	r3, #17
 8000660:	d112      	bne.n	8000688 <igmp_handle+0x38>
 8000662:	4b20      	ldr	r3, [pc, #128]	; (80006e4 <igmp_handle+0x94>)
 8000664:	f100 051d 	add.w	r5, r0, #29
 8000668:	9300      	str	r3, [sp, #0]
 800066a:	466a      	mov	r2, sp
 800066c:	462b      	mov	r3, r5
 800066e:	f100 0621 	add.w	r6, r0, #33	; 0x21
 8000672:	42b3      	cmp	r3, r6
 8000674:	d10b      	bne.n	800068e <igmp_handle+0x3e>
 8000676:	2401      	movs	r4, #1
 8000678:	2100      	movs	r1, #0
 800067a:	f04f 0c01 	mov.w	ip, #1
 800067e:	4b1a      	ldr	r3, [pc, #104]	; (80006e8 <igmp_handle+0x98>)
 8000680:	4a1a      	ldr	r2, [pc, #104]	; (80006ec <igmp_handle+0x9c>)
 8000682:	681f      	ldr	r7, [r3, #0]
 8000684:	428f      	cmp	r7, r1
 8000686:	d10a      	bne.n	800069e <igmp_handle+0x4e>
 8000688:	b003      	add	sp, #12
 800068a:	e8bd 83f0 	ldmia.w	sp!, {r4, r5, r6, r7, r8, r9, pc}
 800068e:	f812 1b01 	ldrb.w	r1, [r2], #1
 8000692:	f813 4f01 	ldrb.w	r4, [r3, #1]!
 8000696:	428c      	cmp	r4, r1
 8000698:	d0eb      	beq.n	8000672 <igmp_handle+0x22>
 800069a:	2400      	movs	r4, #0
 800069c:	e7ec      	b.n	8000678 <igmp_handle+0x28>
 800069e:	6813      	ldr	r3, [r2, #0]
 80006a0:	9301      	str	r3, [sp, #4]
 80006a2:	b924      	cbnz	r4, 80006ae <igmp_handle+0x5e>
 80006a4:	462b      	mov	r3, r5
 80006a6:	f10d 0e04 	add.w	lr, sp, #4
 80006aa:	42b3      	cmp	r3, r6
 80006ac:	d10e      	bne.n	80006cc <igmp_handle+0x7c>
 80006ae:	f892 e005 	ldrb.w	lr, [r2, #5]
 80006b2:	f890 3023 	ldrb.w	r3, [r0, #35]	; 0x23
 80006b6:	f1be 0f01 	cmp.w	lr, #1
 80006ba:	d110      	bne.n	80006de <igmp_handle+0x8e>
 80006bc:	f892 e004 	ldrb.w	lr, [r2, #4]
 80006c0:	459e      	cmp	lr, r3
 80006c2:	d909      	bls.n	80006d8 <igmp_handle+0x88>
 80006c4:	085b      	lsrs	r3, r3, #1
 80006c6:	3301      	adds	r3, #1
 80006c8:	7113      	strb	r3, [r2, #4]
 80006ca:	e005      	b.n	80006d8 <igmp_handle+0x88>
 80006cc:	f81e 8b01 	ldrb.w	r8, [lr], #1
 80006d0:	f813 9f01 	ldrb.w	r9, [r3, #1]!
 80006d4:	45c1      	cmp	r9, r8
 80006d6:	d0e8      	beq.n	80006aa <igmp_handle+0x5a>
 80006d8:	3101      	adds	r1, #1
 80006da:	3208      	adds	r2, #8
 80006dc:	e7d2      	b.n	8000684 <igmp_handle+0x34>
 80006de:	f882 c005 	strb.w	ip, [r2, #5]
 80006e2:	e7ef      	b.n	80006c4 <igmp_handle+0x74>
 80006e4:	010000e0 	smlatteq	r0, r0, r0, r0
 80006e8:	200038e8 	andcs	r3, r0, r8, ror #17
 80006ec:	200038dc 	ldrdcs	r3, [r0], -ip

080006f0 <ip_handle>:
 80006f0:	7b82      	ldrb	r2, [r0, #14]
 80006f2:	7dc3      	ldrb	r3, [r0, #23]
 80006f4:	2a45      	cmp	r2, #69	; 0x45
 80006f6:	d003      	beq.n	8000700 <ip_handle+0x10>
 80006f8:	2b02      	cmp	r3, #2
 80006fa:	d10b      	bne.n	8000714 <ip_handle+0x24>
 80006fc:	f7ff bfa8 	b.w	8000650 <igmp_handle>
 8000700:	2b02      	cmp	r3, #2
 8000702:	d0fb      	beq.n	80006fc <ip_handle+0xc>
 8000704:	2b11      	cmp	r3, #17
 8000706:	d003      	beq.n	8000710 <ip_handle+0x20>
 8000708:	2b01      	cmp	r3, #1
 800070a:	d103      	bne.n	8000714 <ip_handle+0x24>
 800070c:	f000 b804 	b.w	8000718 <icmp_handle>
 8000710:	f7ff bf3c 	b.w	800058c <udp_handle>
 8000714:	4770      	bx	lr
	...

08000718 <icmp_handle>:
 8000718:	b573      	push	{r0, r1, r4, r5, r6, lr}
 800071a:	f890 3022 	ldrb.w	r3, [r0, #34]	; 0x22
 800071e:	4604      	mov	r4, r0
 8000720:	2b08      	cmp	r3, #8
 8000722:	d13e      	bne.n	80007a2 <icmp_handle+0x8a>
 8000724:	f890 5023 	ldrb.w	r5, [r0, #35]	; 0x23
 8000728:	2d00      	cmp	r5, #0
 800072a:	d13a      	bne.n	80007a2 <icmp_handle+0x8a>
 800072c:	1d86      	adds	r6, r0, #6
 800072e:	4631      	mov	r1, r6
 8000730:	2206      	movs	r2, #6
 8000732:	f003 f97f 	bl	8003a34 <memcpy.isra.0>
 8000736:	4630      	mov	r0, r6
 8000738:	2206      	movs	r2, #6
 800073a:	491b      	ldr	r1, [pc, #108]	; (80007a8 <icmp_handle+0x90>)
 800073c:	f003 f97a 	bl	8003a34 <memcpy.isra.0>
 8000740:	8a63      	ldrh	r3, [r4, #18]
 8000742:	f104 061a 	add.w	r6, r4, #26
 8000746:	43db      	mvns	r3, r3
 8000748:	4631      	mov	r1, r6
 800074a:	2204      	movs	r2, #4
 800074c:	8263      	strh	r3, [r4, #18]
 800074e:	f104 001e 	add.w	r0, r4, #30
 8000752:	f003 f96f 	bl	8003a34 <memcpy.isra.0>
 8000756:	2204      	movs	r2, #4
 8000758:	4b14      	ldr	r3, [pc, #80]	; (80007ac <icmp_handle+0x94>)
 800075a:	eb0d 0102 	add.w	r1, sp, r2
 800075e:	681b      	ldr	r3, [r3, #0]
 8000760:	4630      	mov	r0, r6
 8000762:	f104 060e 	add.w	r6, r4, #14
 8000766:	9301      	str	r3, [sp, #4]
 8000768:	f003 f964 	bl	8003a34 <memcpy.isra.0>
 800076c:	2114      	movs	r1, #20
 800076e:	4630      	mov	r0, r6
 8000770:	7625      	strb	r5, [r4, #24]
 8000772:	7665      	strb	r5, [r4, #25]
 8000774:	f003 f945 	bl	8003a02 <net_chksum>
 8000778:	8a21      	ldrh	r1, [r4, #16]
 800077a:	8320      	strh	r0, [r4, #24]
 800077c:	ba49      	rev16	r1, r1
 800077e:	b289      	uxth	r1, r1
 8000780:	4630      	mov	r0, r6
 8000782:	f884 5022 	strb.w	r5, [r4, #34]	; 0x22
 8000786:	f884 5024 	strb.w	r5, [r4, #36]	; 0x24
 800078a:	f884 5025 	strb.w	r5, [r4, #37]	; 0x25
 800078e:	f003 f938 	bl	8003a02 <net_chksum>
 8000792:	8a21      	ldrh	r1, [r4, #16]
 8000794:	84a0      	strh	r0, [r4, #36]	; 0x24
 8000796:	ba49      	rev16	r1, r1
 8000798:	b289      	uxth	r1, r1
 800079a:	4620      	mov	r0, r4
 800079c:	310e      	adds	r1, #14
 800079e:	f004 fa4f 	bl	8004c40 <emac_eth_send>
 80007a2:	b002      	add	sp, #8
 80007a4:	bd70      	pop	{r4, r5, r6, pc}
 80007a6:	bf00      	nop
 80007a8:	20001160 	andcs	r1, r0, r0, ror #2
 80007ac:	20001154 	andcs	r1, r0, r4, asr r1

080007b0 <__aeabi_uldivmod>:
 80007b0:	b953      	cbnz	r3, 80007c8 <__aeabi_uldivmod+0x18>
 80007b2:	b94a      	cbnz	r2, 80007c8 <__aeabi_uldivmod+0x18>
 80007b4:	2900      	cmp	r1, #0
 80007b6:	bf08      	it	eq
 80007b8:	2800      	cmpeq	r0, #0
 80007ba:	bf1c      	itt	ne
 80007bc:	f04f 31ff 	movne.w	r1, #4294967295	; 0xffffffff
 80007c0:	f04f 30ff 	movne.w	r0, #4294967295	; 0xffffffff
 80007c4:	f000 b80c 	b.w	80007e0 <__aeabi_idiv0>
 80007c8:	f1ad 0c08 	sub.w	ip, sp, #8
 80007cc:	e96d ce04 	strd	ip, lr, [sp, #-16]!
 80007d0:	f000 fc1c 	bl	800100c <__udivmoddi4>
 80007d4:	f8dd e004 	ldr.w	lr, [sp, #4]
 80007d8:	e9dd 2302 	ldrd	r2, r3, [sp, #8]
 80007dc:	b004      	add	sp, #16
 80007de:	4770      	bx	lr

080007e0 <__aeabi_idiv0>:
 80007e0:	4770      	bx	lr
 80007e2:	bf00      	nop

080007e4 <Reset_Handler>:
 80007e4:	2100      	movs	r1, #0
 80007e6:	e003      	b.n	80007f0 <DataInit>

080007e8 <CopyData>:
 80007e8:	4b0a      	ldr	r3, [pc, #40]	; (8000814 <Zerobss+0x10>)
 80007ea:	585b      	ldr	r3, [r3, r1]
 80007ec:	5043      	str	r3, [r0, r1]
 80007ee:	3104      	adds	r1, #4

080007f0 <DataInit>:
 80007f0:	4809      	ldr	r0, [pc, #36]	; (8000818 <Zerobss+0x14>)
 80007f2:	4b0a      	ldr	r3, [pc, #40]	; (800081c <Zerobss+0x18>)
 80007f4:	1842      	adds	r2, r0, r1
 80007f6:	429a      	cmp	r2, r3
 80007f8:	d3f6      	bcc.n	80007e8 <CopyData>
 80007fa:	4a09      	ldr	r2, [pc, #36]	; (8000820 <Zerobss+0x1c>)
 80007fc:	e002      	b.n	8000804 <Zerobss>

080007fe <FillZerobss>:
 80007fe:	2300      	movs	r3, #0
 8000800:	f842 3b04 	str.w	r3, [r2], #4

08000804 <Zerobss>:
 8000804:	4b07      	ldr	r3, [pc, #28]	; (8000824 <Zerobss+0x20>)
 8000806:	429a      	cmp	r2, r3
 8000808:	d3f9      	bcc.n	80007fe <FillZerobss>
 800080a:	f003 fc4b 	bl	80040a4 <SystemInit>
 800080e:	f000 f829 	bl	8000864 <main>
 8000812:	4770      	bx	lr
 8000814:	080069ec 	stmdaeq	r0, {r2, r3, r5, r6, r7, r8, fp, sp, lr}
 8000818:	20000000 	andcs	r0, r0, r0
 800081c:	20000070 	andcs	r0, r0, r0, ror r0
 8000820:	20000070 	andcs	r0, r0, r0, ror r0
 8000824:	20004c24 	andcs	r4, r0, r4, lsr #24

08000828 <ADC0_1_IRQHandler>:
 8000828:	e7fe      	b.n	8000828 <ADC0_1_IRQHandler>

0800082a <Display::Printf(unsigned char, char const*, ...)>:
 800082a:	b40c      	push	{r2, r3}
 800082c:	b570      	push	{r4, r5, r6, lr}
 800082e:	6984      	ldr	r4, [r0, #24]
 8000830:	4605      	mov	r5, r0
 8000832:	460e      	mov	r6, r1
 8000834:	b08a      	sub	sp, #40	; 0x28
 8000836:	b174      	cbz	r4, 8000856 <Display::Printf(unsigned char, char const*, ...)+0x2c>
 8000838:	ab0f      	add	r3, sp, #60	; 0x3c
 800083a:	2120      	movs	r1, #32
 800083c:	9a0e      	ldr	r2, [sp, #56]	; 0x38
 800083e:	a802      	add	r0, sp, #8
 8000840:	9301      	str	r3, [sp, #4]
 8000842:	f000 fbd3 	bl	8000fec <vsnprintf>
 8000846:	4604      	mov	r4, r0
 8000848:	69a8      	ldr	r0, [r5, #24]
 800084a:	4631      	mov	r1, r6
 800084c:	6803      	ldr	r3, [r0, #0]
 800084e:	aa02      	add	r2, sp, #8
 8000850:	69dd      	ldr	r5, [r3, #28]
 8000852:	b2a3      	uxth	r3, r4
 8000854:	47a8      	blx	r5
 8000856:	4620      	mov	r0, r4
 8000858:	b00a      	add	sp, #40	; 0x28
 800085a:	e8bd 4070 	ldmia.w	sp!, {r4, r5, r6, lr}
 800085e:	b002      	add	sp, #8
 8000860:	4770      	bx	lr

08000862 <Hardware::RebootHandler()>:
 8000862:	4770      	bx	lr

08000864 <main>:
 8000864:	b570      	push	{r4, r5, r6, lr}
 8000866:	f240 6003 	movw	r0, #1539	; 0x603
 800086a:	b0e2      	sub	sp, #392	; 0x188
 800086c:	f003 fe72 	bl	8004554 <rcu_periph_clock_enable>
 8000870:	f44f 60c0 	mov.w	r0, #1536	; 0x600
 8000874:	f003 fe6e 	bl	8004554 <rcu_periph_clock_enable>
 8000878:	f240 6003 	movw	r0, #1539	; 0x603
 800087c:	f003 fe6a 	bl	8004554 <rcu_periph_clock_enable>
 8000880:	f44f 4380 	mov.w	r3, #16384	; 0x4000
 8000884:	2203      	movs	r2, #3
 8000886:	2148      	movs	r1, #72	; 0x48
 8000888:	4857      	ldr	r0, [pc, #348]	; (80009e8 <main+0x184>)
 800088a:	f003 fdc5 	bl	8004418 <gpio_init>
 800088e:	2002      	movs	r0, #2
 8000890:	f003 fc9c 	bl	80041cc <bkp_data_read>
 8000894:	f24a 53a5 	movw	r3, #42405	; 0xa5a5
 8000898:	4298      	cmp	r0, r3
 800089a:	d02c      	beq.n	80008f6 <main+0x92>
 800089c:	f44f 4180 	mov.w	r1, #16384	; 0x4000
 80008a0:	4851      	ldr	r0, [pc, #324]	; (80009e8 <main+0x184>)
 80008a2:	f003 fe0d 	bl	80044c0 <gpio_input_bit_get>
 80008a6:	b330      	cbz	r0, 80008f6 <main+0x92>
 80008a8:	b672      	cpsid	i
 80008aa:	20ff      	movs	r0, #255	; 0xff
 80008ac:	4b4f      	ldr	r3, [pc, #316]	; (80009ec <main+0x188>)
 80008ae:	4a50      	ldr	r2, [pc, #320]	; (80009f0 <main+0x18c>)
 80008b0:	4619      	mov	r1, r3
 80008b2:	3301      	adds	r3, #1
 80008b4:	4293      	cmp	r3, r2
 80008b6:	7008      	strb	r0, [r1, #0]
 80008b8:	d1fa      	bne.n	80008b0 <main+0x4c>
 80008ba:	20ff      	movs	r0, #255	; 0xff
 80008bc:	4b4d      	ldr	r3, [pc, #308]	; (80009f4 <main+0x190>)
 80008be:	4a4e      	ldr	r2, [pc, #312]	; (80009f8 <main+0x194>)
 80008c0:	4619      	mov	r1, r3
 80008c2:	3301      	adds	r3, #1
 80008c4:	4293      	cmp	r3, r2
 80008c6:	7008      	strb	r0, [r1, #0]
 80008c8:	d1fa      	bne.n	80008c0 <main+0x5c>
 80008ca:	f04f 23e0 	mov.w	r3, #3758153728	; 0xe000e000
 80008ce:	2100      	movs	r1, #0
 80008d0:	6119      	str	r1, [r3, #16]
 80008d2:	f8d3 2d04 	ldr.w	r2, [r3, #3332]	; 0xd04
 80008d6:	f503 6350 	add.w	r3, r3, #3328	; 0xd00
 80008da:	f042 7200 	orr.w	r2, r2, #33554432	; 0x2000000
 80008de:	605a      	str	r2, [r3, #4]
 80008e0:	4a46      	ldr	r2, [pc, #280]	; (80009fc <main+0x198>)
 80008e2:	609a      	str	r2, [r3, #8]
 80008e4:	689b      	ldr	r3, [r3, #8]
 80008e6:	681b      	ldr	r3, [r3, #0]
 80008e8:	f383 8808 	msr	MSP, r3
 80008ec:	f381 8814 	msr	CONTROL, r1
 80008f0:	b662      	cpsie	i
 80008f2:	6853      	ldr	r3, [r2, #4]
 80008f4:	4718      	bx	r3
 80008f6:	a801      	add	r0, sp, #4
 80008f8:	f003 f992 	bl	8003c20 <Hardware::Hardware()>
 80008fc:	a82f      	add	r0, sp, #188	; 0xbc
 80008fe:	f002 fae3 	bl	8002ec8 <Network::Network()>
 8000902:	2104      	movs	r1, #4
 8000904:	a813      	add	r0, sp, #76	; 0x4c
 8000906:	f000 fd69 	bl	80013dc <Display::Display(unsigned int)>
 800090a:	a807      	add	r0, sp, #28
 800090c:	f003 f932 	bl	8003b74 <LedBlink::LedBlink()>
 8000910:	4a3b      	ldr	r2, [pc, #236]	; (8000a00 <main+0x19c>)
 8000912:	4b3c      	ldr	r3, [pc, #240]	; (8000a04 <main+0x1a0>)
 8000914:	493c      	ldr	r1, [pc, #240]	; (8000a08 <main+0x1a4>)
 8000916:	a802      	add	r0, sp, #8
 8000918:	f003 f8e6 	bl	8003ae8 <FirmwareVersion::FirmwareVersion(char const*, char const*, char const*)>
 800091c:	493b      	ldr	r1, [pc, #236]	; (8000a0c <main+0x1a8>)
 800091e:	a802      	add	r0, sp, #8
 8000920:	f003 f91a 	bl	8003b58 <FirmwareVersion::Print(char const*)>
 8000924:	a80d      	add	r0, sp, #52	; 0x34
 8000926:	f001 fde1 	bl	80024ec <SpiFlashInstall::SpiFlashInstall()>
 800092a:	a803      	add	r0, sp, #12
 800092c:	f001 f812 	bl	8001954 <SpiFlashStore::SpiFlashStore()>
 8000930:	a805      	add	r0, sp, #20
 8000932:	f001 f993 	bl	8001c5c <StoreNetwork::StoreNetwork()>
 8000936:	ab06      	add	r3, sp, #24
 8000938:	a905      	add	r1, sp, #20
 800093a:	a82f      	add	r0, sp, #188	; 0xbc
 800093c:	935d      	str	r3, [sp, #372]	; 0x174
 800093e:	f002 fb17 	bl	8002f70 <Network::Init(NetworkParamsStore*)>
 8000942:	a82f      	add	r0, sp, #188	; 0xbc
 8000944:	f002 fc5a 	bl	80031fc <Network::Print()>
 8000948:	2101      	movs	r1, #1
 800094a:	a807      	add	r0, sp, #28
 800094c:	f003 f934 	bl	8003bb8 <LedBlink::SetMode(ledblink::Mode)>
 8000950:	2300      	movs	r3, #0
 8000952:	2206      	movs	r2, #6
 8000954:	2109      	movs	r1, #9
 8000956:	a823      	add	r0, sp, #140	; 0x8c
 8000958:	f001 fb86 	bl	8002068 <RemoteConfig::RemoteConfig(remoteconfig::Node, remoteconfig::Output, unsigned int)>
 800095c:	a804      	add	r0, sp, #16
 800095e:	f001 f9b3 	bl	8001cc8 <StoreRemoteConfig::StoreRemoteConfig()>
 8000962:	a904      	add	r1, sp, #16
 8000964:	a81a      	add	r0, sp, #104	; 0x68
 8000966:	f001 fc91 	bl	800228c <RemoteConfigParams::RemoteConfigParams(RemoteConfigParamsStore*)>
 800096a:	a81a      	add	r0, sp, #104	; 0x68
 800096c:	f001 fc98 	bl	80022a0 <RemoteConfigParams::Load()>
 8000970:	b118      	cbz	r0, 800097a <main+0x116>
 8000972:	a923      	add	r1, sp, #140	; 0x8c
 8000974:	a81a      	add	r0, sp, #104	; 0x68
 8000976:	f001 fc9f 	bl	80022b8 <RemoteConfigParams::Set(RemoteConfig*)>
 800097a:	2301      	movs	r3, #1
 800097c:	2104      	movs	r1, #4
 800097e:	a807      	add	r0, sp, #28
 8000980:	f88d 309a 	strb.w	r3, [sp, #154]	; 0x9a
 8000984:	f003 f918 	bl	8003bb8 <LedBlink::SetMode(ledblink::Mode)>
 8000988:	2103      	movs	r1, #3
 800098a:	4a21      	ldr	r2, [pc, #132]	; (8000a10 <main+0x1ac>)
 800098c:	a813      	add	r0, sp, #76	; 0x4c
 800098e:	f7ff ff4c 	bl	800082a <Display::Printf(unsigned char, char const*, ...)>
 8000992:	2102      	movs	r1, #2
 8000994:	f64f 70ff 	movw	r0, #65535	; 0xffff
 8000998:	f003 fd14 	bl	80043c4 <fwdgt_config>
 800099c:	2801      	cmp	r0, #1
 800099e:	bf0c      	ite	eq
 80009a0:	2301      	moveq	r3, #1
 80009a2:	2300      	movne	r3, #0
 80009a4:	f88d 3004 	strb.w	r3, [sp, #4]
 80009a8:	d101      	bne.n	80009ae <main+0x14a>
 80009aa:	f003 fcfb 	bl	80043a4 <fwdgt_enable>
 80009ae:	2601      	movs	r6, #1
 80009b0:	4d18      	ldr	r5, [pc, #96]	; (8000a14 <main+0x1b0>)
 80009b2:	4c19      	ldr	r4, [pc, #100]	; (8000a18 <main+0x1b4>)
 80009b4:	f003 fcfe 	bl	80043b4 <fwdgt_counter_reload>
 80009b8:	f7ff fdcc 	bl	8000554 <net_handle>
 80009bc:	a823      	add	r0, sp, #140	; 0x8c
 80009be:	f001 fbc1 	bl	8002144 <RemoteConfig::Run()>
 80009c2:	9a0a      	ldr	r2, [sp, #40]	; 0x28
 80009c4:	2a00      	cmp	r2, #0
 80009c6:	d0f5      	beq.n	80009b4 <main+0x150>
 80009c8:	682b      	ldr	r3, [r5, #0]
 80009ca:	990c      	ldr	r1, [sp, #48]	; 0x30
 80009cc:	1a5b      	subs	r3, r3, r1
 80009ce:	429a      	cmp	r2, r3
 80009d0:	d8f0      	bhi.n	80009b4 <main+0x150>
 80009d2:	682b      	ldr	r3, [r5, #0]
 80009d4:	930c      	str	r3, [sp, #48]	; 0x30
 80009d6:	9b0b      	ldr	r3, [sp, #44]	; 0x2c
 80009d8:	2b01      	cmp	r3, #1
 80009da:	f083 0201 	eor.w	r2, r3, #1
 80009de:	920b      	str	r2, [sp, #44]	; 0x2c
 80009e0:	bf14      	ite	ne
 80009e2:	6126      	strne	r6, [r4, #16]
 80009e4:	6163      	streq	r3, [r4, #20]
 80009e6:	e7e5      	b.n	80009b4 <main+0x150>
 80009e8:	40010c00 	andmi	r0, r1, r0, lsl #24
 80009ec:	e000e180 	and	lr, r0, r0, lsl #3
 80009f0:	e000e1a0 	and	lr, r0, r0, lsr #3
 80009f4:	e000e280 	and	lr, r0, r0, lsl #5
 80009f8:	e000e2a0 	and	lr, r0, r0, lsr #5
 80009fc:	08007000 	stmdaeq	r0, {ip, sp, lr}
 8000a00:	08005ef1 	stmdaeq	r0, {r0, r4, r5, r6, r7, r9, sl, fp, ip, lr}
 8000a04:	08005ee8 	stmdaeq	r0, {r3, r5, r6, r7, r9, sl, fp, ip, lr}
 8000a08:	08005f29 	stmdaeq	r0, {r0, r3, r5, r8, r9, sl, fp, ip, lr}
 8000a0c:	08005efd 	stmdaeq	r0, {r0, r2, r3, r4, r5, r6, r7, r9, sl, fp, ip, lr}
 8000a10:	08005f14 	stmdaeq	r0, {r2, r4, r8, r9, sl, fp, ip, lr}
 8000a14:	200039c4 	andcs	r3, r0, r4, asr #19
 8000a18:	40011000 	andmi	r1, r1, r0

08000a1c <Display::PutString(char const*) [clone .isra.0]>:
 8000a1c:	b110      	cbz	r0, 8000a24 <Display::PutString(char const*) [clone .isra.0]+0x8>
 8000a1e:	6803      	ldr	r3, [r0, #0]
 8000a20:	699b      	ldr	r3, [r3, #24]
 8000a22:	4718      	bx	r3
 8000a24:	4770      	bx	lr

08000a26 <Display::ClearLine(unsigned char) [clone .isra.0]>:
 8000a26:	b110      	cbz	r0, 8000a2e <Display::ClearLine(unsigned char) [clone .isra.0]+0x8>
 8000a28:	6803      	ldr	r3, [r0, #0]
 8000a2a:	691b      	ldr	r3, [r3, #16]
 8000a2c:	4718      	bx	r3
 8000a2e:	4770      	bx	lr

08000a30 <Display::Status(Display7SegmentMessage)>:
 8000a30:	7c43      	ldrb	r3, [r0, #17]
 8000a32:	b513      	push	{r0, r1, r4, lr}
 8000a34:	4604      	mov	r4, r0
 8000a36:	b19b      	cbz	r3, 8000a60 <Display::Status(Display7SegmentMessage)+0x30>
 8000a38:	43c9      	mvns	r1, r1
 8000a3a:	2312      	movs	r3, #18
 8000a3c:	7a00      	ldrb	r0, [r0, #8]
 8000a3e:	f88d 3004 	strb.w	r3, [sp, #4]
 8000a42:	f3c1 2307 	ubfx	r3, r1, #8, #8
 8000a46:	f88d 1006 	strb.w	r1, [sp, #6]
 8000a4a:	f88d 3005 	strb.w	r3, [sp, #5]
 8000a4e:	f004 f98f 	bl	8004d70 <gd32_i2c_set_address>
 8000a52:	68e0      	ldr	r0, [r4, #12]
 8000a54:	f004 f984 	bl	8004d60 <gd32_i2c_set_baudrate>
 8000a58:	2103      	movs	r1, #3
 8000a5a:	a801      	add	r0, sp, #4
 8000a5c:	f004 f98e 	bl	8004d7c <gd32_i2c_write>
 8000a60:	b002      	add	sp, #8
 8000a62:	bd10      	pop	{r4, pc}

08000a64 <NetworkDisplay::ShowEmacStart()>:
 8000a64:	b510      	push	{r4, lr}
 8000a66:	4c06      	ldr	r4, [pc, #24]	; (8000a80 <NetworkDisplay::ShowEmacStart()+0x1c>)
 8000a68:	2102      	movs	r1, #2
 8000a6a:	6823      	ldr	r3, [r4, #0]
 8000a6c:	6998      	ldr	r0, [r3, #24]
 8000a6e:	f7ff ffda 	bl	8000a26 <Display::ClearLine(unsigned char) [clone .isra.0]>
 8000a72:	6823      	ldr	r3, [r4, #0]
 8000a74:	4903      	ldr	r1, [pc, #12]	; (8000a84 <NetworkDisplay::ShowEmacStart()+0x20>)
 8000a76:	6998      	ldr	r0, [r3, #24]
 8000a78:	e8bd 4010 	ldmia.w	sp!, {r4, lr}
 8000a7c:	f7ff bfce 	b.w	8000a1c <Display::PutString(char const*) [clone .isra.0]>
 8000a80:	20000074 	andcs	r0, r0, r4, ror r0
 8000a84:	08005f2d 	stmdaeq	r0, {r0, r2, r3, r5, r8, r9, sl, fp, ip, lr}

08000a88 <NetworkDisplay::ShowIp()>:
 8000a88:	e92d 43f0 	stmdb	sp!, {r4, r5, r6, r7, r8, r9, lr}
 8000a8c:	4c15      	ldr	r4, [pc, #84]	; (8000ae4 <NetworkDisplay::ShowIp()+0x5c>)
 8000a8e:	2102      	movs	r1, #2
 8000a90:	6823      	ldr	r3, [r4, #0]
 8000a92:	b087      	sub	sp, #28
 8000a94:	6998      	ldr	r0, [r3, #24]
 8000a96:	f7ff ffc6 	bl	8000a26 <Display::ClearLine(unsigned char) [clone .isra.0]>
 8000a9a:	4b13      	ldr	r3, [pc, #76]	; (8000ae8 <NetworkDisplay::ShowIp()+0x60>)
 8000a9c:	6826      	ldr	r6, [r4, #0]
 8000a9e:	681d      	ldr	r5, [r3, #0]
 8000aa0:	69e8      	ldr	r0, [r5, #28]
 8000aa2:	696c      	ldr	r4, [r5, #20]
 8000aa4:	f000 f86e 	bl	8000b84 <__popcountsi2>
 8000aa8:	79eb      	ldrb	r3, [r5, #7]
 8000aaa:	b2e7      	uxtb	r7, r4
 8000aac:	f3c4 2807 	ubfx	r8, r4, #8, #8
 8000ab0:	f3c4 4907 	ubfx	r9, r4, #16, #8
 8000ab4:	0e24      	lsrs	r4, r4, #24
 8000ab6:	b99b      	cbnz	r3, 8000ae0 <NetworkDisplay::ShowIp()+0x58>
 8000ab8:	796b      	ldrb	r3, [r5, #5]
 8000aba:	2b00      	cmp	r3, #0
 8000abc:	bf14      	ite	ne
 8000abe:	2244      	movne	r2, #68	; 0x44
 8000ac0:	2253      	moveq	r2, #83	; 0x53
 8000ac2:	e9cd 0203 	strd	r0, r2, [sp, #12]
 8000ac6:	463b      	mov	r3, r7
 8000ac8:	2102      	movs	r1, #2
 8000aca:	4630      	mov	r0, r6
 8000acc:	e9cd 9401 	strd	r9, r4, [sp, #4]
 8000ad0:	4a06      	ldr	r2, [pc, #24]	; (8000aec <NetworkDisplay::ShowIp()+0x64>)
 8000ad2:	f8cd 8000 	str.w	r8, [sp]
 8000ad6:	f7ff fea8 	bl	800082a <Display::Printf(unsigned char, char const*, ...)>
 8000ada:	b007      	add	sp, #28
 8000adc:	e8bd 83f0 	ldmia.w	sp!, {r4, r5, r6, r7, r8, r9, pc}
 8000ae0:	225a      	movs	r2, #90	; 0x5a
 8000ae2:	e7ee      	b.n	8000ac2 <NetworkDisplay::ShowIp()+0x3a>
 8000ae4:	20000074 	andcs	r0, r0, r4, ror r0
 8000ae8:	2000349c 	mulcs	r0, ip, r4
 8000aec:	08005f3c 	stmdaeq	r0, {r2, r3, r4, r5, r8, r9, sl, fp, ip, lr}

08000af0 <NetworkDisplay::ShowShutdown()>:
 8000af0:	b510      	push	{r4, lr}
 8000af2:	4c06      	ldr	r4, [pc, #24]	; (8000b0c <NetworkDisplay::ShowShutdown()+0x1c>)
 8000af4:	2102      	movs	r1, #2
 8000af6:	6823      	ldr	r3, [r4, #0]
 8000af8:	6998      	ldr	r0, [r3, #24]
 8000afa:	f7ff ff94 	bl	8000a26 <Display::ClearLine(unsigned char) [clone .isra.0]>
 8000afe:	6823      	ldr	r3, [r4, #0]
 8000b00:	4903      	ldr	r1, [pc, #12]	; (8000b10 <NetworkDisplay::ShowShutdown()+0x20>)
 8000b02:	6998      	ldr	r0, [r3, #24]
 8000b04:	e8bd 4010 	ldmia.w	sp!, {r4, lr}
 8000b08:	f7ff bf88 	b.w	8000a1c <Display::PutString(char const*) [clone .isra.0]>
 8000b0c:	20000074 	andcs	r0, r0, r4, ror r0
 8000b10:	08005f4e 	stmdaeq	r0, {r1, r2, r3, r6, r8, r9, sl, fp, ip, lr}

08000b14 <NetworkDisplay::ShowDhcpStatus(network::dhcp::ClientStatus)>:
 8000b14:	b538      	push	{r3, r4, r5, lr}
 8000b16:	460d      	mov	r5, r1
 8000b18:	4c15      	ldr	r4, [pc, #84]	; (8000b70 <NetworkDisplay::ShowDhcpStatus(network::dhcp::ClientStatus)+0x5c>)
 8000b1a:	2102      	movs	r1, #2
 8000b1c:	6823      	ldr	r3, [r4, #0]
 8000b1e:	6998      	ldr	r0, [r3, #24]
 8000b20:	f7ff ff81 	bl	8000a26 <Display::ClearLine(unsigned char) [clone .isra.0]>
 8000b24:	1e69      	subs	r1, r5, #1
 8000b26:	2903      	cmp	r1, #3
 8000b28:	d815      	bhi.n	8000b56 <NetworkDisplay::ShowDhcpStatus(network::dhcp::ClientStatus)+0x42>
 8000b2a:	e8df f001 	tbb	[pc, r1]
 8000b2e:	18150a02 	ldmdane	r5, {r1, r9, fp}
 8000b32:	6823      	ldr	r3, [r4, #0]
 8000b34:	490f      	ldr	r1, [pc, #60]	; (8000b74 <NetworkDisplay::ShowDhcpStatus(network::dhcp::ClientStatus)+0x60>)
 8000b36:	6998      	ldr	r0, [r3, #24]
 8000b38:	f7ff ff70 	bl	8000a1c <Display::PutString(char const*) [clone .isra.0]>
 8000b3c:	f44f 41b6 	mov.w	r1, #23296	; 0x5b00
 8000b40:	e006      	b.n	8000b50 <NetworkDisplay::ShowDhcpStatus(network::dhcp::ClientStatus)+0x3c>
 8000b42:	6823      	ldr	r3, [r4, #0]
 8000b44:	490c      	ldr	r1, [pc, #48]	; (8000b78 <NetworkDisplay::ShowDhcpStatus(network::dhcp::ClientStatus)+0x64>)
 8000b46:	6998      	ldr	r0, [r3, #24]
 8000b48:	f7ff ff68 	bl	8000a1c <Display::PutString(char const*) [clone .isra.0]>
 8000b4c:	f248 0180 	movw	r1, #32896	; 0x8080
 8000b50:	6820      	ldr	r0, [r4, #0]
 8000b52:	f7ff ff6d 	bl	8000a30 <Display::Status(Display7SegmentMessage)>
 8000b56:	bd38      	pop	{r3, r4, r5, pc}
 8000b58:	6823      	ldr	r3, [r4, #0]
 8000b5a:	4908      	ldr	r1, [pc, #32]	; (8000b7c <NetworkDisplay::ShowDhcpStatus(network::dhcp::ClientStatus)+0x68>)
 8000b5c:	e7eb      	b.n	8000b36 <NetworkDisplay::ShowDhcpStatus(network::dhcp::ClientStatus)+0x22>
 8000b5e:	6823      	ldr	r3, [r4, #0]
 8000b60:	4907      	ldr	r1, [pc, #28]	; (8000b80 <NetworkDisplay::ShowDhcpStatus(network::dhcp::ClientStatus)+0x6c>)
 8000b62:	6998      	ldr	r0, [r3, #24]
 8000b64:	f7ff ff5a 	bl	8000a1c <Display::PutString(char const*) [clone .isra.0]>
 8000b68:	f645 3179 	movw	r1, #23417	; 0x5b79
 8000b6c:	e7f0      	b.n	8000b50 <NetworkDisplay::ShowDhcpStatus(network::dhcp::ClientStatus)+0x3c>
 8000b6e:	bf00      	nop
 8000b70:	20000074 	andcs	r0, r0, r4, ror r0
 8000b74:	08005f60 	stmdaeq	r0, {r5, r6, r8, r9, sl, fp, ip, lr}
 8000b78:	08005f6e 	stmdaeq	r0, {r1, r2, r3, r5, r6, r8, r9, sl, fp, ip, lr}
 8000b7c:	08005f75 	stmdaeq	r0, {r0, r2, r4, r5, r6, r8, r9, sl, fp, ip, lr}
 8000b80:	08005f83 	stmdaeq	r0, {r0, r1, r7, r8, r9, sl, fp, ip, lr}

08000b84 <__popcountsi2>:
 8000b84:	0843      	lsrs	r3, r0, #1
 8000b86:	f003 3355 	and.w	r3, r3, #1431655765	; 0x55555555
 8000b8a:	1ac0      	subs	r0, r0, r3
 8000b8c:	0883      	lsrs	r3, r0, #2
 8000b8e:	f003 3333 	and.w	r3, r3, #858993459	; 0x33333333
 8000b92:	f000 3033 	and.w	r0, r0, #858993459	; 0x33333333
 8000b96:	4418      	add	r0, r3
 8000b98:	eb00 1010 	add.w	r0, r0, r0, lsr #4
 8000b9c:	f000 300f 	and.w	r0, r0, #252645135	; 0xf0f0f0f
 8000ba0:	eb00 2000 	add.w	r0, r0, r0, lsl #8
 8000ba4:	eb00 4000 	add.w	r0, r0, r0, lsl #16
 8000ba8:	0e00      	lsrs	r0, r0, #24
 8000baa:	4770      	bx	lr

08000bac <_xputch>:
 8000bac:	4603      	mov	r3, r0
 8000bae:	b410      	push	{r4}
 8000bb0:	4c08      	ldr	r4, [pc, #32]	; (8000bd4 <_xputch+0x28>)
 8000bb2:	68da      	ldr	r2, [r3, #12]
 8000bb4:	4608      	mov	r0, r1
 8000bb6:	6821      	ldr	r1, [r4, #0]
 8000bb8:	3201      	adds	r2, #1
 8000bba:	60da      	str	r2, [r3, #12]
 8000bbc:	b139      	cbz	r1, 8000bce <_xputch+0x22>
 8000bbe:	691b      	ldr	r3, [r3, #16]
 8000bc0:	429a      	cmp	r2, r3
 8000bc2:	da02      	bge.n	8000bca <_xputch+0x1e>
 8000bc4:	1c4b      	adds	r3, r1, #1
 8000bc6:	6023      	str	r3, [r4, #0]
 8000bc8:	7008      	strb	r0, [r1, #0]
 8000bca:	bc10      	pop	{r4}
 8000bcc:	4770      	bx	lr
 8000bce:	bc10      	pop	{r4}
 8000bd0:	f002 bf3a 	b.w	8003a48 <console_putc>
 8000bd4:	20000070 	andcs	r0, r0, r0, ror r0

08000bd8 <_format_int>:
 8000bd8:	e92d 43f0 	stmdb	sp!, {r4, r5, r6, r7, r8, r9, lr}
 8000bdc:	4698      	mov	r8, r3
 8000bde:	b091      	sub	sp, #68	; 0x44
 8000be0:	ea52 0308 	orrs.w	r3, r2, r8
 8000be4:	4606      	mov	r6, r0
 8000be6:	4617      	mov	r7, r2
 8000be8:	f10d 053f 	add.w	r5, sp, #63	; 0x3f
 8000bec:	d133      	bne.n	8000c56 <_format_int+0x7e>
 8000bee:	2330      	movs	r3, #48	; 0x30
 8000bf0:	f10d 043e 	add.w	r4, sp, #62	; 0x3e
 8000bf4:	f88d 303f 	strb.w	r3, [sp, #63]	; 0x3f
 8000bf8:	6833      	ldr	r3, [r6, #0]
 8000bfa:	07d8      	lsls	r0, r3, #31
 8000bfc:	d507      	bpl.n	8000c0e <_format_int+0x36>
 8000bfe:	466a      	mov	r2, sp
 8000c00:	2030      	movs	r0, #48	; 0x30
 8000c02:	6871      	ldr	r1, [r6, #4]
 8000c04:	1b2f      	subs	r7, r5, r4
 8000c06:	428f      	cmp	r7, r1
 8000c08:	da01      	bge.n	8000c0e <_format_int+0x36>
 8000c0a:	4294      	cmp	r4, r2
 8000c0c:	d839      	bhi.n	8000c82 <_format_int+0xaa>
 8000c0e:	0699      	lsls	r1, r3, #26
 8000c10:	d507      	bpl.n	8000c22 <_format_int+0x4a>
 8000c12:	466a      	mov	r2, sp
 8000c14:	2030      	movs	r0, #48	; 0x30
 8000c16:	68b1      	ldr	r1, [r6, #8]
 8000c18:	1b2f      	subs	r7, r5, r4
 8000c1a:	428f      	cmp	r7, r1
 8000c1c:	da01      	bge.n	8000c22 <_format_int+0x4a>
 8000c1e:	4294      	cmp	r4, r2
 8000c20:	d832      	bhi.n	8000c88 <_format_int+0xb0>
 8000c22:	071a      	lsls	r2, r3, #28
 8000c24:	bf44      	itt	mi
 8000c26:	222d      	movmi	r2, #45	; 0x2d
 8000c28:	f804 2901 	strbmi.w	r2, [r4], #-1
 8000c2c:	065b      	lsls	r3, r3, #25
 8000c2e:	d407      	bmi.n	8000c40 <_format_int+0x68>
 8000c30:	466b      	mov	r3, sp
 8000c32:	2120      	movs	r1, #32
 8000c34:	68b2      	ldr	r2, [r6, #8]
 8000c36:	1b28      	subs	r0, r5, r4
 8000c38:	4290      	cmp	r0, r2
 8000c3a:	da01      	bge.n	8000c40 <_format_int+0x68>
 8000c3c:	429c      	cmp	r4, r3
 8000c3e:	d826      	bhi.n	8000c8e <_format_int+0xb6>
 8000c40:	1b2d      	subs	r5, r5, r4
 8000c42:	3401      	adds	r4, #1
 8000c44:	ab10      	add	r3, sp, #64	; 0x40
 8000c46:	429c      	cmp	r4, r3
 8000c48:	d324      	bcc.n	8000c94 <_format_int+0xbc>
 8000c4a:	68b3      	ldr	r3, [r6, #8]
 8000c4c:	42ab      	cmp	r3, r5
 8000c4e:	dc27      	bgt.n	8000ca0 <_format_int+0xc8>
 8000c50:	b011      	add	sp, #68	; 0x44
 8000c52:	e8bd 83f0 	ldmia.w	sp!, {r4, r5, r6, r7, r8, r9, pc}
 8000c56:	462c      	mov	r4, r5
 8000c58:	46e9      	mov	r9, sp
 8000c5a:	4638      	mov	r0, r7
 8000c5c:	4641      	mov	r1, r8
 8000c5e:	220a      	movs	r2, #10
 8000c60:	2300      	movs	r3, #0
 8000c62:	f7ff fda5 	bl	80007b0 <__aeabi_uldivmod>
 8000c66:	3230      	adds	r2, #48	; 0x30
 8000c68:	f804 2901 	strb.w	r2, [r4], #-1
 8000c6c:	463a      	mov	r2, r7
 8000c6e:	4643      	mov	r3, r8
 8000c70:	2a0a      	cmp	r2, #10
 8000c72:	f173 0300 	sbcs.w	r3, r3, #0
 8000c76:	4607      	mov	r7, r0
 8000c78:	4688      	mov	r8, r1
 8000c7a:	d3bd      	bcc.n	8000bf8 <_format_int+0x20>
 8000c7c:	454c      	cmp	r4, r9
 8000c7e:	d1ec      	bne.n	8000c5a <_format_int+0x82>
 8000c80:	e7ba      	b.n	8000bf8 <_format_int+0x20>
 8000c82:	f804 0901 	strb.w	r0, [r4], #-1
 8000c86:	e7bd      	b.n	8000c04 <_format_int+0x2c>
 8000c88:	f804 0901 	strb.w	r0, [r4], #-1
 8000c8c:	e7c4      	b.n	8000c18 <_format_int+0x40>
 8000c8e:	f804 1901 	strb.w	r1, [r4], #-1
 8000c92:	e7d0      	b.n	8000c36 <_format_int+0x5e>
 8000c94:	4630      	mov	r0, r6
 8000c96:	f814 1b01 	ldrb.w	r1, [r4], #1
 8000c9a:	f7ff ff87 	bl	8000bac <_xputch>
 8000c9e:	e7d1      	b.n	8000c44 <_format_int+0x6c>
 8000ca0:	2120      	movs	r1, #32
 8000ca2:	4630      	mov	r0, r6
 8000ca4:	f7ff ff82 	bl	8000bac <_xputch>
 8000ca8:	3501      	adds	r5, #1
 8000caa:	e7ce      	b.n	8000c4a <_format_int+0x72>

08000cac <_format_hex>:
 8000cac:	b5f0      	push	{r4, r5, r6, r7, lr}
 8000cae:	b091      	sub	sp, #68	; 0x44
 8000cb0:	4606      	mov	r6, r0
 8000cb2:	6804      	ldr	r4, [r0, #0]
 8000cb4:	f10d 023f 	add.w	r2, sp, #63	; 0x3f
 8000cb8:	bb61      	cbnz	r1, 8000d14 <_format_hex+0x68>
 8000cba:	2330      	movs	r3, #48	; 0x30
 8000cbc:	f88d 303f 	strb.w	r3, [sp, #63]	; 0x3f
 8000cc0:	f10d 033e 	add.w	r3, sp, #62	; 0x3e
 8000cc4:	07e5      	lsls	r5, r4, #31
 8000cc6:	d507      	bpl.n	8000cd8 <_format_hex+0x2c>
 8000cc8:	4669      	mov	r1, sp
 8000cca:	2530      	movs	r5, #48	; 0x30
 8000ccc:	6870      	ldr	r0, [r6, #4]
 8000cce:	1ad7      	subs	r7, r2, r3
 8000cd0:	4287      	cmp	r7, r0
 8000cd2:	da01      	bge.n	8000cd8 <_format_hex+0x2c>
 8000cd4:	428b      	cmp	r3, r1
 8000cd6:	d831      	bhi.n	8000d3c <_format_hex+0x90>
 8000cd8:	06a0      	lsls	r0, r4, #26
 8000cda:	d507      	bpl.n	8000cec <_format_hex+0x40>
 8000cdc:	4669      	mov	r1, sp
 8000cde:	2530      	movs	r5, #48	; 0x30
 8000ce0:	68b0      	ldr	r0, [r6, #8]
 8000ce2:	1ad7      	subs	r7, r2, r3
 8000ce4:	4287      	cmp	r7, r0
 8000ce6:	da01      	bge.n	8000cec <_format_hex+0x40>
 8000ce8:	428b      	cmp	r3, r1
 8000cea:	d82a      	bhi.n	8000d42 <_format_hex+0x96>
 8000cec:	0661      	lsls	r1, r4, #25
 8000cee:	d407      	bmi.n	8000d00 <_format_hex+0x54>
 8000cf0:	4669      	mov	r1, sp
 8000cf2:	2420      	movs	r4, #32
 8000cf4:	68b0      	ldr	r0, [r6, #8]
 8000cf6:	1ad5      	subs	r5, r2, r3
 8000cf8:	4285      	cmp	r5, r0
 8000cfa:	da01      	bge.n	8000d00 <_format_hex+0x54>
 8000cfc:	428b      	cmp	r3, r1
 8000cfe:	d823      	bhi.n	8000d48 <_format_hex+0x9c>
 8000d00:	1ad5      	subs	r5, r2, r3
 8000d02:	1c5c      	adds	r4, r3, #1
 8000d04:	ab10      	add	r3, sp, #64	; 0x40
 8000d06:	429c      	cmp	r4, r3
 8000d08:	d321      	bcc.n	8000d4e <_format_hex+0xa2>
 8000d0a:	68b3      	ldr	r3, [r6, #8]
 8000d0c:	429d      	cmp	r5, r3
 8000d0e:	db24      	blt.n	8000d5a <_format_hex+0xae>
 8000d10:	b011      	add	sp, #68	; 0x44
 8000d12:	bdf0      	pop	{r4, r5, r6, r7, pc}
 8000d14:	f014 0f02 	tst.w	r4, #2
 8000d18:	bf0c      	ite	eq
 8000d1a:	2757      	moveq	r7, #87	; 0x57
 8000d1c:	2737      	movne	r7, #55	; 0x37
 8000d1e:	4613      	mov	r3, r2
 8000d20:	466d      	mov	r5, sp
 8000d22:	f001 000f 	and.w	r0, r1, #15
 8000d26:	2809      	cmp	r0, #9
 8000d28:	bf94      	ite	ls
 8000d2a:	3030      	addls	r0, #48	; 0x30
 8000d2c:	19c0      	addhi	r0, r0, r7
 8000d2e:	0909      	lsrs	r1, r1, #4
 8000d30:	f803 0901 	strb.w	r0, [r3], #-1
 8000d34:	d0c6      	beq.n	8000cc4 <_format_hex+0x18>
 8000d36:	42ab      	cmp	r3, r5
 8000d38:	d1f3      	bne.n	8000d22 <_format_hex+0x76>
 8000d3a:	e7c3      	b.n	8000cc4 <_format_hex+0x18>
 8000d3c:	f803 5901 	strb.w	r5, [r3], #-1
 8000d40:	e7c5      	b.n	8000cce <_format_hex+0x22>
 8000d42:	f803 5901 	strb.w	r5, [r3], #-1
 8000d46:	e7cc      	b.n	8000ce2 <_format_hex+0x36>
 8000d48:	f803 4901 	strb.w	r4, [r3], #-1
 8000d4c:	e7d3      	b.n	8000cf6 <_format_hex+0x4a>
 8000d4e:	4630      	mov	r0, r6
 8000d50:	f814 1b01 	ldrb.w	r1, [r4], #1
 8000d54:	f7ff ff2a 	bl	8000bac <_xputch>
 8000d58:	e7d4      	b.n	8000d04 <_format_hex+0x58>
 8000d5a:	2120      	movs	r1, #32
 8000d5c:	4630      	mov	r0, r6
 8000d5e:	f7ff ff25 	bl	8000bac <_xputch>
 8000d62:	3501      	adds	r5, #1
 8000d64:	e7d1      	b.n	8000d0a <_format_hex+0x5e>
	...

08000d68 <_vprintf>:
 8000d68:	e92d 47f0 	stmdb	sp!, {r4, r5, r6, r7, r8, r9, sl, lr}
 8000d6c:	2700      	movs	r7, #0
 8000d6e:	460b      	mov	r3, r1
 8000d70:	4614      	mov	r4, r2
 8000d72:	f04f 080a 	mov.w	r8, #10
 8000d76:	b086      	sub	sp, #24
 8000d78:	e9cd 7004 	strd	r7, r0, [sp, #16]
 8000d7c:	7819      	ldrb	r1, [r3, #0]
 8000d7e:	b919      	cbnz	r1, 8000d88 <_vprintf+0x20>
 8000d80:	9804      	ldr	r0, [sp, #16]
 8000d82:	b006      	add	sp, #24
 8000d84:	e8bd 87f0 	ldmia.w	sp!, {r4, r5, r6, r7, r8, r9, sl, pc}
 8000d88:	2925      	cmp	r1, #37	; 0x25
 8000d8a:	f103 0601 	add.w	r6, r3, #1
 8000d8e:	d004      	beq.n	8000d9a <_vprintf+0x32>
 8000d90:	a801      	add	r0, sp, #4
 8000d92:	f7ff ff0b 	bl	8000bac <_xputch>
 8000d96:	4633      	mov	r3, r6
 8000d98:	e7f0      	b.n	8000d7c <_vprintf+0x14>
 8000d9a:	785a      	ldrb	r2, [r3, #1]
 8000d9c:	e9cd 7701 	strd	r7, r7, [sp, #4]
 8000da0:	2a30      	cmp	r2, #48	; 0x30
 8000da2:	9703      	str	r7, [sp, #12]
 8000da4:	d126      	bne.n	8000df4 <_vprintf+0x8c>
 8000da6:	2220      	movs	r2, #32
 8000da8:	9201      	str	r2, [sp, #4]
 8000daa:	1c9e      	adds	r6, r3, #2
 8000dac:	2200      	movs	r2, #0
 8000dae:	4635      	mov	r5, r6
 8000db0:	4613      	mov	r3, r2
 8000db2:	7829      	ldrb	r1, [r5, #0]
 8000db4:	462e      	mov	r6, r5
 8000db6:	f1a1 0030 	sub.w	r0, r1, #48	; 0x30
 8000dba:	2809      	cmp	r0, #9
 8000dbc:	f105 0501 	add.w	r5, r5, #1
 8000dc0:	d91c      	bls.n	8000dfc <_vprintf+0x94>
 8000dc2:	b12a      	cbz	r2, 8000dd0 <_vprintf+0x68>
 8000dc4:	9303      	str	r3, [sp, #12]
 8000dc6:	b11b      	cbz	r3, 8000dd0 <_vprintf+0x68>
 8000dc8:	9b01      	ldr	r3, [sp, #4]
 8000dca:	f043 0310 	orr.w	r3, r3, #16
 8000dce:	9301      	str	r3, [sp, #4]
 8000dd0:	292e      	cmp	r1, #46	; 0x2e
 8000dd2:	d122      	bne.n	8000e1a <_vprintf+0xb2>
 8000dd4:	7873      	ldrb	r3, [r6, #1]
 8000dd6:	2b2a      	cmp	r3, #42	; 0x2a
 8000dd8:	d014      	beq.n	8000e04 <_vprintf+0x9c>
 8000dda:	2100      	movs	r1, #0
 8000ddc:	460a      	mov	r2, r1
 8000dde:	1c70      	adds	r0, r6, #1
 8000de0:	7803      	ldrb	r3, [r0, #0]
 8000de2:	4606      	mov	r6, r0
 8000de4:	3b30      	subs	r3, #48	; 0x30
 8000de6:	2b09      	cmp	r3, #9
 8000de8:	f100 0001 	add.w	r0, r0, #1
 8000dec:	d930      	bls.n	8000e50 <_vprintf+0xe8>
 8000dee:	b181      	cbz	r1, 8000e12 <_vprintf+0xaa>
 8000df0:	9202      	str	r2, [sp, #8]
 8000df2:	e00e      	b.n	8000e12 <_vprintf+0xaa>
 8000df4:	2a2d      	cmp	r2, #45	; 0x2d
 8000df6:	d1d9      	bne.n	8000dac <_vprintf+0x44>
 8000df8:	2240      	movs	r2, #64	; 0x40
 8000dfa:	e7d5      	b.n	8000da8 <_vprintf+0x40>
 8000dfc:	2201      	movs	r2, #1
 8000dfe:	fb08 0303 	mla	r3, r8, r3, r0
 8000e02:	e7d6      	b.n	8000db2 <_vprintf+0x4a>
 8000e04:	f854 3b04 	ldr.w	r3, [r4], #4
 8000e08:	3602      	adds	r6, #2
 8000e0a:	2b00      	cmp	r3, #0
 8000e0c:	bfb8      	it	lt
 8000e0e:	425b      	neglt	r3, r3
 8000e10:	9302      	str	r3, [sp, #8]
 8000e12:	9b01      	ldr	r3, [sp, #4]
 8000e14:	f043 0301 	orr.w	r3, r3, #1
 8000e18:	9301      	str	r3, [sp, #4]
 8000e1a:	7833      	ldrb	r3, [r6, #0]
 8000e1c:	2b6c      	cmp	r3, #108	; 0x6c
 8000e1e:	bf04      	itt	eq
 8000e20:	9b01      	ldreq	r3, [sp, #4]
 8000e22:	3601      	addeq	r6, #1
 8000e24:	7831      	ldrb	r1, [r6, #0]
 8000e26:	bf04      	itt	eq
 8000e28:	f043 0304 	orreq.w	r3, r3, #4
 8000e2c:	9301      	streq	r3, [sp, #4]
 8000e2e:	2978      	cmp	r1, #120	; 0x78
 8000e30:	d8ae      	bhi.n	8000d90 <_vprintf+0x28>
 8000e32:	296f      	cmp	r1, #111	; 0x6f
 8000e34:	d810      	bhi.n	8000e58 <_vprintf+0xf0>
 8000e36:	2963      	cmp	r1, #99	; 0x63
 8000e38:	d048      	beq.n	8000ecc <_vprintf+0x164>
 8000e3a:	d827      	bhi.n	8000e8c <_vprintf+0x124>
 8000e3c:	2958      	cmp	r1, #88	; 0x58
 8000e3e:	d1a7      	bne.n	8000d90 <_vprintf+0x28>
 8000e40:	9b01      	ldr	r3, [sp, #4]
 8000e42:	f043 0302 	orr.w	r3, r3, #2
 8000e46:	9301      	str	r3, [sp, #4]
 8000e48:	4625      	mov	r5, r4
 8000e4a:	f855 1b04 	ldr.w	r1, [r5], #4
 8000e4e:	e056      	b.n	8000efe <_vprintf+0x196>
 8000e50:	2101      	movs	r1, #1
 8000e52:	fb08 3202 	mla	r2, r8, r2, r3
 8000e56:	e7c3      	b.n	8000de0 <_vprintf+0x78>
 8000e58:	f1a1 0370 	sub.w	r3, r1, #112	; 0x70
 8000e5c:	2b08      	cmp	r3, #8
 8000e5e:	d897      	bhi.n	8000d90 <_vprintf+0x28>
 8000e60:	a201      	add	r2, pc, #4	; (adr r2, 8000e68 <_vprintf+0x100>)
 8000e62:	f852 f023 	ldr.w	pc, [r2, r3, lsl #2]
 8000e66:	bf00      	nop
 8000e68:	08000edf 	stmdaeq	r0, {r0, r1, r2, r3, r4, r6, r7, r9, sl, fp}
 8000e6c:	08000d91 	stmdaeq	r0, {r0, r4, r7, r8, sl, fp}
 8000e70:	08000d91 	stmdaeq	r0, {r0, r4, r7, r8, sl, fp}
 8000e74:	08000f07 	stmdaeq	r0, {r0, r1, r2, r8, r9, sl, fp}
 8000e78:	08000d91 	stmdaeq	r0, {r0, r4, r7, r8, sl, fp}
 8000e7c:	08000f7b 	stmdaeq	r0, {r0, r1, r3, r4, r5, r6, r8, r9, sl, fp}
 8000e80:	08000d91 	stmdaeq	r0, {r0, r4, r7, r8, sl, fp}
 8000e84:	08000d91 	stmdaeq	r0, {r0, r4, r7, r8, sl, fp}
 8000e88:	08000e49 	stmdaeq	r0, {r0, r3, r6, r9, sl, fp}
 8000e8c:	2964      	cmp	r1, #100	; 0x64
 8000e8e:	d002      	beq.n	8000e96 <_vprintf+0x12e>
 8000e90:	2969      	cmp	r1, #105	; 0x69
 8000e92:	f47f af7d 	bne.w	8000d90 <_vprintf+0x28>
 8000e96:	9901      	ldr	r1, [sp, #4]
 8000e98:	074d      	lsls	r5, r1, #29
 8000e9a:	bf51      	iteee	pl
 8000e9c:	4625      	movpl	r5, r4
 8000e9e:	3407      	addmi	r4, #7
 8000ea0:	f024 0407 	bicmi.w	r4, r4, #7
 8000ea4:	4625      	movmi	r5, r4
 8000ea6:	bf55      	itete	pl
 8000ea8:	f855 2b04 	ldrpl.w	r2, [r5], #4
 8000eac:	6863      	ldrmi	r3, [r4, #4]
 8000eae:	17d3      	asrpl	r3, r2, #31
 8000eb0:	f855 2b08 	ldrmi.w	r2, [r5], #8
 8000eb4:	2b00      	cmp	r3, #0
 8000eb6:	da05      	bge.n	8000ec4 <_vprintf+0x15c>
 8000eb8:	f041 0108 	orr.w	r1, r1, #8
 8000ebc:	4252      	negs	r2, r2
 8000ebe:	9101      	str	r1, [sp, #4]
 8000ec0:	eb63 0343 	sbc.w	r3, r3, r3, lsl #1
 8000ec4:	a801      	add	r0, sp, #4
 8000ec6:	f7ff fe87 	bl	8000bd8 <_format_int>
 8000eca:	e005      	b.n	8000ed8 <_vprintf+0x170>
 8000ecc:	4625      	mov	r5, r4
 8000ece:	a801      	add	r0, sp, #4
 8000ed0:	f855 1b04 	ldr.w	r1, [r5], #4
 8000ed4:	f7ff fe6a 	bl	8000bac <_xputch>
 8000ed8:	462c      	mov	r4, r5
 8000eda:	3601      	adds	r6, #1
 8000edc:	e75b      	b.n	8000d96 <_vprintf+0x2e>
 8000ede:	2308      	movs	r3, #8
 8000ee0:	4625      	mov	r5, r4
 8000ee2:	9303      	str	r3, [sp, #12]
 8000ee4:	2320      	movs	r3, #32
 8000ee6:	2130      	movs	r1, #48	; 0x30
 8000ee8:	f855 4b04 	ldr.w	r4, [r5], #4
 8000eec:	a801      	add	r0, sp, #4
 8000eee:	9301      	str	r3, [sp, #4]
 8000ef0:	f7ff fe5c 	bl	8000bac <_xputch>
 8000ef4:	2178      	movs	r1, #120	; 0x78
 8000ef6:	a801      	add	r0, sp, #4
 8000ef8:	f7ff fe58 	bl	8000bac <_xputch>
 8000efc:	4621      	mov	r1, r4
 8000efe:	a801      	add	r0, sp, #4
 8000f00:	f7ff fed4 	bl	8000cac <_format_hex>
 8000f04:	e7e8      	b.n	8000ed8 <_vprintf+0x170>
 8000f06:	4625      	mov	r5, r4
 8000f08:	2400      	movs	r4, #0
 8000f0a:	f855 9b04 	ldr.w	r9, [r5], #4
 8000f0e:	f819 3004 	ldrb.w	r3, [r9, r4]
 8000f12:	b993      	cbnz	r3, 8000f3a <_vprintf+0x1d2>
 8000f14:	9b01      	ldr	r3, [sp, #4]
 8000f16:	07d9      	lsls	r1, r3, #31
 8000f18:	d503      	bpl.n	8000f22 <_vprintf+0x1ba>
 8000f1a:	9b02      	ldr	r3, [sp, #8]
 8000f1c:	429c      	cmp	r4, r3
 8000f1e:	bfa8      	it	ge
 8000f20:	461c      	movge	r4, r3
 8000f22:	9b01      	ldr	r3, [sp, #4]
 8000f24:	f104 0a01 	add.w	sl, r4, #1
 8000f28:	065a      	lsls	r2, r3, #25
 8000f2a:	d403      	bmi.n	8000f34 <_vprintf+0x1cc>
 8000f2c:	9b03      	ldr	r3, [sp, #12]
 8000f2e:	429c      	cmp	r4, r3
 8000f30:	db05      	blt.n	8000f3e <_vprintf+0x1d6>
 8000f32:	4654      	mov	r4, sl
 8000f34:	f109 39ff 	add.w	r9, r9, #4294967295	; 0xffffffff
 8000f38:	e00d      	b.n	8000f56 <_vprintf+0x1ee>
 8000f3a:	3401      	adds	r4, #1
 8000f3c:	e7e7      	b.n	8000f0e <_vprintf+0x1a6>
 8000f3e:	2120      	movs	r1, #32
 8000f40:	a801      	add	r0, sp, #4
 8000f42:	f7ff fe33 	bl	8000bac <_xputch>
 8000f46:	4654      	mov	r4, sl
 8000f48:	e7eb      	b.n	8000f22 <_vprintf+0x1ba>
 8000f4a:	a801      	add	r0, sp, #4
 8000f4c:	f7ff fe2e 	bl	8000bac <_xputch>
 8000f50:	9b02      	ldr	r3, [sp, #8]
 8000f52:	3b01      	subs	r3, #1
 8000f54:	9302      	str	r3, [sp, #8]
 8000f56:	9b01      	ldr	r3, [sp, #4]
 8000f58:	07db      	lsls	r3, r3, #31
 8000f5a:	d501      	bpl.n	8000f60 <_vprintf+0x1f8>
 8000f5c:	9b02      	ldr	r3, [sp, #8]
 8000f5e:	b11b      	cbz	r3, 8000f68 <_vprintf+0x200>
 8000f60:	f819 1f01 	ldrb.w	r1, [r9, #1]!
 8000f64:	2900      	cmp	r1, #0
 8000f66:	d1f0      	bne.n	8000f4a <_vprintf+0x1e2>
 8000f68:	9b03      	ldr	r3, [sp, #12]
 8000f6a:	42a3      	cmp	r3, r4
 8000f6c:	ddb4      	ble.n	8000ed8 <_vprintf+0x170>
 8000f6e:	2120      	movs	r1, #32
 8000f70:	a801      	add	r0, sp, #4
 8000f72:	f7ff fe1b 	bl	8000bac <_xputch>
 8000f76:	3401      	adds	r4, #1
 8000f78:	e7f6      	b.n	8000f68 <_vprintf+0x200>
 8000f7a:	9b01      	ldr	r3, [sp, #4]
 8000f7c:	f013 0304 	ands.w	r3, r3, #4
 8000f80:	bf1d      	ittte	ne
 8000f82:	3407      	addne	r4, #7
 8000f84:	f024 0407 	bicne.w	r4, r4, #7
 8000f88:	4625      	movne	r5, r4
 8000f8a:	4625      	moveq	r5, r4
 8000f8c:	bf1a      	itte	ne
 8000f8e:	f855 2b08 	ldrne.w	r2, [r5], #8
 8000f92:	6863      	ldrne	r3, [r4, #4]
 8000f94:	f855 2b04 	ldreq.w	r2, [r5], #4
 8000f98:	e794      	b.n	8000ec4 <_vprintf+0x15c>
 8000f9a:	bf00      	nop

08000f9c <printf>:
 8000f9c:	b40f      	push	{r0, r1, r2, r3}
 8000f9e:	b507      	push	{r0, r1, r2, lr}
 8000fa0:	aa04      	add	r2, sp, #16
 8000fa2:	f852 1b04 	ldr.w	r1, [r2], #4
 8000fa6:	f06f 4000 	mvn.w	r0, #2147483648	; 0x80000000
 8000faa:	9201      	str	r2, [sp, #4]
 8000fac:	f7ff fedc 	bl	8000d68 <_vprintf>
 8000fb0:	b003      	add	sp, #12
 8000fb2:	f85d eb04 	ldr.w	lr, [sp], #4
 8000fb6:	b004      	add	sp, #16
 8000fb8:	4770      	bx	lr
	...

08000fbc <snprintf>:
 8000fbc:	b40c      	push	{r2, r3}
 8000fbe:	460b      	mov	r3, r1
 8000fc0:	b513      	push	{r0, r1, r4, lr}
 8000fc2:	4c09      	ldr	r4, [pc, #36]	; (8000fe8 <snprintf+0x2c>)
 8000fc4:	aa04      	add	r2, sp, #16
 8000fc6:	f852 1b04 	ldr.w	r1, [r2], #4
 8000fca:	6020      	str	r0, [r4, #0]
 8000fcc:	4618      	mov	r0, r3
 8000fce:	9201      	str	r2, [sp, #4]
 8000fd0:	f7ff feca 	bl	8000d68 <_vprintf>
 8000fd4:	2300      	movs	r3, #0
 8000fd6:	6822      	ldr	r2, [r4, #0]
 8000fd8:	6023      	str	r3, [r4, #0]
 8000fda:	7013      	strb	r3, [r2, #0]
 8000fdc:	b002      	add	sp, #8
 8000fde:	e8bd 4010 	ldmia.w	sp!, {r4, lr}
 8000fe2:	b002      	add	sp, #8
 8000fe4:	4770      	bx	lr
 8000fe6:	bf00      	nop
 8000fe8:	20000070 	andcs	r0, r0, r0, ror r0

08000fec <vsnprintf>:
 8000fec:	b538      	push	{r3, r4, r5, lr}
 8000fee:	4605      	mov	r5, r0
 8000ff0:	4c05      	ldr	r4, [pc, #20]	; (8001008 <vsnprintf+0x1c>)
 8000ff2:	4608      	mov	r0, r1
 8000ff4:	4611      	mov	r1, r2
 8000ff6:	461a      	mov	r2, r3
 8000ff8:	6025      	str	r5, [r4, #0]
 8000ffa:	f7ff feb5 	bl	8000d68 <_vprintf>
 8000ffe:	2300      	movs	r3, #0
 8001000:	6822      	ldr	r2, [r4, #0]
 8001002:	6023      	str	r3, [r4, #0]
 8001004:	7013      	strb	r3, [r2, #0]
 8001006:	bd38      	pop	{r3, r4, r5, pc}
 8001008:	20000070 	andcs	r0, r0, r0, ror r0

0800100c <__udivmoddi4>:
 800100c:	e92d 47f0 	stmdb	sp!, {r4, r5, r6, r7, r8, r9, sl, lr}
 8001010:	9e08      	ldr	r6, [sp, #32]
 8001012:	460d      	mov	r5, r1
 8001014:	4604      	mov	r4, r0
 8001016:	468e      	mov	lr, r1
 8001018:	2b00      	cmp	r3, #0
 800101a:	d14c      	bne.n	80010b6 <__udivmoddi4+0xaa>
 800101c:	428a      	cmp	r2, r1
 800101e:	4694      	mov	ip, r2
 8001020:	d967      	bls.n	80010f2 <__udivmoddi4+0xe6>
 8001022:	fab2 f382 	clz	r3, r2
 8001026:	b153      	cbz	r3, 800103e <__udivmoddi4+0x32>
 8001028:	fa02 fc03 	lsl.w	ip, r2, r3
 800102c:	f1c3 0220 	rsb	r2, r3, #32
 8001030:	fa01 fe03 	lsl.w	lr, r1, r3
 8001034:	fa20 f202 	lsr.w	r2, r0, r2
 8001038:	ea42 0e0e 	orr.w	lr, r2, lr
 800103c:	409c      	lsls	r4, r3
 800103e:	ea4f 471c 	mov.w	r7, ip, lsr #16
 8001042:	fbbe f1f7 	udiv	r1, lr, r7
 8001046:	fa1f f58c 	uxth.w	r5, ip
 800104a:	fb07 ee11 	mls	lr, r7, r1, lr
 800104e:	fb01 f005 	mul.w	r0, r1, r5
 8001052:	0c22      	lsrs	r2, r4, #16
 8001054:	ea42 420e 	orr.w	r2, r2, lr, lsl #16
 8001058:	4290      	cmp	r0, r2
 800105a:	d90a      	bls.n	8001072 <__udivmoddi4+0x66>
 800105c:	eb1c 0202 	adds.w	r2, ip, r2
 8001060:	f101 3eff 	add.w	lr, r1, #4294967295	; 0xffffffff
 8001064:	f080 8119 	bcs.w	800129a <__udivmoddi4+0x28e>
 8001068:	4290      	cmp	r0, r2
 800106a:	f240 8116 	bls.w	800129a <__udivmoddi4+0x28e>
 800106e:	3902      	subs	r1, #2
 8001070:	4462      	add	r2, ip
 8001072:	1a12      	subs	r2, r2, r0
 8001074:	fbb2 f0f7 	udiv	r0, r2, r7
 8001078:	fb07 2210 	mls	r2, r7, r0, r2
 800107c:	fb00 f505 	mul.w	r5, r0, r5
 8001080:	b2a4      	uxth	r4, r4
 8001082:	ea44 4402 	orr.w	r4, r4, r2, lsl #16
 8001086:	42a5      	cmp	r5, r4
 8001088:	d90a      	bls.n	80010a0 <__udivmoddi4+0x94>
 800108a:	eb1c 0404 	adds.w	r4, ip, r4
 800108e:	f100 32ff 	add.w	r2, r0, #4294967295	; 0xffffffff
 8001092:	f080 8104 	bcs.w	800129e <__udivmoddi4+0x292>
 8001096:	42a5      	cmp	r5, r4
 8001098:	f240 8101 	bls.w	800129e <__udivmoddi4+0x292>
 800109c:	4464      	add	r4, ip
 800109e:	3802      	subs	r0, #2
 80010a0:	ea40 4001 	orr.w	r0, r0, r1, lsl #16
 80010a4:	2100      	movs	r1, #0
 80010a6:	1b64      	subs	r4, r4, r5
 80010a8:	b11e      	cbz	r6, 80010b2 <__udivmoddi4+0xa6>
 80010aa:	40dc      	lsrs	r4, r3
 80010ac:	2300      	movs	r3, #0
 80010ae:	e9c6 4300 	strd	r4, r3, [r6]
 80010b2:	e8bd 87f0 	ldmia.w	sp!, {r4, r5, r6, r7, r8, r9, sl, pc}
 80010b6:	428b      	cmp	r3, r1
 80010b8:	d908      	bls.n	80010cc <__udivmoddi4+0xc0>
 80010ba:	2e00      	cmp	r6, #0
 80010bc:	f000 80ea 	beq.w	8001294 <__udivmoddi4+0x288>
 80010c0:	2100      	movs	r1, #0
 80010c2:	e9c6 0500 	strd	r0, r5, [r6]
 80010c6:	4608      	mov	r0, r1
 80010c8:	e8bd 87f0 	ldmia.w	sp!, {r4, r5, r6, r7, r8, r9, sl, pc}
 80010cc:	fab3 f183 	clz	r1, r3
 80010d0:	2900      	cmp	r1, #0
 80010d2:	d148      	bne.n	8001166 <__udivmoddi4+0x15a>
 80010d4:	42ab      	cmp	r3, r5
 80010d6:	d302      	bcc.n	80010de <__udivmoddi4+0xd2>
 80010d8:	4282      	cmp	r2, r0
 80010da:	f200 80f8 	bhi.w	80012ce <__udivmoddi4+0x2c2>
 80010de:	1a84      	subs	r4, r0, r2
 80010e0:	eb65 0203 	sbc.w	r2, r5, r3
 80010e4:	2001      	movs	r0, #1
 80010e6:	4696      	mov	lr, r2
 80010e8:	2e00      	cmp	r6, #0
 80010ea:	d0e2      	beq.n	80010b2 <__udivmoddi4+0xa6>
 80010ec:	e9c6 4e00 	strd	r4, lr, [r6]
 80010f0:	e7df      	b.n	80010b2 <__udivmoddi4+0xa6>
 80010f2:	b902      	cbnz	r2, 80010f6 <__udivmoddi4+0xea>
 80010f4:	deff      	udf	#255	; 0xff
 80010f6:	fab2 f382 	clz	r3, r2
 80010fa:	2b00      	cmp	r3, #0
 80010fc:	f040 808e 	bne.w	800121c <__udivmoddi4+0x210>
 8001100:	1a88      	subs	r0, r1, r2
 8001102:	2101      	movs	r1, #1
 8001104:	0c17      	lsrs	r7, r2, #16
 8001106:	fa1f fe82 	uxth.w	lr, r2
 800110a:	fbb0 f5f7 	udiv	r5, r0, r7
 800110e:	fb07 0015 	mls	r0, r7, r5, r0
 8001112:	0c22      	lsrs	r2, r4, #16
 8001114:	ea42 4200 	orr.w	r2, r2, r0, lsl #16
 8001118:	fb0e f005 	mul.w	r0, lr, r5
 800111c:	4290      	cmp	r0, r2
 800111e:	d908      	bls.n	8001132 <__udivmoddi4+0x126>
 8001120:	eb1c 0202 	adds.w	r2, ip, r2
 8001124:	f105 38ff 	add.w	r8, r5, #4294967295	; 0xffffffff
 8001128:	d202      	bcs.n	8001130 <__udivmoddi4+0x124>
 800112a:	4290      	cmp	r0, r2
 800112c:	f200 80cc 	bhi.w	80012c8 <__udivmoddi4+0x2bc>
 8001130:	4645      	mov	r5, r8
 8001132:	1a12      	subs	r2, r2, r0
 8001134:	fbb2 f0f7 	udiv	r0, r2, r7
 8001138:	fb07 2210 	mls	r2, r7, r0, r2
 800113c:	fb0e fe00 	mul.w	lr, lr, r0
 8001140:	b2a4      	uxth	r4, r4
 8001142:	ea44 4402 	orr.w	r4, r4, r2, lsl #16
 8001146:	45a6      	cmp	lr, r4
 8001148:	d908      	bls.n	800115c <__udivmoddi4+0x150>
 800114a:	eb1c 0404 	adds.w	r4, ip, r4
 800114e:	f100 32ff 	add.w	r2, r0, #4294967295	; 0xffffffff
 8001152:	d202      	bcs.n	800115a <__udivmoddi4+0x14e>
 8001154:	45a6      	cmp	lr, r4
 8001156:	f200 80b4 	bhi.w	80012c2 <__udivmoddi4+0x2b6>
 800115a:	4610      	mov	r0, r2
 800115c:	eba4 040e 	sub.w	r4, r4, lr
 8001160:	ea40 4005 	orr.w	r0, r0, r5, lsl #16
 8001164:	e7a0      	b.n	80010a8 <__udivmoddi4+0x9c>
 8001166:	f1c1 0720 	rsb	r7, r1, #32
 800116a:	408b      	lsls	r3, r1
 800116c:	fa22 fc07 	lsr.w	ip, r2, r7
 8001170:	ea4c 0c03 	orr.w	ip, ip, r3
 8001174:	fa25 fa07 	lsr.w	sl, r5, r7
 8001178:	ea4f 491c 	mov.w	r9, ip, lsr #16
 800117c:	fbba f8f9 	udiv	r8, sl, r9
 8001180:	408d      	lsls	r5, r1
 8001182:	fa20 f307 	lsr.w	r3, r0, r7
 8001186:	fb09 aa18 	mls	sl, r9, r8, sl
 800118a:	fa1f fe8c 	uxth.w	lr, ip
 800118e:	432b      	orrs	r3, r5
 8001190:	fa00 f501 	lsl.w	r5, r0, r1
 8001194:	fb08 f00e 	mul.w	r0, r8, lr
 8001198:	0c1c      	lsrs	r4, r3, #16
 800119a:	ea44 440a 	orr.w	r4, r4, sl, lsl #16
 800119e:	42a0      	cmp	r0, r4
 80011a0:	fa02 f201 	lsl.w	r2, r2, r1
 80011a4:	d90b      	bls.n	80011be <__udivmoddi4+0x1b2>
 80011a6:	eb1c 0404 	adds.w	r4, ip, r4
 80011aa:	f108 3aff 	add.w	sl, r8, #4294967295	; 0xffffffff
 80011ae:	f080 8086 	bcs.w	80012be <__udivmoddi4+0x2b2>
 80011b2:	42a0      	cmp	r0, r4
 80011b4:	f240 8083 	bls.w	80012be <__udivmoddi4+0x2b2>
 80011b8:	f1a8 0802 	sub.w	r8, r8, #2
 80011bc:	4464      	add	r4, ip
 80011be:	1a24      	subs	r4, r4, r0
 80011c0:	b298      	uxth	r0, r3
 80011c2:	fbb4 f3f9 	udiv	r3, r4, r9
 80011c6:	fb09 4413 	mls	r4, r9, r3, r4
 80011ca:	fb03 fe0e 	mul.w	lr, r3, lr
 80011ce:	ea40 4404 	orr.w	r4, r0, r4, lsl #16
 80011d2:	45a6      	cmp	lr, r4
 80011d4:	d908      	bls.n	80011e8 <__udivmoddi4+0x1dc>
 80011d6:	eb1c 0404 	adds.w	r4, ip, r4
 80011da:	f103 30ff 	add.w	r0, r3, #4294967295	; 0xffffffff
 80011de:	d26a      	bcs.n	80012b6 <__udivmoddi4+0x2aa>
 80011e0:	45a6      	cmp	lr, r4
 80011e2:	d968      	bls.n	80012b6 <__udivmoddi4+0x2aa>
 80011e4:	3b02      	subs	r3, #2
 80011e6:	4464      	add	r4, ip
 80011e8:	ea43 4008 	orr.w	r0, r3, r8, lsl #16
 80011ec:	fba0 9302 	umull	r9, r3, r0, r2
 80011f0:	eba4 040e 	sub.w	r4, r4, lr
 80011f4:	429c      	cmp	r4, r3
 80011f6:	46c8      	mov	r8, r9
 80011f8:	469e      	mov	lr, r3
 80011fa:	d354      	bcc.n	80012a6 <__udivmoddi4+0x29a>
 80011fc:	d051      	beq.n	80012a2 <__udivmoddi4+0x296>
 80011fe:	2e00      	cmp	r6, #0
 8001200:	d067      	beq.n	80012d2 <__udivmoddi4+0x2c6>
 8001202:	ebb5 0308 	subs.w	r3, r5, r8
 8001206:	eb64 040e 	sbc.w	r4, r4, lr
 800120a:	40cb      	lsrs	r3, r1
 800120c:	fa04 f707 	lsl.w	r7, r4, r7
 8001210:	431f      	orrs	r7, r3
 8001212:	40cc      	lsrs	r4, r1
 8001214:	e9c6 7400 	strd	r7, r4, [r6]
 8001218:	2100      	movs	r1, #0
 800121a:	e74a      	b.n	80010b2 <__udivmoddi4+0xa6>
 800121c:	fa02 fc03 	lsl.w	ip, r2, r3
 8001220:	f1c3 0020 	rsb	r0, r3, #32
 8001224:	40c1      	lsrs	r1, r0
 8001226:	409d      	lsls	r5, r3
 8001228:	fa24 f000 	lsr.w	r0, r4, r0
 800122c:	ea4f 471c 	mov.w	r7, ip, lsr #16
 8001230:	4328      	orrs	r0, r5
 8001232:	fbb1 f5f7 	udiv	r5, r1, r7
 8001236:	fb07 1115 	mls	r1, r7, r5, r1
 800123a:	fa1f fe8c 	uxth.w	lr, ip
 800123e:	0c02      	lsrs	r2, r0, #16
 8001240:	ea42 4201 	orr.w	r2, r2, r1, lsl #16
 8001244:	fb05 f10e 	mul.w	r1, r5, lr
 8001248:	4291      	cmp	r1, r2
 800124a:	fa04 f403 	lsl.w	r4, r4, r3
 800124e:	d908      	bls.n	8001262 <__udivmoddi4+0x256>
 8001250:	eb1c 0202 	adds.w	r2, ip, r2
 8001254:	f105 38ff 	add.w	r8, r5, #4294967295	; 0xffffffff
 8001258:	d22f      	bcs.n	80012ba <__udivmoddi4+0x2ae>
 800125a:	4291      	cmp	r1, r2
 800125c:	d92d      	bls.n	80012ba <__udivmoddi4+0x2ae>
 800125e:	3d02      	subs	r5, #2
 8001260:	4462      	add	r2, ip
 8001262:	1a52      	subs	r2, r2, r1
 8001264:	fbb2 f1f7 	udiv	r1, r2, r7
 8001268:	fb07 2211 	mls	r2, r7, r1, r2
 800126c:	b280      	uxth	r0, r0
 800126e:	ea40 4002 	orr.w	r0, r0, r2, lsl #16
 8001272:	fb01 f20e 	mul.w	r2, r1, lr
 8001276:	4282      	cmp	r2, r0
 8001278:	d908      	bls.n	800128c <__udivmoddi4+0x280>
 800127a:	eb1c 0000 	adds.w	r0, ip, r0
 800127e:	f101 38ff 	add.w	r8, r1, #4294967295	; 0xffffffff
 8001282:	d216      	bcs.n	80012b2 <__udivmoddi4+0x2a6>
 8001284:	4282      	cmp	r2, r0
 8001286:	d914      	bls.n	80012b2 <__udivmoddi4+0x2a6>
 8001288:	3902      	subs	r1, #2
 800128a:	4460      	add	r0, ip
 800128c:	1a80      	subs	r0, r0, r2
 800128e:	ea41 4105 	orr.w	r1, r1, r5, lsl #16
 8001292:	e73a      	b.n	800110a <__udivmoddi4+0xfe>
 8001294:	4631      	mov	r1, r6
 8001296:	4630      	mov	r0, r6
 8001298:	e70b      	b.n	80010b2 <__udivmoddi4+0xa6>
 800129a:	4671      	mov	r1, lr
 800129c:	e6e9      	b.n	8001072 <__udivmoddi4+0x66>
 800129e:	4610      	mov	r0, r2
 80012a0:	e6fe      	b.n	80010a0 <__udivmoddi4+0x94>
 80012a2:	454d      	cmp	r5, r9
 80012a4:	d2ab      	bcs.n	80011fe <__udivmoddi4+0x1f2>
 80012a6:	ebb9 0802 	subs.w	r8, r9, r2
 80012aa:	eb63 0e0c 	sbc.w	lr, r3, ip
 80012ae:	3801      	subs	r0, #1
 80012b0:	e7a5      	b.n	80011fe <__udivmoddi4+0x1f2>
 80012b2:	4641      	mov	r1, r8
 80012b4:	e7ea      	b.n	800128c <__udivmoddi4+0x280>
 80012b6:	4603      	mov	r3, r0
 80012b8:	e796      	b.n	80011e8 <__udivmoddi4+0x1dc>
 80012ba:	4645      	mov	r5, r8
 80012bc:	e7d1      	b.n	8001262 <__udivmoddi4+0x256>
 80012be:	46d0      	mov	r8, sl
 80012c0:	e77d      	b.n	80011be <__udivmoddi4+0x1b2>
 80012c2:	4464      	add	r4, ip
 80012c4:	3802      	subs	r0, #2
 80012c6:	e749      	b.n	800115c <__udivmoddi4+0x150>
 80012c8:	3d02      	subs	r5, #2
 80012ca:	4462      	add	r2, ip
 80012cc:	e731      	b.n	8001132 <__udivmoddi4+0x126>
 80012ce:	4608      	mov	r0, r1
 80012d0:	e70a      	b.n	80010e8 <__udivmoddi4+0xdc>
 80012d2:	4631      	mov	r1, r6
 80012d4:	e6ed      	b.n	80010b2 <__udivmoddi4+0xa6>
 80012d6:	bf00      	nop

080012d8 <Display::PrintInfo() [clone .isra.0]>:
 80012d8:	b910      	cbnz	r0, 80012e0 <Display::PrintInfo() [clone .isra.0]+0x8>
 80012da:	4803      	ldr	r0, [pc, #12]	; (80012e8 <Display::PrintInfo() [clone .isra.0]+0x10>)
 80012dc:	f002 bdb4 	b.w	8003e48 <puts>
 80012e0:	6803      	ldr	r3, [r0, #0]
 80012e2:	6b5b      	ldr	r3, [r3, #52]	; 0x34
 80012e4:	4718      	bx	r3
 80012e6:	bf00      	nop
 80012e8:	08005f8e 	stmdaeq	r0, {r1, r2, r3, r7, r8, r9, sl, fp, ip, lr}

080012ec <HAL_I2C::WriteRegister(unsigned char, unsigned short)>:
 80012ec:	b513      	push	{r0, r1, r4, lr}
 80012ee:	4604      	mov	r4, r0
 80012f0:	0a13      	lsrs	r3, r2, #8
 80012f2:	7800      	ldrb	r0, [r0, #0]
 80012f4:	f88d 1004 	strb.w	r1, [sp, #4]
 80012f8:	f88d 3005 	strb.w	r3, [sp, #5]
 80012fc:	f88d 2006 	strb.w	r2, [sp, #6]
 8001300:	f003 fd36 	bl	8004d70 <gd32_i2c_set_address>
 8001304:	6860      	ldr	r0, [r4, #4]
 8001306:	f003 fd2b 	bl	8004d60 <gd32_i2c_set_baudrate>
 800130a:	2103      	movs	r1, #3
 800130c:	a801      	add	r0, sp, #4
 800130e:	f003 fd35 	bl	8004d7c <gd32_i2c_write>
 8001312:	b002      	add	sp, #8
 8001314:	bd10      	pop	{r4, pc}

08001316 <HAL_I2C::IsConnected_(unsigned char, unsigned int)>:
 8001316:	b537      	push	{r0, r1, r2, r4, r5, lr}
 8001318:	460d      	mov	r5, r1
 800131a:	4604      	mov	r4, r0
 800131c:	f003 fd28 	bl	8004d70 <gd32_i2c_set_address>
 8001320:	4628      	mov	r0, r5
 8001322:	f003 fd1d 	bl	8004d60 <gd32_i2c_set_baudrate>
 8001326:	f1a4 0330 	sub.w	r3, r4, #48	; 0x30
 800132a:	2b07      	cmp	r3, #7
 800132c:	d902      	bls.n	8001334 <HAL_I2C::IsConnected_(unsigned char, unsigned int)+0x1e>
 800132e:	3c50      	subs	r4, #80	; 0x50
 8001330:	2c0f      	cmp	r4, #15
 8001332:	d809      	bhi.n	8001348 <HAL_I2C::IsConnected_(unsigned char, unsigned int)+0x32>
 8001334:	2101      	movs	r1, #1
 8001336:	f10d 0007 	add.w	r0, sp, #7
 800133a:	f003 fd85 	bl	8004e48 <gd32_i2c_read>
 800133e:	fab0 f080 	clz	r0, r0
 8001342:	0940      	lsrs	r0, r0, #5
 8001344:	b003      	add	sp, #12
 8001346:	bd30      	pop	{r4, r5, pc}
 8001348:	2100      	movs	r1, #0
 800134a:	4608      	mov	r0, r1
 800134c:	f003 fd16 	bl	8004d7c <gd32_i2c_write>
 8001350:	e7f5      	b.n	800133e <HAL_I2C::IsConnected_(unsigned char, unsigned int)+0x28>

08001352 <Display::Detect7Segment()>:
 8001352:	b538      	push	{r3, r4, r5, lr}
 8001354:	68c1      	ldr	r1, [r0, #12]
 8001356:	4604      	mov	r4, r0
 8001358:	7a00      	ldrb	r0, [r0, #8]
 800135a:	f7ff ffdc 	bl	8001316 <HAL_I2C::IsConnected_(unsigned char, unsigned int)>
 800135e:	7460      	strb	r0, [r4, #17]
 8001360:	b170      	cbz	r0, 8001380 <Display::Detect7Segment()+0x2e>
 8001362:	2200      	movs	r2, #0
 8001364:	f104 0508 	add.w	r5, r4, #8
 8001368:	4611      	mov	r1, r2
 800136a:	4628      	mov	r0, r5
 800136c:	f7ff ffbe 	bl	80012ec <HAL_I2C::WriteRegister(unsigned char, unsigned short)>
 8001370:	7c63      	ldrb	r3, [r4, #17]
 8001372:	b12b      	cbz	r3, 8001380 <Display::Detect7Segment()+0x2e>
 8001374:	f24c 02ff 	movw	r2, #49407	; 0xc0ff
 8001378:	2112      	movs	r1, #18
 800137a:	4628      	mov	r0, r5
 800137c:	f7ff ffb6 	bl	80012ec <HAL_I2C::WriteRegister(unsigned char, unsigned short)>
 8001380:	bd38      	pop	{r3, r4, r5, pc}
	...

08001384 <Display::Detect(unsigned int)>:
 8001384:	b538      	push	{r3, r4, r5, lr}
 8001386:	4605      	mov	r5, r0
 8001388:	460c      	mov	r4, r1
 800138a:	203c      	movs	r0, #60	; 0x3c
 800138c:	4911      	ldr	r1, [pc, #68]	; (80013d4 <Display::Detect(unsigned int)+0x50>)
 800138e:	f7ff ffc2 	bl	8001316 <HAL_I2C::IsConnected_(unsigned char, unsigned int)>
 8001392:	b1b0      	cbz	r0, 80013c2 <Display::Detect(unsigned int)+0x3e>
 8001394:	2c04      	cmp	r4, #4
 8001396:	f04f 0018 	mov.w	r0, #24
 800139a:	d816      	bhi.n	80013ca <Display::Detect(unsigned int)+0x46>
 800139c:	f002 fcd0 	bl	8003d40 <operator new(unsigned int)>
 80013a0:	2101      	movs	r1, #1
 80013a2:	4604      	mov	r4, r0
 80013a4:	f000 f8aa 	bl	80014fc <Ssd1306::Ssd1306(TOledPanel)>
 80013a8:	6823      	ldr	r3, [r4, #0]
 80013aa:	4620      	mov	r0, r4
 80013ac:	689b      	ldr	r3, [r3, #8]
 80013ae:	61ac      	str	r4, [r5, #24]
 80013b0:	4798      	blx	r3
 80013b2:	b130      	cbz	r0, 80013c2 <Display::Detect(unsigned int)+0x3e>
 80013b4:	2302      	movs	r3, #2
 80013b6:	2101      	movs	r1, #1
 80013b8:	4628      	mov	r0, r5
 80013ba:	4a07      	ldr	r2, [pc, #28]	; (80013d8 <Display::Detect(unsigned int)+0x54>)
 80013bc:	602b      	str	r3, [r5, #0]
 80013be:	f7ff fa34 	bl	800082a <Display::Printf(unsigned char, char const*, ...)>
 80013c2:	69ab      	ldr	r3, [r5, #24]
 80013c4:	b903      	cbnz	r3, 80013c8 <Display::Detect(unsigned int)+0x44>
 80013c6:	616b      	str	r3, [r5, #20]
 80013c8:	bd38      	pop	{r3, r4, r5, pc}
 80013ca:	f002 fcb9 	bl	8003d40 <operator new(unsigned int)>
 80013ce:	2100      	movs	r1, #0
 80013d0:	4604      	mov	r4, r0
 80013d2:	e7e7      	b.n	80013a4 <Display::Detect(unsigned int)+0x20>
 80013d4:	000186a0 	andeq	r8, r1, r0, lsr #13
 80013d8:	08005f9f 	stmdaeq	r0, {r0, r1, r2, r3, r4, r7, r8, r9, sl, fp, ip, lr}

080013dc <Display::Display(unsigned int)>:
 80013dc:	2304      	movs	r3, #4
 80013de:	b510      	push	{r4, lr}
 80013e0:	6003      	str	r3, [r0, #0]
 80013e2:	4b0e      	ldr	r3, [pc, #56]	; (800141c <Display::Display(unsigned int)+0x40>)
 80013e4:	4604      	mov	r4, r0
 80013e6:	681b      	ldr	r3, [r3, #0]
 80013e8:	4a0d      	ldr	r2, [pc, #52]	; (8001420 <Display::Display(unsigned int)+0x44>)
 80013ea:	6043      	str	r3, [r0, #4]
 80013ec:	2321      	movs	r3, #33	; 0x21
 80013ee:	7203      	strb	r3, [r0, #8]
 80013f0:	4b0c      	ldr	r3, [pc, #48]	; (8001424 <Display::Display(unsigned int)+0x48>)
 80013f2:	60c3      	str	r3, [r0, #12]
 80013f4:	2300      	movs	r3, #0
 80013f6:	e9c0 2305 	strd	r2, r3, [r0, #20]
 80013fa:	8203      	strh	r3, [r0, #16]
 80013fc:	4b0a      	ldr	r3, [pc, #40]	; (8001428 <Display::Display(unsigned int)+0x4c>)
 80013fe:	6018      	str	r0, [r3, #0]
 8001400:	f7ff ffc0 	bl	8001384 <Display::Detect(unsigned int)>
 8001404:	4620      	mov	r0, r4
 8001406:	f7ff ffa4 	bl	8001352 <Display::Detect7Segment()>
 800140a:	69a3      	ldr	r3, [r4, #24]
 800140c:	b10b      	cbz	r3, 8001412 <Display::Display(unsigned int)+0x36>
 800140e:	f000 fa05 	bl	800181c <display::timeout::gpio_init()>
 8001412:	69a0      	ldr	r0, [r4, #24]
 8001414:	f7ff ff60 	bl	80012d8 <Display::PrintInfo() [clone .isra.0]>
 8001418:	4620      	mov	r0, r4
 800141a:	bd10      	pop	{r4, pc}
 800141c:	200039c4 	andcs	r3, r0, r4, asr #19
 8001420:	000493e0 	andeq	r9, r4, r0, ror #7
 8001424:	00061a80 	andeq	r1, r6, r0, lsl #21
 8001428:	20000074 	andcs	r0, r0, r4, ror r0

0800142c <Ssd1306::~Ssd1306()>:
 800142c:	4770      	bx	lr

0800142e <Ssd1306::SetCursor(unsigned int)>:
 800142e:	4770      	bx	lr

08001430 <Ssd1306::PrintInfo()>:
 8001430:	b410      	push	{r4}
 8001432:	4906      	ldr	r1, [pc, #24]	; (800144c <Ssd1306::PrintInfo()+0x1c>)
 8001434:	7c44      	ldrb	r4, [r0, #17]
 8001436:	7903      	ldrb	r3, [r0, #4]
 8001438:	7942      	ldrb	r2, [r0, #5]
 800143a:	4805      	ldr	r0, [pc, #20]	; (8001450 <Ssd1306::PrintInfo()+0x20>)
 800143c:	2c00      	cmp	r4, #0
 800143e:	bf08      	it	eq
 8001440:	4601      	moveq	r1, r0
 8001442:	4804      	ldr	r0, [pc, #16]	; (8001454 <Ssd1306::PrintInfo()+0x24>)
 8001444:	bc10      	pop	{r4}
 8001446:	f7ff bda9 	b.w	8000f9c <printf>
 800144a:	bf00      	nop
 800144c:	08005fa7 	stmdaeq	r0, {r0, r1, r2, r5, r7, r8, r9, sl, fp, ip, lr}
 8001450:	08005f9f 	stmdaeq	r0, {r0, r1, r2, r3, r4, r7, r8, r9, sl, fp, ip, lr}
 8001454:	08005fae 	stmdaeq	r0, {r1, r2, r3, r5, r7, r8, r9, sl, fp, ip, lr}

08001458 <Ssd1306::~Ssd1306()>:
 8001458:	b510      	push	{r4, lr}
 800145a:	4604      	mov	r4, r0
 800145c:	f002 fc6c 	bl	8003d38 <operator delete(void*)>
 8001460:	4620      	mov	r0, r4
 8001462:	bd10      	pop	{r4, pc}

08001464 <HAL_I2C::Setup()>:
 8001464:	b510      	push	{r4, lr}
 8001466:	4604      	mov	r4, r0
 8001468:	7800      	ldrb	r0, [r0, #0]
 800146a:	f003 fc81 	bl	8004d70 <gd32_i2c_set_address>
 800146e:	6860      	ldr	r0, [r4, #4]
 8001470:	e8bd 4010 	ldmia.w	sp!, {r4, lr}
 8001474:	f003 bc74 	b.w	8004d60 <gd32_i2c_set_baudrate>

08001478 <Ssd1306::PutChar(int)>:
 8001478:	b510      	push	{r4, lr}
 800147a:	f1a1 0420 	sub.w	r4, r1, #32
 800147e:	2c5f      	cmp	r4, #95	; 0x5f
 8001480:	bf88      	it	hi
 8001482:	2400      	movhi	r4, #0
 8001484:	3008      	adds	r0, #8
 8001486:	f7ff ffed 	bl	8001464 <HAL_I2C::Setup()>
 800148a:	4804      	ldr	r0, [pc, #16]	; (800149c <Ssd1306::PutChar(int)+0x24>)
 800148c:	ebc4 04c4 	rsb	r4, r4, r4, lsl #3
 8001490:	4420      	add	r0, r4
 8001492:	2107      	movs	r1, #7
 8001494:	e8bd 4010 	ldmia.w	sp!, {r4, lr}
 8001498:	f003 bc70 	b.w	8004d7c <gd32_i2c_write>
 800149c:	08005fc0 	stmdaeq	r0, {r6, r7, r8, r9, sl, fp, ip, lr}

080014a0 <Ssd1306::PutString(char const*)>:
 80014a0:	b538      	push	{r3, r4, r5, lr}
 80014a2:	4605      	mov	r5, r0
 80014a4:	1e4c      	subs	r4, r1, #1
 80014a6:	f814 1f01 	ldrb.w	r1, [r4, #1]!
 80014aa:	b901      	cbnz	r1, 80014ae <Ssd1306::PutString(char const*)+0xe>
 80014ac:	bd38      	pop	{r3, r4, r5, pc}
 80014ae:	4628      	mov	r0, r5
 80014b0:	f7ff ffe2 	bl	8001478 <Ssd1306::PutChar(int)>
 80014b4:	e7f7      	b.n	80014a6 <Ssd1306::PutString(char const*)+0x6>

080014b6 <Ssd1306::Text(char const*, unsigned int)>:
 80014b6:	b570      	push	{r4, r5, r6, lr}
 80014b8:	7903      	ldrb	r3, [r0, #4]
 80014ba:	4605      	mov	r5, r0
 80014bc:	460c      	mov	r4, r1
 80014be:	4293      	cmp	r3, r2
 80014c0:	bf94      	ite	ls
 80014c2:	18ce      	addls	r6, r1, r3
 80014c4:	188e      	addhi	r6, r1, r2
 80014c6:	42b4      	cmp	r4, r6
 80014c8:	d100      	bne.n	80014cc <Ssd1306::Text(char const*, unsigned int)+0x16>
 80014ca:	bd70      	pop	{r4, r5, r6, pc}
 80014cc:	4628      	mov	r0, r5
 80014ce:	f814 1b01 	ldrb.w	r1, [r4], #1
 80014d2:	f7ff ffd1 	bl	8001478 <Ssd1306::PutChar(int)>
 80014d6:	e7f6      	b.n	80014c6 <Ssd1306::Text(char const*, unsigned int)+0x10>

080014d8 <Ssd1306::InitMembers()>:
 80014d8:	7c03      	ldrb	r3, [r0, #16]
 80014da:	b14b      	cbz	r3, 80014f0 <Ssd1306::InitMembers()+0x18>
 80014dc:	3b01      	subs	r3, #1
 80014de:	2b01      	cmp	r3, #1
 80014e0:	d909      	bls.n	80014f6 <Ssd1306::InitMembers()+0x1e>
 80014e2:	2308      	movs	r3, #8
 80014e4:	2204      	movs	r2, #4
 80014e6:	2115      	movs	r1, #21
 80014e8:	7143      	strb	r3, [r0, #5]
 80014ea:	7101      	strb	r1, [r0, #4]
 80014ec:	6142      	str	r2, [r0, #20]
 80014ee:	4770      	bx	lr
 80014f0:	2308      	movs	r3, #8
 80014f2:	461a      	mov	r2, r3
 80014f4:	e7f7      	b.n	80014e6 <Ssd1306::InitMembers()+0xe>
 80014f6:	2304      	movs	r3, #4
 80014f8:	e7fb      	b.n	80014f2 <Ssd1306::InitMembers()+0x1a>
	...

080014fc <Ssd1306::Ssd1306(TOledPanel)>:
 80014fc:	4a08      	ldr	r2, [pc, #32]	; (8001520 <Ssd1306::Ssd1306(TOledPanel)+0x24>)
 80014fe:	b508      	push	{r3, lr}
 8001500:	6002      	str	r2, [r0, #0]
 8001502:	227f      	movs	r2, #127	; 0x7f
 8001504:	80c2      	strh	r2, [r0, #6]
 8001506:	223c      	movs	r2, #60	; 0x3c
 8001508:	7202      	strb	r2, [r0, #8]
 800150a:	4a06      	ldr	r2, [pc, #24]	; (8001524 <Ssd1306::Ssd1306(TOledPanel)+0x28>)
 800150c:	7401      	strb	r1, [r0, #16]
 800150e:	60c2      	str	r2, [r0, #12]
 8001510:	2200      	movs	r2, #0
 8001512:	7442      	strb	r2, [r0, #17]
 8001514:	4a04      	ldr	r2, [pc, #16]	; (8001528 <Ssd1306::Ssd1306(TOledPanel)+0x2c>)
 8001516:	6010      	str	r0, [r2, #0]
 8001518:	f7ff ffde 	bl	80014d8 <Ssd1306::InitMembers()>
 800151c:	bd08      	pop	{r3, pc}
 800151e:	bf00      	nop
 8001520:	08006298 	stmdaeq	r0, {r3, r4, r7, r9, sp, lr}
 8001524:	00061a80 	andeq	r1, r6, r0, lsl #21
 8001528:	20000100 	andcs	r0, r0, r0, lsl #2

0800152c <Ssd1306::SendCommand(unsigned char)>:
 800152c:	2300      	movs	r3, #0
 800152e:	b507      	push	{r0, r1, r2, lr}
 8001530:	3008      	adds	r0, #8
 8001532:	f88d 3004 	strb.w	r3, [sp, #4]
 8001536:	f88d 1005 	strb.w	r1, [sp, #5]
 800153a:	f7ff ff93 	bl	8001464 <HAL_I2C::Setup()>
 800153e:	2102      	movs	r1, #2
 8001540:	a801      	add	r0, sp, #4
 8001542:	f003 fc1b 	bl	8004d7c <gd32_i2c_write>
 8001546:	b003      	add	sp, #12
 8001548:	f85d fb04 	ldr.w	pc, [sp], #4

0800154c <Ssd1306::SetCursorPos(unsigned char, unsigned char)>:
 800154c:	2914      	cmp	r1, #20
 800154e:	b570      	push	{r4, r5, r6, lr}
 8001550:	4605      	mov	r5, r0
 8001552:	4616      	mov	r6, r2
 8001554:	d81c      	bhi.n	8001590 <Ssd1306::SetCursorPos(unsigned char, unsigned char)+0x44>
 8001556:	7943      	ldrb	r3, [r0, #5]
 8001558:	4293      	cmp	r3, r2
 800155a:	d919      	bls.n	8001590 <Ssd1306::SetCursorPos(unsigned char, unsigned char)+0x44>
 800155c:	eb01 0141 	add.w	r1, r1, r1, lsl #1
 8001560:	7c43      	ldrb	r3, [r0, #17]
 8001562:	004c      	lsls	r4, r1, #1
 8001564:	b2e4      	uxtb	r4, r4
 8001566:	b10b      	cbz	r3, 800156c <Ssd1306::SetCursorPos(unsigned char, unsigned char)+0x20>
 8001568:	3404      	adds	r4, #4
 800156a:	b2e4      	uxtb	r4, r4
 800156c:	4628      	mov	r0, r5
 800156e:	f004 010e 	and.w	r1, r4, #14
 8001572:	f7ff ffdb 	bl	800152c <Ssd1306::SendCommand(unsigned char)>
 8001576:	0921      	lsrs	r1, r4, #4
 8001578:	4628      	mov	r0, r5
 800157a:	f041 0110 	orr.w	r1, r1, #16
 800157e:	f7ff ffd5 	bl	800152c <Ssd1306::SendCommand(unsigned char)>
 8001582:	4628      	mov	r0, r5
 8001584:	f046 01b0 	orr.w	r1, r6, #176	; 0xb0
 8001588:	e8bd 4070 	ldmia.w	sp!, {r4, r5, r6, lr}
 800158c:	f7ff bfce 	b.w	800152c <Ssd1306::SendCommand(unsigned char)>
 8001590:	bd70      	pop	{r4, r5, r6, pc}

08001592 <Ssd1306::TextLine(unsigned char, char const*, unsigned int)>:
 8001592:	b570      	push	{r4, r5, r6, lr}
 8001594:	461e      	mov	r6, r3
 8001596:	7943      	ldrb	r3, [r0, #5]
 8001598:	4604      	mov	r4, r0
 800159a:	428b      	cmp	r3, r1
 800159c:	4615      	mov	r5, r2
 800159e:	d30b      	bcc.n	80015b8 <Ssd1306::TextLine(unsigned char, char const*, unsigned int)+0x26>
 80015a0:	3901      	subs	r1, #1
 80015a2:	b2ca      	uxtb	r2, r1
 80015a4:	2100      	movs	r1, #0
 80015a6:	f7ff ffd1 	bl	800154c <Ssd1306::SetCursorPos(unsigned char, unsigned char)>
 80015aa:	4632      	mov	r2, r6
 80015ac:	4629      	mov	r1, r5
 80015ae:	4620      	mov	r0, r4
 80015b0:	e8bd 4070 	ldmia.w	sp!, {r4, r5, r6, lr}
 80015b4:	f7ff bf7f 	b.w	80014b6 <Ssd1306::Text(char const*, unsigned int)>
 80015b8:	bd70      	pop	{r4, r5, r6, pc}
	...

080015bc <Ssd1306::ClearLine(unsigned char)>:
 80015bc:	b538      	push	{r3, r4, r5, lr}
 80015be:	7943      	ldrb	r3, [r0, #5]
 80015c0:	4605      	mov	r5, r0
 80015c2:	428b      	cmp	r3, r1
 80015c4:	d314      	bcc.n	80015f0 <Ssd1306::ClearLine(unsigned char)+0x34>
 80015c6:	3901      	subs	r1, #1
 80015c8:	b2cc      	uxtb	r4, r1
 80015ca:	4622      	mov	r2, r4
 80015cc:	2100      	movs	r1, #0
 80015ce:	f7ff ffbd 	bl	800154c <Ssd1306::SetCursorPos(unsigned char, unsigned char)>
 80015d2:	f105 0008 	add.w	r0, r5, #8
 80015d6:	f7ff ff45 	bl	8001464 <HAL_I2C::Setup()>
 80015da:	2181      	movs	r1, #129	; 0x81
 80015dc:	4805      	ldr	r0, [pc, #20]	; (80015f4 <Ssd1306::ClearLine(unsigned char)+0x38>)
 80015de:	f003 fbcd 	bl	8004d7c <gd32_i2c_write>
 80015e2:	4622      	mov	r2, r4
 80015e4:	4628      	mov	r0, r5
 80015e6:	e8bd 4038 	ldmia.w	sp!, {r3, r4, r5, lr}
 80015ea:	2100      	movs	r1, #0
 80015ec:	f7ff bfae 	b.w	800154c <Ssd1306::SetCursorPos(unsigned char, unsigned char)>
 80015f0:	bd38      	pop	{r3, r4, r5, pc}
 80015f2:	bf00      	nop
 80015f4:	20000078 	andcs	r0, r0, r8, ror r0

080015f8 <Ssd1306::SetSleep(bool)>:
 80015f8:	b111      	cbz	r1, 8001600 <Ssd1306::SetSleep(bool)+0x8>
 80015fa:	21ae      	movs	r1, #174	; 0xae
 80015fc:	f7ff bf96 	b.w	800152c <Ssd1306::SendCommand(unsigned char)>
 8001600:	21af      	movs	r1, #175	; 0xaf
 8001602:	e7fb      	b.n	80015fc <Ssd1306::SetSleep(bool)+0x4>

08001604 <Ssd1306::SetContrast(unsigned char)>:
 8001604:	b538      	push	{r3, r4, r5, lr}
 8001606:	4604      	mov	r4, r0
 8001608:	460d      	mov	r5, r1
 800160a:	7181      	strb	r1, [r0, #6]
 800160c:	2181      	movs	r1, #129	; 0x81
 800160e:	f7ff ff8d 	bl	800152c <Ssd1306::SendCommand(unsigned char)>
 8001612:	4629      	mov	r1, r5
 8001614:	4620      	mov	r0, r4
 8001616:	e8bd 4038 	ldmia.w	sp!, {r3, r4, r5, lr}
 800161a:	f7ff bf87 	b.w	800152c <Ssd1306::SendCommand(unsigned char)>

0800161e <Ssd1306::SetFlipVertically(bool)>:
 800161e:	b510      	push	{r4, lr}
 8001620:	4604      	mov	r4, r0
 8001622:	71c1      	strb	r1, [r0, #7]
 8001624:	b141      	cbz	r1, 8001638 <Ssd1306::SetFlipVertically(bool)+0x1a>
 8001626:	21c0      	movs	r1, #192	; 0xc0
 8001628:	f7ff ff80 	bl	800152c <Ssd1306::SendCommand(unsigned char)>
 800162c:	21a0      	movs	r1, #160	; 0xa0
 800162e:	4620      	mov	r0, r4
 8001630:	e8bd 4010 	ldmia.w	sp!, {r4, lr}
 8001634:	f7ff bf7a 	b.w	800152c <Ssd1306::SendCommand(unsigned char)>
 8001638:	21c8      	movs	r1, #200	; 0xc8
 800163a:	f7ff ff77 	bl	800152c <Ssd1306::SendCommand(unsigned char)>
 800163e:	21a1      	movs	r1, #161	; 0xa1
 8001640:	e7f5      	b.n	800162e <Ssd1306::SetFlipVertically(bool)+0x10>
	...

08001644 <Ssd1306::CheckSH1106()>:
 8001644:	b530      	push	{r4, r5, lr}
 8001646:	4604      	mov	r4, r0
 8001648:	b087      	sub	sp, #28
 800164a:	2100      	movs	r1, #0
 800164c:	f7ff ff6e 	bl	800152c <Ssd1306::SendCommand(unsigned char)>
 8001650:	2190      	movs	r1, #144	; 0x90
 8001652:	4620      	mov	r0, r4
 8001654:	f7ff ff6a 	bl	800152c <Ssd1306::SendCommand(unsigned char)>
 8001658:	21b0      	movs	r1, #176	; 0xb0
 800165a:	4620      	mov	r0, r4
 800165c:	f7ff ff66 	bl	800152c <Ssd1306::SendCommand(unsigned char)>
 8001660:	4b22      	ldr	r3, [pc, #136]	; (80016ec <Ssd1306::CheckSH1106()+0xa8>)
 8001662:	f104 0508 	add.w	r5, r4, #8
 8001666:	6818      	ldr	r0, [r3, #0]
 8001668:	791b      	ldrb	r3, [r3, #4]
 800166a:	9002      	str	r0, [sp, #8]
 800166c:	4628      	mov	r0, r5
 800166e:	f88d 300c 	strb.w	r3, [sp, #12]
 8001672:	f7ff fef7 	bl	8001464 <HAL_I2C::Setup()>
 8001676:	2105      	movs	r1, #5
 8001678:	a802      	add	r0, sp, #8
 800167a:	f003 fb7f 	bl	8004d7c <gd32_i2c_write>
 800167e:	2100      	movs	r1, #0
 8001680:	4620      	mov	r0, r4
 8001682:	f7ff ff53 	bl	800152c <Ssd1306::SendCommand(unsigned char)>
 8001686:	2190      	movs	r1, #144	; 0x90
 8001688:	4620      	mov	r0, r4
 800168a:	f7ff ff4f 	bl	800152c <Ssd1306::SendCommand(unsigned char)>
 800168e:	21b0      	movs	r1, #176	; 0xb0
 8001690:	4620      	mov	r0, r4
 8001692:	f7ff ff4b 	bl	800152c <Ssd1306::SendCommand(unsigned char)>
 8001696:	2300      	movs	r3, #0
 8001698:	9304      	str	r3, [sp, #16]
 800169a:	f88d 3014 	strb.w	r3, [sp, #20]
 800169e:	2340      	movs	r3, #64	; 0x40
 80016a0:	4628      	mov	r0, r5
 80016a2:	f88d 3007 	strb.w	r3, [sp, #7]
 80016a6:	f7ff fedd 	bl	8001464 <HAL_I2C::Setup()>
 80016aa:	2101      	movs	r1, #1
 80016ac:	f10d 0007 	add.w	r0, sp, #7
 80016b0:	f003 fb64 	bl	8004d7c <gd32_i2c_write>
 80016b4:	4628      	mov	r0, r5
 80016b6:	f7ff fed5 	bl	8001464 <HAL_I2C::Setup()>
 80016ba:	2105      	movs	r1, #5
 80016bc:	a804      	add	r0, sp, #16
 80016be:	f003 fbc3 	bl	8004e48 <gd32_i2c_read>
 80016c2:	2004      	movs	r0, #4
 80016c4:	aa02      	add	r2, sp, #8
 80016c6:	a904      	add	r1, sp, #16
 80016c8:	3801      	subs	r0, #1
 80016ca:	d201      	bcs.n	80016d0 <Ssd1306::CheckSH1106()+0x8c>
 80016cc:	2300      	movs	r3, #0
 80016ce:	e006      	b.n	80016de <Ssd1306::CheckSH1106()+0x9a>
 80016d0:	f812 3f01 	ldrb.w	r3, [r2, #1]!
 80016d4:	f811 5f01 	ldrb.w	r5, [r1, #1]!
 80016d8:	42ab      	cmp	r3, r5
 80016da:	d0f5      	beq.n	80016c8 <Ssd1306::CheckSH1106()+0x84>
 80016dc:	1b5b      	subs	r3, r3, r5
 80016de:	fab3 f383 	clz	r3, r3
 80016e2:	095b      	lsrs	r3, r3, #5
 80016e4:	7463      	strb	r3, [r4, #17]
 80016e6:	b007      	add	sp, #28
 80016e8:	bd30      	pop	{r4, r5, pc}
 80016ea:	bf00      	nop
 80016ec:	08005fba 	stmdaeq	r0, {r1, r3, r4, r5, r7, r8, r9, sl, fp, ip, lr}

080016f0 <Ssd1306::Cls()>:
 80016f0:	e92d 41f0 	stmdb	sp!, {r4, r5, r6, r7, r8, lr}
 80016f4:	4604      	mov	r4, r0
 80016f6:	2600      	movs	r6, #0
 80016f8:	7c45      	ldrb	r5, [r0, #17]
 80016fa:	00ad      	lsls	r5, r5, #2
 80016fc:	b2ed      	uxtb	r5, r5
 80016fe:	f1a5 077f 	sub.w	r7, r5, #127	; 0x7f
 8001702:	f045 0810 	orr.w	r8, r5, #16
 8001706:	b2ff      	uxtb	r7, r7
 8001708:	6963      	ldr	r3, [r4, #20]
 800170a:	4629      	mov	r1, r5
 800170c:	42b3      	cmp	r3, r6
 800170e:	4620      	mov	r0, r4
 8001710:	d80b      	bhi.n	800172a <Ssd1306::Cls()+0x3a>
 8001712:	f7ff ff0b 	bl	800152c <Ssd1306::SendCommand(unsigned char)>
 8001716:	4641      	mov	r1, r8
 8001718:	4620      	mov	r0, r4
 800171a:	f7ff ff07 	bl	800152c <Ssd1306::SendCommand(unsigned char)>
 800171e:	4620      	mov	r0, r4
 8001720:	e8bd 41f0 	ldmia.w	sp!, {r4, r5, r6, r7, r8, lr}
 8001724:	21b0      	movs	r1, #176	; 0xb0
 8001726:	f7ff bf01 	b.w	800152c <Ssd1306::SendCommand(unsigned char)>
 800172a:	f7ff feff 	bl	800152c <Ssd1306::SendCommand(unsigned char)>
 800172e:	4641      	mov	r1, r8
 8001730:	4620      	mov	r0, r4
 8001732:	f7ff fefb 	bl	800152c <Ssd1306::SendCommand(unsigned char)>
 8001736:	f066 014f 	orn	r1, r6, #79	; 0x4f
 800173a:	4620      	mov	r0, r4
 800173c:	b2c9      	uxtb	r1, r1
 800173e:	f7ff fef5 	bl	800152c <Ssd1306::SendCommand(unsigned char)>
 8001742:	7c23      	ldrb	r3, [r4, #16]
 8001744:	b123      	cbz	r3, 8001750 <Ssd1306::Cls()+0x60>
 8001746:	3b01      	subs	r3, #1
 8001748:	2b01      	cmp	r3, #1
 800174a:	d901      	bls.n	8001750 <Ssd1306::Cls()+0x60>
 800174c:	3601      	adds	r6, #1
 800174e:	e7db      	b.n	8001708 <Ssd1306::Cls()+0x18>
 8001750:	f104 0008 	add.w	r0, r4, #8
 8001754:	f7ff fe86 	bl	8001464 <HAL_I2C::Setup()>
 8001758:	4639      	mov	r1, r7
 800175a:	4802      	ldr	r0, [pc, #8]	; (8001764 <Ssd1306::Cls()+0x74>)
 800175c:	f003 fb0e 	bl	8004d7c <gd32_i2c_write>
 8001760:	e7f4      	b.n	800174c <Ssd1306::Cls()+0x5c>
 8001762:	bf00      	nop
 8001764:	20000078 	andcs	r0, r0, r8, ror r0

08001768 <Ssd1306::Start()>:
 8001768:	b5f7      	push	{r0, r1, r2, r4, r5, r6, r7, lr}
 800176a:	7a04      	ldrb	r4, [r0, #8]
 800176c:	68c6      	ldr	r6, [r0, #12]
 800176e:	4605      	mov	r5, r0
 8001770:	4620      	mov	r0, r4
 8001772:	f003 fafd 	bl	8004d70 <gd32_i2c_set_address>
 8001776:	4630      	mov	r0, r6
 8001778:	f003 faf2 	bl	8004d60 <gd32_i2c_set_baudrate>
 800177c:	f1a4 0330 	sub.w	r3, r4, #48	; 0x30
 8001780:	2b07      	cmp	r3, #7
 8001782:	d902      	bls.n	800178a <Ssd1306::Start()+0x22>
 8001784:	3c50      	subs	r4, #80	; 0x50
 8001786:	2c0f      	cmp	r4, #15
 8001788:	d80f      	bhi.n	80017aa <Ssd1306::Start()+0x42>
 800178a:	2101      	movs	r1, #1
 800178c:	f10d 0007 	add.w	r0, sp, #7
 8001790:	f003 fb5a 	bl	8004e48 <gd32_i2c_read>
 8001794:	fab0 f480 	clz	r4, r0
 8001798:	0964      	lsrs	r4, r4, #5
 800179a:	b35c      	cbz	r4, 80017f4 <Ssd1306::Start()+0x8c>
 800179c:	7c2e      	ldrb	r6, [r5, #16]
 800179e:	b14e      	cbz	r6, 80017b4 <Ssd1306::Start()+0x4c>
 80017a0:	3e01      	subs	r6, #1
 80017a2:	2e01      	cmp	r6, #1
 80017a4:	d929      	bls.n	80017fa <Ssd1306::Start()+0x92>
 80017a6:	2400      	movs	r4, #0
 80017a8:	e024      	b.n	80017f4 <Ssd1306::Start()+0x8c>
 80017aa:	2100      	movs	r1, #0
 80017ac:	4608      	mov	r0, r1
 80017ae:	f003 fae5 	bl	8004d7c <gd32_i2c_write>
 80017b2:	e7ef      	b.n	8001794 <Ssd1306::Start()+0x2c>
 80017b4:	4f16      	ldr	r7, [pc, #88]	; (8001810 <Ssd1306::Start()+0xa8>)
 80017b6:	4628      	mov	r0, r5
 80017b8:	f817 1b01 	ldrb.w	r1, [r7], #1
 80017bc:	3601      	adds	r6, #1
 80017be:	f7ff feb5 	bl	800152c <Ssd1306::SendCommand(unsigned char)>
 80017c2:	2e18      	cmp	r6, #24
 80017c4:	d1f7      	bne.n	80017b6 <Ssd1306::Start()+0x4e>
 80017c6:	2300      	movs	r3, #0
 80017c8:	4a12      	ldr	r2, [pc, #72]	; (8001814 <Ssd1306::Start()+0xac>)
 80017ca:	4618      	mov	r0, r3
 80017cc:	4611      	mov	r1, r2
 80017ce:	3301      	adds	r3, #1
 80017d0:	2b86      	cmp	r3, #134	; 0x86
 80017d2:	f802 0b01 	strb.w	r0, [r2], #1
 80017d6:	d1fa      	bne.n	80017ce <Ssd1306::Start()+0x66>
 80017d8:	2340      	movs	r3, #64	; 0x40
 80017da:	4628      	mov	r0, r5
 80017dc:	700b      	strb	r3, [r1, #0]
 80017de:	f7ff ff31 	bl	8001644 <Ssd1306::CheckSH1106()>
 80017e2:	4628      	mov	r0, r5
 80017e4:	f7ff ff84 	bl	80016f0 <Ssd1306::Cls()>
 80017e8:	21af      	movs	r1, #175	; 0xaf
 80017ea:	4628      	mov	r0, r5
 80017ec:	f7ff fe9e 	bl	800152c <Ssd1306::SendCommand(unsigned char)>
 80017f0:	2301      	movs	r3, #1
 80017f2:	71eb      	strb	r3, [r5, #7]
 80017f4:	4620      	mov	r0, r4
 80017f6:	b003      	add	sp, #12
 80017f8:	bdf0      	pop	{r4, r5, r6, r7, pc}
 80017fa:	2600      	movs	r6, #0
 80017fc:	4f06      	ldr	r7, [pc, #24]	; (8001818 <Ssd1306::Start()+0xb0>)
 80017fe:	4628      	mov	r0, r5
 8001800:	f817 1b01 	ldrb.w	r1, [r7], #1
 8001804:	3601      	adds	r6, #1
 8001806:	f7ff fe91 	bl	800152c <Ssd1306::SendCommand(unsigned char)>
 800180a:	2e18      	cmp	r6, #24
 800180c:	d1f7      	bne.n	80017fe <Ssd1306::Start()+0x96>
 800180e:	e7da      	b.n	80017c6 <Ssd1306::Start()+0x5e>
 8001810:	08006278 	stmdaeq	r0, {r3, r4, r5, r6, r9, sp, lr}
 8001814:	20000078 	andcs	r0, r0, r8, ror r0
 8001818:	08006260 	stmdaeq	r0, {r5, r6, r9, sp, lr}

0800181c <display::timeout::gpio_init()>:
 800181c:	4770      	bx	lr
	...

08001820 <SpiFlashStore::GetStoreOffset(spiflashstore::Store)>:
 8001820:	2300      	movs	r3, #0
 8001822:	2020      	movs	r0, #32
 8001824:	b510      	push	{r4, lr}
 8001826:	4a04      	ldr	r2, [pc, #16]	; (8001838 <SpiFlashStore::GetStoreOffset(spiflashstore::Store)+0x18>)
 8001828:	428b      	cmp	r3, r1
 800182a:	d100      	bne.n	800182e <SpiFlashStore::GetStoreOffset(spiflashstore::Store)+0xe>
 800182c:	bd10      	pop	{r4, pc}
 800182e:	f852 4b04 	ldr.w	r4, [r2], #4
 8001832:	3301      	adds	r3, #1
 8001834:	4420      	add	r0, r4
 8001836:	e7f7      	b.n	8001828 <SpiFlashStore::GetStoreOffset(spiflashstore::Store)+0x8>
 8001838:	08006320 	stmdaeq	r0, {r5, r8, r9, sp, lr}

0800183c <SpiFlashStore::Init()>:
 800183c:	e92d 43f8 	stmdb	sp!, {r3, r4, r5, r6, r7, r8, r9, lr}
 8001840:	4607      	mov	r7, r0
 8001842:	f000 ff17 	bl	8002674 <spi_flash_get_sector_size>
 8001846:	f5b0 5f80 	cmp.w	r0, #4096	; 0x1000
 800184a:	4605      	mov	r5, r0
 800184c:	d003      	beq.n	8001856 <SpiFlashStore::Init()+0x1a>
 800184e:	2500      	movs	r5, #0
 8001850:	4628      	mov	r0, r5
 8001852:	e8bd 83f8 	ldmia.w	sp!, {r3, r4, r5, r6, r7, r8, r9, pc}
 8001856:	f000 ff05 	bl	8002664 <spi_flash_get_size>
 800185a:	4b39      	ldr	r3, [pc, #228]	; (8001940 <SpiFlashStore::Init()+0x104>)
 800185c:	f5a0 5080 	sub.w	r0, r0, #4096	; 0x1000
 8001860:	f3c0 060b 	ubfx	r6, r0, #0, #12
 8001864:	6018      	str	r0, [r3, #0]
 8001866:	2e00      	cmp	r6, #0
 8001868:	d1f1      	bne.n	800184e <SpiFlashStore::Init()+0x12>
 800186a:	4c36      	ldr	r4, [pc, #216]	; (8001944 <SpiFlashStore::Init()+0x108>)
 800186c:	4629      	mov	r1, r5
 800186e:	4622      	mov	r2, r4
 8001870:	f000 ff05 	bl	800267e <spi_flash_cmd_read_fast>
 8001874:	7823      	ldrb	r3, [r4, #0]
 8001876:	2b41      	cmp	r3, #65	; 0x41
 8001878:	bf1c      	itt	ne
 800187a:	2341      	movne	r3, #65	; 0x41
 800187c:	7023      	strbne	r3, [r4, #0]
 800187e:	7863      	ldrb	r3, [r4, #1]
 8001880:	bf14      	ite	ne
 8001882:	4635      	movne	r5, r6
 8001884:	2501      	moveq	r5, #1
 8001886:	2b76      	cmp	r3, #118	; 0x76
 8001888:	bf1c      	itt	ne
 800188a:	2376      	movne	r3, #118	; 0x76
 800188c:	7063      	strbne	r3, [r4, #1]
 800188e:	78a3      	ldrb	r3, [r4, #2]
 8001890:	bf18      	it	ne
 8001892:	2500      	movne	r5, #0
 8001894:	2b56      	cmp	r3, #86	; 0x56
 8001896:	bf1c      	itt	ne
 8001898:	2356      	movne	r3, #86	; 0x56
 800189a:	70a3      	strbne	r3, [r4, #2]
 800189c:	78e3      	ldrb	r3, [r4, #3]
 800189e:	bf18      	it	ne
 80018a0:	2500      	movne	r5, #0
 80018a2:	2b10      	cmp	r3, #16
 80018a4:	d01f      	beq.n	80018e6 <SpiFlashStore::Init()+0xaa>
 80018a6:	2310      	movs	r3, #16
 80018a8:	70e3      	strb	r3, [r4, #3]
 80018aa:	2201      	movs	r2, #1
 80018ac:	2500      	movs	r5, #0
 80018ae:	f04f 09ff 	mov.w	r9, #255	; 0xff
 80018b2:	4b25      	ldr	r3, [pc, #148]	; (8001948 <SpiFlashStore::Init()+0x10c>)
 80018b4:	f8df 8094 	ldr.w	r8, [pc, #148]	; 800194c <SpiFlashStore::Init()+0x110>
 80018b8:	701a      	strb	r2, [r3, #0]
 80018ba:	4631      	mov	r1, r6
 80018bc:	4638      	mov	r0, r7
 80018be:	f7ff ffaf 	bl	8001820 <SpiFlashStore::GetStoreOffset(spiflashstore::Store)>
 80018c2:	1823      	adds	r3, r4, r0
 80018c4:	5425      	strb	r5, [r4, r0]
 80018c6:	705d      	strb	r5, [r3, #1]
 80018c8:	709d      	strb	r5, [r3, #2]
 80018ca:	70dd      	strb	r5, [r3, #3]
 80018cc:	f858 3b04 	ldr.w	r3, [r8], #4
 80018d0:	1d02      	adds	r2, r0, #4
 80018d2:	4403      	add	r3, r0
 80018d4:	429a      	cmp	r2, r3
 80018d6:	d32f      	bcc.n	8001938 <SpiFlashStore::Init()+0xfc>
 80018d8:	3601      	adds	r6, #1
 80018da:	2e1c      	cmp	r6, #28
 80018dc:	d1ed      	bne.n	80018ba <SpiFlashStore::Init()+0x7e>
 80018de:	2501      	movs	r5, #1
 80018e0:	4b1b      	ldr	r3, [pc, #108]	; (8001950 <SpiFlashStore::Init()+0x114>)
 80018e2:	601d      	str	r5, [r3, #0]
 80018e4:	e7b4      	b.n	8001850 <SpiFlashStore::Init()+0x14>
 80018e6:	2d00      	cmp	r5, #0
 80018e8:	d0df      	beq.n	80018aa <SpiFlashStore::Init()+0x6e>
 80018ea:	f04f 0900 	mov.w	r9, #0
 80018ee:	46c8      	mov	r8, r9
 80018f0:	4631      	mov	r1, r6
 80018f2:	4638      	mov	r0, r7
 80018f4:	f7ff ff94 	bl	8001820 <SpiFlashStore::GetStoreOffset(spiflashstore::Store)>
 80018f8:	5c23      	ldrb	r3, [r4, r0]
 80018fa:	2bff      	cmp	r3, #255	; 0xff
 80018fc:	d112      	bne.n	8001924 <SpiFlashStore::Init()+0xe8>
 80018fe:	1823      	adds	r3, r4, r0
 8001900:	785a      	ldrb	r2, [r3, #1]
 8001902:	2aff      	cmp	r2, #255	; 0xff
 8001904:	d10e      	bne.n	8001924 <SpiFlashStore::Init()+0xe8>
 8001906:	789a      	ldrb	r2, [r3, #2]
 8001908:	2aff      	cmp	r2, #255	; 0xff
 800190a:	d10b      	bne.n	8001924 <SpiFlashStore::Init()+0xe8>
 800190c:	78da      	ldrb	r2, [r3, #3]
 800190e:	2aff      	cmp	r2, #255	; 0xff
 8001910:	d108      	bne.n	8001924 <SpiFlashStore::Init()+0xe8>
 8001912:	46a9      	mov	r9, r5
 8001914:	f804 8000 	strb.w	r8, [r4, r0]
 8001918:	f883 8001 	strb.w	r8, [r3, #1]
 800191c:	f883 8002 	strb.w	r8, [r3, #2]
 8001920:	f883 8003 	strb.w	r8, [r3, #3]
 8001924:	3601      	adds	r6, #1
 8001926:	2e1c      	cmp	r6, #28
 8001928:	d1e2      	bne.n	80018f0 <SpiFlashStore::Init()+0xb4>
 800192a:	f1b9 0f00 	cmp.w	r9, #0
 800192e:	d08f      	beq.n	8001850 <SpiFlashStore::Init()+0x14>
 8001930:	2201      	movs	r2, #1
 8001932:	4b07      	ldr	r3, [pc, #28]	; (8001950 <SpiFlashStore::Init()+0x114>)
 8001934:	601a      	str	r2, [r3, #0]
 8001936:	e78b      	b.n	8001850 <SpiFlashStore::Init()+0x14>
 8001938:	f804 9002 	strb.w	r9, [r4, r2]
 800193c:	3201      	adds	r2, #1
 800193e:	e7c9      	b.n	80018d4 <SpiFlashStore::Init()+0x98>
 8001940:	20001104 	andcs	r1, r0, r4, lsl #2
 8001944:	20000104 	andcs	r0, r0, r4, lsl #2
 8001948:	20001118 	andcs	r1, r0, r8, lsl r1
 800194c:	08006320 	stmdaeq	r0, {r5, r8, r9, sp, lr}
 8001950:	20001110 	andcs	r1, r0, r0, lsl r1

08001954 <SpiFlashStore::SpiFlashStore()>:
 8001954:	2200      	movs	r2, #0
 8001956:	b5f8      	push	{r3, r4, r5, r6, r7, lr}
 8001958:	4b15      	ldr	r3, [pc, #84]	; (80019b0 <SpiFlashStore::SpiFlashStore()+0x5c>)
 800195a:	4604      	mov	r4, r0
 800195c:	6018      	str	r0, [r3, #0]
 800195e:	4611      	mov	r1, r2
 8001960:	4610      	mov	r0, r2
 8001962:	f000 fe8a 	bl	800267a <spi_flash_probe>
 8001966:	2800      	cmp	r0, #0
 8001968:	4f12      	ldr	r7, [pc, #72]	; (80019b4 <SpiFlashStore::SpiFlashStore()+0x60>)
 800196a:	db11      	blt.n	8001990 <SpiFlashStore::SpiFlashStore()+0x3c>
 800196c:	f000 fe76 	bl	800265c <spi_flash_get_name>
 8001970:	4605      	mov	r5, r0
 8001972:	f000 fe7f 	bl	8002674 <spi_flash_get_sector_size>
 8001976:	4606      	mov	r6, r0
 8001978:	f000 fe74 	bl	8002664 <spi_flash_get_size>
 800197c:	4632      	mov	r2, r6
 800197e:	4603      	mov	r3, r0
 8001980:	4629      	mov	r1, r5
 8001982:	480d      	ldr	r0, [pc, #52]	; (80019b8 <SpiFlashStore::SpiFlashStore()+0x64>)
 8001984:	f7ff fb0a 	bl	8000f9c <printf>
 8001988:	4620      	mov	r0, r4
 800198a:	f7ff ff57 	bl	800183c <SpiFlashStore::Init()>
 800198e:	7038      	strb	r0, [r7, #0]
 8001990:	783b      	ldrb	r3, [r7, #0]
 8001992:	b153      	cbz	r3, 80019aa <SpiFlashStore::SpiFlashStore()+0x56>
 8001994:	2320      	movs	r3, #32
 8001996:	2200      	movs	r2, #0
 8001998:	4908      	ldr	r1, [pc, #32]	; (80019bc <SpiFlashStore::SpiFlashStore()+0x68>)
 800199a:	f851 0b04 	ldr.w	r0, [r1], #4
 800199e:	3201      	adds	r2, #1
 80019a0:	2a1c      	cmp	r2, #28
 80019a2:	4403      	add	r3, r0
 80019a4:	d1f9      	bne.n	800199a <SpiFlashStore::SpiFlashStore()+0x46>
 80019a6:	4a06      	ldr	r2, [pc, #24]	; (80019c0 <SpiFlashStore::SpiFlashStore()+0x6c>)
 80019a8:	6013      	str	r3, [r2, #0]
 80019aa:	4620      	mov	r0, r4
 80019ac:	bdf8      	pop	{r3, r4, r5, r6, r7, pc}
 80019ae:	bf00      	nop
 80019b0:	20001114 	andcs	r1, r0, r4, lsl r1
 80019b4:	20001108 	andcs	r1, r0, r8, lsl #2
 80019b8:	080062d0 	stmdaeq	r0, {r4, r6, r7, r9, sp, lr}
 80019bc:	08006320 	stmdaeq	r0, {r5, r8, r9, sp, lr}
 80019c0:	2000110c 	andcs	r1, r0, ip, lsl #2

080019c4 <SpiFlashStore::ResetSetList(spiflashstore::Store)>:
 80019c4:	b508      	push	{r3, lr}
 80019c6:	f7ff ff2b 	bl	8001820 <SpiFlashStore::GetStoreOffset(spiflashstore::Store)>
 80019ca:	2300      	movs	r3, #0
 80019cc:	4904      	ldr	r1, [pc, #16]	; (80019e0 <SpiFlashStore::ResetSetList(spiflashstore::Store)+0x1c>)
 80019ce:	1842      	adds	r2, r0, r1
 80019d0:	540b      	strb	r3, [r1, r0]
 80019d2:	7053      	strb	r3, [r2, #1]
 80019d4:	7093      	strb	r3, [r2, #2]
 80019d6:	70d3      	strb	r3, [r2, #3]
 80019d8:	2201      	movs	r2, #1
 80019da:	4b02      	ldr	r3, [pc, #8]	; (80019e4 <SpiFlashStore::ResetSetList(spiflashstore::Store)+0x20>)
 80019dc:	601a      	str	r2, [r3, #0]
 80019de:	bd08      	pop	{r3, pc}
 80019e0:	20000104 	andcs	r0, r0, r4, lsl #2
 80019e4:	20001110 	andcs	r1, r0, r0, lsl r1

080019e8 <SpiFlashStore::Update(spiflashstore::Store, unsigned int, void const*, unsigned int, unsigned int, unsigned int)>:
 80019e8:	e92d 41f0 	stmdb	sp!, {r4, r5, r6, r7, r8, lr}
 80019ec:	461c      	mov	r4, r3
 80019ee:	4b17      	ldr	r3, [pc, #92]	; (8001a4c <SpiFlashStore::Update(spiflashstore::Store, unsigned int, void const*, unsigned int, unsigned int, unsigned int)+0x64>)
 80019f0:	4615      	mov	r5, r2
 80019f2:	781f      	ldrb	r7, [r3, #0]
 80019f4:	9e07      	ldr	r6, [sp, #28]
 80019f6:	b1df      	cbz	r7, 8001a30 <SpiFlashStore::Update(spiflashstore::Store, unsigned int, void const*, unsigned int, unsigned int, unsigned int)+0x48>
 80019f8:	f7ff ff12 	bl	8001820 <SpiFlashStore::GetStoreOffset(spiflashstore::Store)>
 80019fc:	f04f 0c00 	mov.w	ip, #0
 8001a00:	4a13      	ldr	r2, [pc, #76]	; (8001a50 <SpiFlashStore::Update(spiflashstore::Store, unsigned int, void const*, unsigned int, unsigned int, unsigned int)+0x68>)
 8001a02:	1941      	adds	r1, r0, r5
 8001a04:	1e63      	subs	r3, r4, #1
 8001a06:	9c06      	ldr	r4, [sp, #24]
 8001a08:	4411      	add	r1, r2
 8001a0a:	440c      	add	r4, r1
 8001a0c:	42a1      	cmp	r1, r4
 8001a0e:	d111      	bne.n	8001a34 <SpiFlashStore::Update(spiflashstore::Store, unsigned int, void const*, unsigned int, unsigned int, unsigned int)+0x4c>
 8001a10:	f1bc 0f00 	cmp.w	ip, #0
 8001a14:	d00c      	beq.n	8001a30 <SpiFlashStore::Update(spiflashstore::Store, unsigned int, void const*, unsigned int, unsigned int, unsigned int)+0x48>
 8001a16:	4b0f      	ldr	r3, [pc, #60]	; (8001a54 <SpiFlashStore::Update(spiflashstore::Store, unsigned int, void const*, unsigned int, unsigned int, unsigned int)+0x6c>)
 8001a18:	6819      	ldr	r1, [r3, #0]
 8001a1a:	2902      	cmp	r1, #2
 8001a1c:	d001      	beq.n	8001a22 <SpiFlashStore::Update(spiflashstore::Store, unsigned int, void const*, unsigned int, unsigned int, unsigned int)+0x3a>
 8001a1e:	2101      	movs	r1, #1
 8001a20:	6019      	str	r1, [r3, #0]
 8001a22:	b12d      	cbz	r5, 8001a30 <SpiFlashStore::Update(spiflashstore::Store, unsigned int, void const*, unsigned int, unsigned int, unsigned int)+0x48>
 8001a24:	b126      	cbz	r6, 8001a30 <SpiFlashStore::Update(spiflashstore::Store, unsigned int, void const*, unsigned int, unsigned int, unsigned int)+0x48>
 8001a26:	9b08      	ldr	r3, [sp, #32]
 8001a28:	4403      	add	r3, r0
 8001a2a:	58d1      	ldr	r1, [r2, r3]
 8001a2c:	4331      	orrs	r1, r6
 8001a2e:	50d1      	str	r1, [r2, r3]
 8001a30:	e8bd 81f0 	ldmia.w	sp!, {r4, r5, r6, r7, r8, pc}
 8001a34:	f891 8000 	ldrb.w	r8, [r1]
 8001a38:	f813 ef01 	ldrb.w	lr, [r3, #1]!
 8001a3c:	3101      	adds	r1, #1
 8001a3e:	45f0      	cmp	r8, lr
 8001a40:	bf1c      	itt	ne
 8001a42:	f801 ec01 	strbne.w	lr, [r1, #-1]
 8001a46:	46bc      	movne	ip, r7
 8001a48:	e7e0      	b.n	8001a0c <SpiFlashStore::Update(spiflashstore::Store, unsigned int, void const*, unsigned int, unsigned int, unsigned int)+0x24>
 8001a4a:	bf00      	nop
 8001a4c:	20001108 	andcs	r1, r0, r8, lsl #2
 8001a50:	20000104 	andcs	r0, r0, r4, lsl #2
 8001a54:	20001110 	andcs	r1, r0, r0, lsl r1

08001a58 <SpiFlashStore::Copy(spiflashstore::Store, void*, unsigned int, unsigned int)>:
 8001a58:	e92d 43f0 	stmdb	sp!, {r4, r5, r6, r7, r8, r9, lr}
 8001a5c:	461d      	mov	r5, r3
 8001a5e:	4b15      	ldr	r3, [pc, #84]	; (8001ab4 <SpiFlashStore::Copy(spiflashstore::Store, void*, unsigned int, unsigned int)+0x5c>)
 8001a60:	b085      	sub	sp, #20
 8001a62:	781b      	ldrb	r3, [r3, #0]
 8001a64:	4607      	mov	r7, r0
 8001a66:	4688      	mov	r8, r1
 8001a68:	4614      	mov	r4, r2
 8001a6a:	f8dd 9030 	ldr.w	r9, [sp, #48]	; 0x30
 8001a6e:	b1eb      	cbz	r3, 8001aac <SpiFlashStore::Copy(spiflashstore::Store, void*, unsigned int, unsigned int)+0x54>
 8001a70:	f7ff fed6 	bl	8001820 <SpiFlashStore::GetStoreOffset(spiflashstore::Store)>
 8001a74:	4910      	ldr	r1, [pc, #64]	; (8001ab8 <SpiFlashStore::Copy(spiflashstore::Store, void*, unsigned int, unsigned int)+0x60>)
 8001a76:	4a11      	ldr	r2, [pc, #68]	; (8001abc <SpiFlashStore::Copy(spiflashstore::Store, void*, unsigned int, unsigned int)+0x64>)
 8001a78:	7809      	ldrb	r1, [r1, #0]
 8001a7a:	eb00 0609 	add.w	r6, r0, r9
 8001a7e:	18b3      	adds	r3, r6, r2
 8001a80:	b951      	cbnz	r1, 8001a98 <SpiFlashStore::Copy(spiflashstore::Store, void*, unsigned int, unsigned int)+0x40>
 8001a82:	5992      	ldr	r2, [r2, r6]
 8001a84:	b142      	cbz	r2, 8001a98 <SpiFlashStore::Copy(spiflashstore::Store, void*, unsigned int, unsigned int)+0x40>
 8001a86:	3c01      	subs	r4, #1
 8001a88:	441d      	add	r5, r3
 8001a8a:	429d      	cmp	r5, r3
 8001a8c:	d00e      	beq.n	8001aac <SpiFlashStore::Copy(spiflashstore::Store, void*, unsigned int, unsigned int)+0x54>
 8001a8e:	f813 2b01 	ldrb.w	r2, [r3], #1
 8001a92:	f804 2f01 	strb.w	r2, [r4, #1]!
 8001a96:	e7f8      	b.n	8001a8a <SpiFlashStore::Copy(spiflashstore::Store, void*, unsigned int, unsigned int)+0x32>
 8001a98:	2300      	movs	r3, #0
 8001a9a:	464a      	mov	r2, r9
 8001a9c:	e9cd 3301 	strd	r3, r3, [sp, #4]
 8001aa0:	4641      	mov	r1, r8
 8001aa2:	4623      	mov	r3, r4
 8001aa4:	4638      	mov	r0, r7
 8001aa6:	9500      	str	r5, [sp, #0]
 8001aa8:	f7ff ff9e 	bl	80019e8 <SpiFlashStore::Update(spiflashstore::Store, unsigned int, void const*, unsigned int, unsigned int, unsigned int)>
 8001aac:	b005      	add	sp, #20
 8001aae:	e8bd 83f0 	ldmia.w	sp!, {r4, r5, r6, r7, r8, r9, pc}
 8001ab2:	bf00      	nop
 8001ab4:	20001108 	andcs	r1, r0, r8, lsl #2
 8001ab8:	20001118 	andcs	r1, r0, r8, lsl r1
 8001abc:	20000104 	andcs	r0, r0, r4, lsl #2

08001ac0 <SpiFlashStore::Flash()>:
 8001ac0:	b570      	push	{r4, r5, r6, lr}
 8001ac2:	4e10      	ldr	r6, [pc, #64]	; (8001b04 <SpiFlashStore::Flash()+0x44>)
 8001ac4:	6834      	ldr	r4, [r6, #0]
 8001ac6:	b134      	cbz	r4, 8001ad6 <SpiFlashStore::Flash()+0x16>
 8001ac8:	4b0f      	ldr	r3, [pc, #60]	; (8001b08 <SpiFlashStore::Flash()+0x48>)
 8001aca:	681d      	ldr	r5, [r3, #0]
 8001acc:	b92d      	cbnz	r5, 8001ada <SpiFlashStore::Flash()+0x1a>
 8001ace:	480f      	ldr	r0, [pc, #60]	; (8001b0c <SpiFlashStore::Flash()+0x4c>)
 8001ad0:	f7ff fa64 	bl	8000f9c <printf>
 8001ad4:	2400      	movs	r4, #0
 8001ad6:	4620      	mov	r0, r4
 8001ad8:	bd70      	pop	{r4, r5, r6, pc}
 8001ada:	2c01      	cmp	r4, #1
 8001adc:	d00a      	beq.n	8001af4 <SpiFlashStore::Flash()+0x34>
 8001ade:	2c02      	cmp	r4, #2
 8001ae0:	d1f8      	bne.n	8001ad4 <SpiFlashStore::Flash()+0x14>
 8001ae2:	2400      	movs	r4, #0
 8001ae4:	4b0a      	ldr	r3, [pc, #40]	; (8001b10 <SpiFlashStore::Flash()+0x50>)
 8001ae6:	4628      	mov	r0, r5
 8001ae8:	4a0a      	ldr	r2, [pc, #40]	; (8001b14 <SpiFlashStore::Flash()+0x54>)
 8001aea:	6819      	ldr	r1, [r3, #0]
 8001aec:	f000 fdd3 	bl	8002696 <spi_flash_cmd_write_multi>
 8001af0:	6034      	str	r4, [r6, #0]
 8001af2:	e7f0      	b.n	8001ad6 <SpiFlashStore::Flash()+0x16>
 8001af4:	f44f 5180 	mov.w	r1, #4096	; 0x1000
 8001af8:	4628      	mov	r0, r5
 8001afa:	f000 fdec 	bl	80026d6 <spi_flash_cmd_erase>
 8001afe:	2302      	movs	r3, #2
 8001b00:	6033      	str	r3, [r6, #0]
 8001b02:	e7e8      	b.n	8001ad6 <SpiFlashStore::Flash()+0x16>
 8001b04:	20001110 	andcs	r1, r0, r0, lsl r1
 8001b08:	20001104 	andcs	r1, r0, r4, lsl #2
 8001b0c:	08006300 	stmdaeq	r0, {r8, r9, sp, lr}
 8001b10:	2000110c 	andcs	r1, r0, ip, lsl #2
 8001b14:	20000104 	andcs	r0, r0, r4, lsl #2

08001b18 <StoreNetwork::~StoreNetwork()>:
 8001b18:	4770      	bx	lr

08001b1a <non-virtual thunk to StoreNetwork::~StoreNetwork()>:
 8001b1a:	3804      	subs	r0, #4
 8001b1c:	4770      	bx	lr
	...

08001b20 <StoreNetwork::Update(networkparams::Params const*)>:
 8001b20:	b51f      	push	{r0, r1, r2, r3, r4, lr}
 8001b22:	2200      	movs	r2, #0
 8001b24:	460b      	mov	r3, r1
 8001b26:	215e      	movs	r1, #94	; 0x5e
 8001b28:	e9cd 2201 	strd	r2, r2, [sp, #4]
 8001b2c:	4804      	ldr	r0, [pc, #16]	; (8001b40 <StoreNetwork::Update(networkparams::Params const*)+0x20>)
 8001b2e:	9100      	str	r1, [sp, #0]
 8001b30:	6800      	ldr	r0, [r0, #0]
 8001b32:	4611      	mov	r1, r2
 8001b34:	f7ff ff58 	bl	80019e8 <SpiFlashStore::Update(spiflashstore::Store, unsigned int, void const*, unsigned int, unsigned int, unsigned int)>
 8001b38:	b005      	add	sp, #20
 8001b3a:	f85d fb04 	ldr.w	pc, [sp], #4
 8001b3e:	bf00      	nop
 8001b40:	20001114 	andcs	r1, r0, r4, lsl r1

08001b44 <StoreNetwork::SaveDhcp(bool)>:
 8001b44:	b57f      	push	{r0, r1, r2, r3, r4, r5, r6, lr}
 8001b46:	2301      	movs	r3, #1
 8001b48:	f88d 1017 	strb.w	r1, [sp, #23]
 8001b4c:	2100      	movs	r1, #0
 8001b4e:	e9cd 3101 	strd	r3, r1, [sp, #4]
 8001b52:	4805      	ldr	r0, [pc, #20]	; (8001b68 <StoreNetwork::SaveDhcp(bool)+0x24>)
 8001b54:	9300      	str	r3, [sp, #0]
 8001b56:	2214      	movs	r2, #20
 8001b58:	6800      	ldr	r0, [r0, #0]
 8001b5a:	f10d 0317 	add.w	r3, sp, #23
 8001b5e:	f7ff ff43 	bl	80019e8 <SpiFlashStore::Update(spiflashstore::Store, unsigned int, void const*, unsigned int, unsigned int, unsigned int)>
 8001b62:	b007      	add	sp, #28
 8001b64:	f85d fb04 	ldr.w	pc, [sp], #4
 8001b68:	20001114 	andcs	r1, r0, r4, lsl r1

08001b6c <non-virtual thunk to StoreNetwork::SaveDhcp(bool)>:
 8001b6c:	f1a0 0004 	sub.w	r0, r0, #4
 8001b70:	e7e8      	b.n	8001b44 <StoreNetwork::SaveDhcp(bool)>
 8001b72:	bf00      	nop

08001b74 <StoreNetwork::SaveGatewayIp(unsigned int)>:
 8001b74:	b57f      	push	{r0, r1, r2, r3, r4, r5, r6, lr}
 8001b76:	2308      	movs	r3, #8
 8001b78:	9105      	str	r1, [sp, #20]
 8001b7a:	2100      	movs	r1, #0
 8001b7c:	e9cd 3101 	strd	r3, r1, [sp, #4]
 8001b80:	2304      	movs	r3, #4
 8001b82:	4805      	ldr	r0, [pc, #20]	; (8001b98 <StoreNetwork::SaveGatewayIp(unsigned int)+0x24>)
 8001b84:	9300      	str	r3, [sp, #0]
 8001b86:	220c      	movs	r2, #12
 8001b88:	6800      	ldr	r0, [r0, #0]
 8001b8a:	ab05      	add	r3, sp, #20
 8001b8c:	f7ff ff2c 	bl	80019e8 <SpiFlashStore::Update(spiflashstore::Store, unsigned int, void const*, unsigned int, unsigned int, unsigned int)>
 8001b90:	b007      	add	sp, #28
 8001b92:	f85d fb04 	ldr.w	pc, [sp], #4
 8001b96:	bf00      	nop
 8001b98:	20001114 	andcs	r1, r0, r4, lsl r1

08001b9c <non-virtual thunk to StoreNetwork::SaveGatewayIp(unsigned int)>:
 8001b9c:	f1a0 0004 	sub.w	r0, r0, #4
 8001ba0:	e7e8      	b.n	8001b74 <StoreNetwork::SaveGatewayIp(unsigned int)>
 8001ba2:	bf00      	nop

08001ba4 <StoreNetwork::SaveNetMask(unsigned int)>:
 8001ba4:	b57f      	push	{r0, r1, r2, r3, r4, r5, r6, lr}
 8001ba6:	2304      	movs	r3, #4
 8001ba8:	9105      	str	r1, [sp, #20]
 8001baa:	2100      	movs	r1, #0
 8001bac:	e9cd 3101 	strd	r3, r1, [sp, #4]
 8001bb0:	4804      	ldr	r0, [pc, #16]	; (8001bc4 <StoreNetwork::SaveNetMask(unsigned int)+0x20>)
 8001bb2:	9300      	str	r3, [sp, #0]
 8001bb4:	2208      	movs	r2, #8
 8001bb6:	6800      	ldr	r0, [r0, #0]
 8001bb8:	ab05      	add	r3, sp, #20
 8001bba:	f7ff ff15 	bl	80019e8 <SpiFlashStore::Update(spiflashstore::Store, unsigned int, void const*, unsigned int, unsigned int, unsigned int)>
 8001bbe:	b007      	add	sp, #28
 8001bc0:	f85d fb04 	ldr.w	pc, [sp], #4
 8001bc4:	20001114 	andcs	r1, r0, r4, lsl r1

08001bc8 <non-virtual thunk to StoreNetwork::SaveNetMask(unsigned int)>:
 8001bc8:	f1a0 0004 	sub.w	r0, r0, #4
 8001bcc:	e7ea      	b.n	8001ba4 <StoreNetwork::SaveNetMask(unsigned int)>
 8001bce:	bf00      	nop

08001bd0 <StoreNetwork::SaveIp(unsigned int)>:
 8001bd0:	b57f      	push	{r0, r1, r2, r3, r4, r5, r6, lr}
 8001bd2:	2302      	movs	r3, #2
 8001bd4:	9105      	str	r1, [sp, #20]
 8001bd6:	2100      	movs	r1, #0
 8001bd8:	2204      	movs	r2, #4
 8001bda:	e9cd 3101 	strd	r3, r1, [sp, #4]
 8001bde:	4804      	ldr	r0, [pc, #16]	; (8001bf0 <StoreNetwork::SaveIp(unsigned int)+0x20>)
 8001be0:	9200      	str	r2, [sp, #0]
 8001be2:	6800      	ldr	r0, [r0, #0]
 8001be4:	ab05      	add	r3, sp, #20
 8001be6:	f7ff feff 	bl	80019e8 <SpiFlashStore::Update(spiflashstore::Store, unsigned int, void const*, unsigned int, unsigned int, unsigned int)>
 8001bea:	b007      	add	sp, #28
 8001bec:	f85d fb04 	ldr.w	pc, [sp], #4
 8001bf0:	20001114 	andcs	r1, r0, r4, lsl r1

08001bf4 <non-virtual thunk to StoreNetwork::SaveIp(unsigned int)>:
 8001bf4:	f1a0 0004 	sub.w	r0, r0, #4
 8001bf8:	e7ea      	b.n	8001bd0 <StoreNetwork::SaveIp(unsigned int)>
 8001bfa:	bf00      	nop

08001bfc <StoreNetwork::SaveHostName(char const*, unsigned int)>:
 8001bfc:	b51f      	push	{r0, r1, r2, r3, r4, lr}
 8001bfe:	460b      	mov	r3, r1
 8001c00:	2020      	movs	r0, #32
 8001c02:	2100      	movs	r1, #0
 8001c04:	2a40      	cmp	r2, #64	; 0x40
 8001c06:	bf28      	it	cs
 8001c08:	2240      	movcs	r2, #64	; 0x40
 8001c0a:	e9cd 0101 	strd	r0, r1, [sp, #4]
 8001c0e:	4804      	ldr	r0, [pc, #16]	; (8001c20 <StoreNetwork::SaveHostName(char const*, unsigned int)+0x24>)
 8001c10:	9200      	str	r2, [sp, #0]
 8001c12:	6800      	ldr	r0, [r0, #0]
 8001c14:	2215      	movs	r2, #21
 8001c16:	f7ff fee7 	bl	80019e8 <SpiFlashStore::Update(spiflashstore::Store, unsigned int, void const*, unsigned int, unsigned int, unsigned int)>
 8001c1a:	b005      	add	sp, #20
 8001c1c:	f85d fb04 	ldr.w	pc, [sp], #4
 8001c20:	20001114 	andcs	r1, r0, r4, lsl r1

08001c24 <non-virtual thunk to StoreNetwork::SaveHostName(char const*, unsigned int)>:
 8001c24:	f1a0 0004 	sub.w	r0, r0, #4
 8001c28:	e7e8      	b.n	8001bfc <StoreNetwork::SaveHostName(char const*, unsigned int)>
 8001c2a:	bf00      	nop

08001c2c <StoreNetwork::~StoreNetwork()>:
 8001c2c:	b510      	push	{r4, lr}
 8001c2e:	4604      	mov	r4, r0
 8001c30:	f002 f882 	bl	8003d38 <operator delete(void*)>
 8001c34:	4620      	mov	r0, r4
 8001c36:	bd10      	pop	{r4, pc}

08001c38 <non-virtual thunk to StoreNetwork::~StoreNetwork()>:
 8001c38:	f1a0 0004 	sub.w	r0, r0, #4
 8001c3c:	e7f6      	b.n	8001c2c <StoreNetwork::~StoreNetwork()>
	...

08001c40 <StoreNetwork::Copy(networkparams::Params*)>:
 8001c40:	b507      	push	{r0, r1, r2, lr}
 8001c42:	460a      	mov	r2, r1
 8001c44:	2100      	movs	r1, #0
 8001c46:	4804      	ldr	r0, [pc, #16]	; (8001c58 <StoreNetwork::Copy(networkparams::Params*)+0x18>)
 8001c48:	9100      	str	r1, [sp, #0]
 8001c4a:	235e      	movs	r3, #94	; 0x5e
 8001c4c:	6800      	ldr	r0, [r0, #0]
 8001c4e:	f7ff ff03 	bl	8001a58 <SpiFlashStore::Copy(spiflashstore::Store, void*, unsigned int, unsigned int)>
 8001c52:	b003      	add	sp, #12
 8001c54:	f85d fb04 	ldr.w	pc, [sp], #4
 8001c58:	20001114 	andcs	r1, r0, r4, lsl r1

08001c5c <StoreNetwork::StoreNetwork()>:
 8001c5c:	4a03      	ldr	r2, [pc, #12]	; (8001c6c <StoreNetwork::StoreNetwork()+0x10>)
 8001c5e:	6002      	str	r2, [r0, #0]
 8001c60:	322c      	adds	r2, #44	; 0x2c
 8001c62:	6042      	str	r2, [r0, #4]
 8001c64:	4a02      	ldr	r2, [pc, #8]	; (8001c70 <StoreNetwork::StoreNetwork()+0x14>)
 8001c66:	6010      	str	r0, [r2, #0]
 8001c68:	4770      	bx	lr
 8001c6a:	bf00      	nop
 8001c6c:	08006398 	stmdaeq	r0, {r3, r4, r7, r8, r9, sp, lr}
 8001c70:	2000111c 	andcs	r1, r0, ip, lsl r1

08001c74 <StoreRemoteConfig::~StoreRemoteConfig()>:
 8001c74:	4770      	bx	lr
	...

08001c78 <StoreRemoteConfig::Copy(TRemoteConfigParams*)>:
 8001c78:	2300      	movs	r3, #0
 8001c7a:	b507      	push	{r0, r1, r2, lr}
 8001c7c:	4805      	ldr	r0, [pc, #20]	; (8001c94 <StoreRemoteConfig::Copy(TRemoteConfigParams*)+0x1c>)
 8001c7e:	9300      	str	r3, [sp, #0]
 8001c80:	460a      	mov	r2, r1
 8001c82:	2320      	movs	r3, #32
 8001c84:	210c      	movs	r1, #12
 8001c86:	6800      	ldr	r0, [r0, #0]
 8001c88:	f7ff fee6 	bl	8001a58 <SpiFlashStore::Copy(spiflashstore::Store, void*, unsigned int, unsigned int)>
 8001c8c:	b003      	add	sp, #12
 8001c8e:	f85d fb04 	ldr.w	pc, [sp], #4
 8001c92:	bf00      	nop
 8001c94:	20001114 	andcs	r1, r0, r4, lsl r1

08001c98 <StoreRemoteConfig::Update(TRemoteConfigParams const*)>:
 8001c98:	b51f      	push	{r0, r1, r2, r3, r4, lr}
 8001c9a:	2200      	movs	r2, #0
 8001c9c:	460b      	mov	r3, r1
 8001c9e:	2120      	movs	r1, #32
 8001ca0:	e9cd 2201 	strd	r2, r2, [sp, #4]
 8001ca4:	4804      	ldr	r0, [pc, #16]	; (8001cb8 <StoreRemoteConfig::Update(TRemoteConfigParams const*)+0x20>)
 8001ca6:	9100      	str	r1, [sp, #0]
 8001ca8:	6800      	ldr	r0, [r0, #0]
 8001caa:	210c      	movs	r1, #12
 8001cac:	f7ff fe9c 	bl	80019e8 <SpiFlashStore::Update(spiflashstore::Store, unsigned int, void const*, unsigned int, unsigned int, unsigned int)>
 8001cb0:	b005      	add	sp, #20
 8001cb2:	f85d fb04 	ldr.w	pc, [sp], #4
 8001cb6:	bf00      	nop
 8001cb8:	20001114 	andcs	r1, r0, r4, lsl r1

08001cbc <StoreRemoteConfig::~StoreRemoteConfig()>:
 8001cbc:	b510      	push	{r4, lr}
 8001cbe:	4604      	mov	r4, r0
 8001cc0:	f002 f83a 	bl	8003d38 <operator delete(void*)>
 8001cc4:	4620      	mov	r0, r4
 8001cc6:	bd10      	pop	{r4, pc}

08001cc8 <StoreRemoteConfig::StoreRemoteConfig()>:
 8001cc8:	4a02      	ldr	r2, [pc, #8]	; (8001cd4 <StoreRemoteConfig::StoreRemoteConfig()+0xc>)
 8001cca:	6002      	str	r2, [r0, #0]
 8001ccc:	4a02      	ldr	r2, [pc, #8]	; (8001cd8 <StoreRemoteConfig::StoreRemoteConfig()+0x10>)
 8001cce:	6010      	str	r0, [r2, #0]
 8001cd0:	4770      	bx	lr
 8001cd2:	bf00      	nop
 8001cd4:	080063e8 	stmdaeq	r0, {r3, r5, r6, r7, r8, r9, sp, lr}
 8001cd8:	20001120 	andcs	r1, r0, r0, lsr #2

08001cdc <RemoteConfig::HandleList()>:
 8001cdc:	e92d 43f0 	stmdb	sp!, {r4, r5, r6, r7, r8, r9, lr}
 8001ce0:	6801      	ldr	r1, [r0, #0]
 8001ce2:	4604      	mov	r4, r0
 8001ce4:	2012      	movs	r0, #18
 8001ce6:	f04f 080c 	mov.w	r8, #12
 8001cea:	4a29      	ldr	r2, [pc, #164]	; (8001d90 <RemoteConfig::HandleList()+0xb4>)
 8001cec:	4b29      	ldr	r3, [pc, #164]	; (8001d94 <RemoteConfig::HandleList()+0xb8>)
 8001cee:	fb00 2201 	mla	r2, r0, r1, r2
 8001cf2:	6860      	ldr	r0, [r4, #4]
 8001cf4:	4928      	ldr	r1, [pc, #160]	; (8001d98 <RemoteConfig::HandleList()+0xbc>)
 8001cf6:	681b      	ldr	r3, [r3, #0]
 8001cf8:	fb08 1100 	mla	r1, r8, r0, r1
 8001cfc:	4e27      	ldr	r6, [pc, #156]	; (8001d9c <RemoteConfig::HandleList()+0xc0>)
 8001cfe:	4828      	ldr	r0, [pc, #160]	; (8001da0 <RemoteConfig::HandleList()+0xc4>)
 8001d00:	695f      	ldr	r7, [r3, #20]
 8001d02:	6835      	ldr	r5, [r6, #0]
 8001d04:	f890 9009 	ldrb.w	r9, [r0, #9]
 8001d08:	b2fb      	uxtb	r3, r7
 8001d0a:	f3c7 2c07 	ubfx	ip, r7, #8, #8
 8001d0e:	f3c7 4e07 	ubfx	lr, r7, #16, #8
 8001d12:	f8d4 8008 	ldr.w	r8, [r4, #8]
 8001d16:	b089      	sub	sp, #36	; 0x24
 8001d18:	3507      	adds	r5, #7
 8001d1a:	0e3f      	lsrs	r7, r7, #24
 8001d1c:	f1b9 0f00 	cmp.w	r9, #0
 8001d20:	d01d      	beq.n	8001d5e <RemoteConfig::HandleList()+0x82>
 8001d22:	3009      	adds	r0, #9
 8001d24:	e9cd 2103 	strd	r2, r1, [sp, #12]
 8001d28:	e9cd 8005 	strd	r8, r0, [sp, #20]
 8001d2c:	f44f 717e 	mov.w	r1, #1016	; 0x3f8
 8001d30:	4628      	mov	r0, r5
 8001d32:	e9cd e701 	strd	lr, r7, [sp, #4]
 8001d36:	4a1b      	ldr	r2, [pc, #108]	; (8001da4 <RemoteConfig::HandleList()+0xc8>)
 8001d38:	f8cd c000 	str.w	ip, [sp]
 8001d3c:	f7ff f93e 	bl	8000fbc <snprintf>
 8001d40:	8ba3      	ldrh	r3, [r4, #28]
 8001d42:	2b05      	cmp	r3, #5
 8001d44:	d118      	bne.n	8001d78 <RemoteConfig::HandleList()+0x9c>
 8001d46:	f642 1305 	movw	r3, #10501	; 0x2905
 8001d4a:	9300      	str	r3, [sp, #0]
 8001d4c:	69a3      	ldr	r3, [r4, #24]
 8001d4e:	b282      	uxth	r2, r0
 8001d50:	4629      	mov	r1, r5
 8001d52:	7d20      	ldrb	r0, [r4, #20]
 8001d54:	f000 fe12 	bl	800297c <udp_send>
 8001d58:	b009      	add	sp, #36	; 0x24
 8001d5a:	e8bd 83f0 	ldmia.w	sp!, {r4, r5, r6, r7, r8, r9, pc}
 8001d5e:	e9cd 1804 	strd	r1, r8, [sp, #16]
 8001d62:	e9cd 7202 	strd	r7, r2, [sp, #8]
 8001d66:	f44f 717e 	mov.w	r1, #1016	; 0x3f8
 8001d6a:	4628      	mov	r0, r5
 8001d6c:	e9cd ce00 	strd	ip, lr, [sp]
 8001d70:	4a0d      	ldr	r2, [pc, #52]	; (8001da8 <RemoteConfig::HandleList()+0xcc>)
 8001d72:	f7ff f923 	bl	8000fbc <snprintf>
 8001d76:	e7e3      	b.n	8001d40 <RemoteConfig::HandleList()+0x64>
 8001d78:	2b06      	cmp	r3, #6
 8001d7a:	d1ed      	bne.n	8001d58 <RemoteConfig::HandleList()+0x7c>
 8001d7c:	6833      	ldr	r3, [r6, #0]
 8001d7e:	799b      	ldrb	r3, [r3, #6]
 8001d80:	2b2a      	cmp	r3, #42	; 0x2a
 8001d82:	d1e9      	bne.n	8001d58 <RemoteConfig::HandleList()+0x7c>
 8001d84:	f642 1305 	movw	r3, #10501	; 0x2905
 8001d88:	9300      	str	r3, [sp, #0]
 8001d8a:	f04f 33ff 	mov.w	r3, #4294967295	; 0xffffffff
 8001d8e:	e7de      	b.n	8001d4e <RemoteConfig::HandleList()+0x72>
 8001d90:	080064d4 	stmdaeq	r0, {r2, r4, r6, r7, sl, sp, lr}
 8001d94:	2000349c 	mulcs	r0, ip, r4
 8001d98:	08006588 	stmdaeq	r0, {r3, r7, r8, sl, sp, lr}
 8001d9c:	20001124 	andcs	r1, r0, r4, lsr #2
 8001da0:	20001128 	andcs	r1, r0, r8, lsr #2
 8001da4:	080063f8 	stmdaeq	r0, {r3, r4, r5, r6, r7, r8, r9, sp, lr}
 8001da8:	08006411 	stmdaeq	r0, {r0, r4, sl, sp, lr}

08001dac <RemoteConfig::HandleTftpGet()>:
 8001dac:	8b83      	ldrh	r3, [r0, #28]
 8001dae:	2b05      	cmp	r3, #5
 8001db0:	d11a      	bne.n	8001de8 <RemoteConfig::HandleTftpGet()+0x3c>
 8001db2:	b537      	push	{r0, r1, r2, r4, r5, lr}
 8001db4:	4b0d      	ldr	r3, [pc, #52]	; (8001dec <RemoteConfig::HandleTftpGet()+0x40>)
 8001db6:	f890 102c 	ldrb.w	r1, [r0, #44]	; 0x2c
 8001dba:	4d0d      	ldr	r5, [pc, #52]	; (8001df0 <RemoteConfig::HandleTftpGet()+0x44>)
 8001dbc:	4a0d      	ldr	r2, [pc, #52]	; (8001df4 <RemoteConfig::HandleTftpGet()+0x48>)
 8001dbe:	4604      	mov	r4, r0
 8001dc0:	2900      	cmp	r1, #0
 8001dc2:	bf08      	it	eq
 8001dc4:	4613      	moveq	r3, r2
 8001dc6:	6828      	ldr	r0, [r5, #0]
 8001dc8:	f240 31ff 	movw	r1, #1023	; 0x3ff
 8001dcc:	4a0a      	ldr	r2, [pc, #40]	; (8001df8 <RemoteConfig::HandleTftpGet()+0x4c>)
 8001dce:	f7ff f8f5 	bl	8000fbc <snprintf>
 8001dd2:	f642 1305 	movw	r3, #10501	; 0x2905
 8001dd6:	9300      	str	r3, [sp, #0]
 8001dd8:	b282      	uxth	r2, r0
 8001dda:	69a3      	ldr	r3, [r4, #24]
 8001ddc:	6829      	ldr	r1, [r5, #0]
 8001dde:	7d20      	ldrb	r0, [r4, #20]
 8001de0:	f000 fdcc 	bl	800297c <udp_send>
 8001de4:	b003      	add	sp, #12
 8001de6:	bd30      	pop	{r4, r5, pc}
 8001de8:	4770      	bx	lr
 8001dea:	bf00      	nop
 8001dec:	08006460 	stmdaeq	r0, {r5, r6, sl, sp, lr}
 8001df0:	20001124 	andcs	r1, r0, r4, lsr #2
 8001df4:	08006487 	stmdaeq	r0, {r0, r1, r2, r7, sl, sp, lr}
 8001df8:	08006427 	stmdaeq	r0, {r0, r1, r2, r5, sl, sp, lr}

08001dfc <RemoteConfig::HandleVersion()>:
 8001dfc:	8b83      	ldrh	r3, [r0, #28]
 8001dfe:	2b08      	cmp	r3, #8
 8001e00:	d114      	bne.n	8001e2c <RemoteConfig::HandleVersion()+0x30>
 8001e02:	b537      	push	{r0, r1, r2, r4, r5, lr}
 8001e04:	4d0a      	ldr	r5, [pc, #40]	; (8001e30 <RemoteConfig::HandleVersion()+0x34>)
 8001e06:	4604      	mov	r4, r0
 8001e08:	f240 31ff 	movw	r1, #1023	; 0x3ff
 8001e0c:	4b09      	ldr	r3, [pc, #36]	; (8001e34 <RemoteConfig::HandleVersion()+0x38>)
 8001e0e:	4a0a      	ldr	r2, [pc, #40]	; (8001e38 <RemoteConfig::HandleVersion()+0x3c>)
 8001e10:	6828      	ldr	r0, [r5, #0]
 8001e12:	f7ff f8d3 	bl	8000fbc <snprintf>
 8001e16:	f642 1305 	movw	r3, #10501	; 0x2905
 8001e1a:	9300      	str	r3, [sp, #0]
 8001e1c:	b282      	uxth	r2, r0
 8001e1e:	69a3      	ldr	r3, [r4, #24]
 8001e20:	6829      	ldr	r1, [r5, #0]
 8001e22:	7d20      	ldrb	r0, [r4, #20]
 8001e24:	f000 fdaa 	bl	800297c <udp_send>
 8001e28:	b003      	add	sp, #12
 8001e2a:	bd30      	pop	{r4, r5, pc}
 8001e2c:	4770      	bx	lr
 8001e2e:	bf00      	nop
 8001e30:	20001124 	andcs	r1, r0, r4, lsr #2
 8001e34:	20003968 	andcs	r3, r0, r8, ror #18
 8001e38:	08006430 	stmdaeq	r0, {r4, r5, sl, sp, lr}

08001e3c <RemoteConfig::HandleUptime()>:
 8001e3c:	7bc3      	ldrb	r3, [r0, #15]
 8001e3e:	b1e3      	cbz	r3, 8001e7a <RemoteConfig::HandleUptime()+0x3e>
 8001e40:	4b0e      	ldr	r3, [pc, #56]	; (8001e7c <RemoteConfig::HandleUptime()+0x40>)
 8001e42:	b537      	push	{r0, r1, r2, r4, r5, lr}
 8001e44:	681a      	ldr	r2, [r3, #0]
 8001e46:	8b83      	ldrh	r3, [r0, #28]
 8001e48:	4604      	mov	r4, r0
 8001e4a:	2b07      	cmp	r3, #7
 8001e4c:	d113      	bne.n	8001e76 <RemoteConfig::HandleUptime()+0x3a>
 8001e4e:	f44f 737a 	mov.w	r3, #1000	; 0x3e8
 8001e52:	4d0b      	ldr	r5, [pc, #44]	; (8001e80 <RemoteConfig::HandleUptime()+0x44>)
 8001e54:	fbb2 f3f3 	udiv	r3, r2, r3
 8001e58:	f240 31ff 	movw	r1, #1023	; 0x3ff
 8001e5c:	4a09      	ldr	r2, [pc, #36]	; (8001e84 <RemoteConfig::HandleUptime()+0x48>)
 8001e5e:	6828      	ldr	r0, [r5, #0]
 8001e60:	f7ff f8ac 	bl	8000fbc <snprintf>
 8001e64:	f642 1305 	movw	r3, #10501	; 0x2905
 8001e68:	9300      	str	r3, [sp, #0]
 8001e6a:	b282      	uxth	r2, r0
 8001e6c:	69a3      	ldr	r3, [r4, #24]
 8001e6e:	6829      	ldr	r1, [r5, #0]
 8001e70:	7d20      	ldrb	r0, [r4, #20]
 8001e72:	f000 fd83 	bl	800297c <udp_send>
 8001e76:	b003      	add	sp, #12
 8001e78:	bd30      	pop	{r4, r5, pc}
 8001e7a:	4770      	bx	lr
 8001e7c:	200039c4 	andcs	r3, r0, r4, asr #19
 8001e80:	20001124 	andcs	r1, r0, r4, lsr #2
 8001e84:	0800643b 	stmdaeq	r0, {r0, r1, r3, r4, r5, sl, sp, lr}

08001e88 <Display::TextStatus(char const*)>:
 8001e88:	e92d 47f0 	stmdb	sp!, {r4, r5, r6, r7, r8, r9, sl, lr}
 8001e8c:	4604      	mov	r4, r0
 8001e8e:	6980      	ldr	r0, [r0, #24]
 8001e90:	2800      	cmp	r0, #0
 8001e92:	d032      	beq.n	8001efa <Display::TextStatus(char const*)+0x72>
 8001e94:	7947      	ldrb	r7, [r0, #5]
 8001e96:	6803      	ldr	r3, [r0, #0]
 8001e98:	1e7e      	subs	r6, r7, #1
 8001e9a:	b2f6      	uxtb	r6, r6
 8001e9c:	460d      	mov	r5, r1
 8001e9e:	4632      	mov	r2, r6
 8001ea0:	2100      	movs	r1, #0
 8001ea2:	6a1b      	ldr	r3, [r3, #32]
 8001ea4:	f890 9004 	ldrb.w	r9, [r0, #4]
 8001ea8:	f04f 0800 	mov.w	r8, #0
 8001eac:	4798      	blx	r3
 8001eae:	f109 39ff 	add.w	r9, r9, #4294967295	; 0xffffffff
 8001eb2:	45c1      	cmp	r9, r8
 8001eb4:	69a0      	ldr	r0, [r4, #24]
 8001eb6:	d818      	bhi.n	8001eea <Display::TextStatus(char const*)+0x62>
 8001eb8:	b120      	cbz	r0, 8001ec4 <Display::TextStatus(char const*)+0x3c>
 8001eba:	6803      	ldr	r3, [r0, #0]
 8001ebc:	4632      	mov	r2, r6
 8001ebe:	2100      	movs	r1, #0
 8001ec0:	6a1b      	ldr	r3, [r3, #32]
 8001ec2:	4798      	blx	r3
 8001ec4:	69a0      	ldr	r0, [r4, #24]
 8001ec6:	b1c0      	cbz	r0, 8001efa <Display::TextStatus(char const*)+0x72>
 8001ec8:	2300      	movs	r3, #0
 8001eca:	7901      	ldrb	r1, [r0, #4]
 8001ecc:	5cea      	ldrb	r2, [r5, r3]
 8001ece:	b11a      	cbz	r2, 8001ed8 <Display::TextStatus(char const*)+0x50>
 8001ed0:	1c5a      	adds	r2, r3, #1
 8001ed2:	4299      	cmp	r1, r3
 8001ed4:	4613      	mov	r3, r2
 8001ed6:	dcf9      	bgt.n	8001ecc <Display::TextStatus(char const*)+0x44>
 8001ed8:	6802      	ldr	r2, [r0, #0]
 8001eda:	4639      	mov	r1, r7
 8001edc:	69d4      	ldr	r4, [r2, #28]
 8001ede:	b2db      	uxtb	r3, r3
 8001ee0:	462a      	mov	r2, r5
 8001ee2:	46a4      	mov	ip, r4
 8001ee4:	e8bd 47f0 	ldmia.w	sp!, {r4, r5, r6, r7, r8, r9, sl, lr}
 8001ee8:	4760      	bx	ip
 8001eea:	b118      	cbz	r0, 8001ef4 <Display::TextStatus(char const*)+0x6c>
 8001eec:	6803      	ldr	r3, [r0, #0]
 8001eee:	2120      	movs	r1, #32
 8001ef0:	695b      	ldr	r3, [r3, #20]
 8001ef2:	4798      	blx	r3
 8001ef4:	f108 0801 	add.w	r8, r8, #1
 8001ef8:	e7db      	b.n	8001eb2 <Display::TextStatus(char const*)+0x2a>
 8001efa:	e8bd 87f0 	ldmia.w	sp!, {r4, r5, r6, r7, r8, r9, sl, pc}

08001efe <Display::TextStatus(char const*, Display7SegmentMessage, unsigned int)>:
 8001efe:	b5f7      	push	{r0, r1, r2, r4, r5, r6, r7, lr}
 8001f00:	4605      	mov	r5, r0
 8001f02:	461e      	mov	r6, r3
 8001f04:	460f      	mov	r7, r1
 8001f06:	4614      	mov	r4, r2
 8001f08:	f7ff ffbe 	bl	8001e88 <Display::TextStatus(char const*)>
 8001f0c:	7c6b      	ldrb	r3, [r5, #17]
 8001f0e:	b19b      	cbz	r3, 8001f38 <Display::TextStatus(char const*, Display7SegmentMessage, unsigned int)+0x3a>
 8001f10:	43e2      	mvns	r2, r4
 8001f12:	2312      	movs	r3, #18
 8001f14:	7a28      	ldrb	r0, [r5, #8]
 8001f16:	f88d 3004 	strb.w	r3, [sp, #4]
 8001f1a:	f3c2 2307 	ubfx	r3, r2, #8, #8
 8001f1e:	f88d 3005 	strb.w	r3, [sp, #5]
 8001f22:	f88d 2006 	strb.w	r2, [sp, #6]
 8001f26:	f002 ff23 	bl	8004d70 <gd32_i2c_set_address>
 8001f2a:	68e8      	ldr	r0, [r5, #12]
 8001f2c:	f002 ff18 	bl	8004d60 <gd32_i2c_set_baudrate>
 8001f30:	2103      	movs	r1, #3
 8001f32:	a801      	add	r0, sp, #4
 8001f34:	f002 ff22 	bl	8004d7c <gd32_i2c_write>
 8001f38:	1c73      	adds	r3, r6, #1
 8001f3a:	d006      	beq.n	8001f4a <Display::TextStatus(char const*, Display7SegmentMessage, unsigned int)+0x4c>
 8001f3c:	4639      	mov	r1, r7
 8001f3e:	4630      	mov	r0, r6
 8001f40:	b003      	add	sp, #12
 8001f42:	e8bd 40f0 	ldmia.w	sp!, {r4, r5, r6, r7, lr}
 8001f46:	f001 bdb7 	b.w	8003ab8 <console_status>
 8001f4a:	b003      	add	sp, #12
 8001f4c:	bdf0      	pop	{r4, r5, r6, r7, pc}
	...

08001f50 <RemoteConfig::HandleTftpSet()>:
 8001f50:	8b83      	ldrh	r3, [r0, #28]
 8001f52:	2b06      	cmp	r3, #6
 8001f54:	d172      	bne.n	800203c <RemoteConfig::HandleTftpSet()+0xec>
 8001f56:	b570      	push	{r4, r5, r6, lr}
 8001f58:	4b39      	ldr	r3, [pc, #228]	; (8002040 <RemoteConfig::HandleTftpSet()+0xf0>)
 8001f5a:	4604      	mov	r4, r0
 8001f5c:	681b      	ldr	r3, [r3, #0]
 8001f5e:	799b      	ldrb	r3, [r3, #6]
 8001f60:	2b30      	cmp	r3, #48	; 0x30
 8001f62:	bf14      	ite	ne
 8001f64:	2301      	movne	r3, #1
 8001f66:	2300      	moveq	r3, #0
 8001f68:	f880 302c 	strb.w	r3, [r0, #44]	; 0x2c
 8001f6c:	d02d      	beq.n	8001fca <RemoteConfig::HandleTftpSet()+0x7a>
 8001f6e:	4e35      	ldr	r6, [pc, #212]	; (8002044 <RemoteConfig::HandleTftpSet()+0xf4>)
 8001f70:	6835      	ldr	r5, [r6, #0]
 8001f72:	69a8      	ldr	r0, [r5, #24]
 8001f74:	b9e8      	cbnz	r0, 8001fb2 <RemoteConfig::HandleTftpSet()+0x62>
 8001f76:	6a63      	ldr	r3, [r4, #36]	; 0x24
 8001f78:	b9d3      	cbnz	r3, 8001fb0 <RemoteConfig::HandleTftpSet()+0x60>
 8001f7a:	4833      	ldr	r0, [pc, #204]	; (8002048 <RemoteConfig::HandleTftpSet()+0xf8>)
 8001f7c:	f001 ff64 	bl	8003e48 <puts>
 8001f80:	f44f 30d4 	mov.w	r0, #108544	; 0x1a800
 8001f84:	f001 fede 	bl	8003d44 <operator new[](unsigned int)>
 8001f88:	62a0      	str	r0, [r4, #40]	; 0x28
 8001f8a:	f44f 7011 	mov.w	r0, #580	; 0x244
 8001f8e:	f001 fed7 	bl	8003d40 <operator new(unsigned int)>
 8001f92:	f44f 32d4 	mov.w	r2, #108544	; 0x1a800
 8001f96:	4605      	mov	r5, r0
 8001f98:	6aa1      	ldr	r1, [r4, #40]	; 0x28
 8001f9a:	f000 fa91 	bl	80024c0 <TFTPFileServer::TFTPFileServer(unsigned char*, unsigned int)>
 8001f9e:	f04f 33ff 	mov.w	r3, #4294967295	; 0xffffffff
 8001fa2:	f244 0271 	movw	r2, #16497	; 0x4071
 8001fa6:	4929      	ldr	r1, [pc, #164]	; (800204c <RemoteConfig::HandleTftpSet()+0xfc>)
 8001fa8:	6830      	ldr	r0, [r6, #0]
 8001faa:	6265      	str	r5, [r4, #36]	; 0x24
 8001fac:	f7ff ffa7 	bl	8001efe <Display::TextStatus(char const*, Display7SegmentMessage, unsigned int)>
 8001fb0:	bd70      	pop	{r4, r5, r6, pc}
 8001fb2:	2100      	movs	r1, #0
 8001fb4:	6803      	ldr	r3, [r0, #0]
 8001fb6:	7429      	strb	r1, [r5, #16]
 8001fb8:	6a9b      	ldr	r3, [r3, #40]	; 0x28
 8001fba:	4798      	blx	r3
 8001fbc:	4b24      	ldr	r3, [pc, #144]	; (8002050 <RemoteConfig::HandleTftpSet()+0x100>)
 8001fbe:	681b      	ldr	r3, [r3, #0]
 8001fc0:	606b      	str	r3, [r5, #4]
 8001fc2:	f894 302c 	ldrb.w	r3, [r4, #44]	; 0x2c
 8001fc6:	2b00      	cmp	r3, #0
 8001fc8:	d1d5      	bne.n	8001f76 <RemoteConfig::HandleTftpSet()+0x26>
 8001fca:	6a63      	ldr	r3, [r4, #36]	; 0x24
 8001fcc:	2b00      	cmp	r3, #0
 8001fce:	d0ef      	beq.n	8001fb0 <RemoteConfig::HandleTftpSet()+0x60>
 8001fd0:	f8d3 223c 	ldr.w	r2, [r3, #572]	; 0x23c
 8001fd4:	f893 3240 	ldrb.w	r3, [r3, #576]	; 0x240
 8001fd8:	b9f3      	cbnz	r3, 8002018 <RemoteConfig::HandleTftpSet()+0xc8>
 8001fda:	2501      	movs	r5, #1
 8001fdc:	481d      	ldr	r0, [pc, #116]	; (8002054 <RemoteConfig::HandleTftpSet()+0x104>)
 8001fde:	f001 ff33 	bl	8003e48 <puts>
 8001fe2:	6a66      	ldr	r6, [r4, #36]	; 0x24
 8001fe4:	b13e      	cbz	r6, 8001ff6 <RemoteConfig::HandleTftpSet()+0xa6>
 8001fe6:	4b1c      	ldr	r3, [pc, #112]	; (8002058 <RemoteConfig::HandleTftpSet()+0x108>)
 8001fe8:	4630      	mov	r0, r6
 8001fea:	6033      	str	r3, [r6, #0]
 8001fec:	f000 fda4 	bl	8002b38 <TFTPDaemon::~TFTPDaemon()>
 8001ff0:	4630      	mov	r0, r6
 8001ff2:	f001 fea1 	bl	8003d38 <operator delete(void*)>
 8001ff6:	2600      	movs	r6, #0
 8001ff8:	6aa0      	ldr	r0, [r4, #40]	; 0x28
 8001ffa:	6266      	str	r6, [r4, #36]	; 0x24
 8001ffc:	b108      	cbz	r0, 8002002 <RemoteConfig::HandleTftpSet()+0xb2>
 8001ffe:	f001 fe9d 	bl	8003d3c <operator delete[](void*)>
 8002002:	62a6      	str	r6, [r4, #40]	; 0x28
 8002004:	2d00      	cmp	r5, #0
 8002006:	d0d3      	beq.n	8001fb0 <RemoteConfig::HandleTftpSet()+0x60>
 8002008:	480e      	ldr	r0, [pc, #56]	; (8002044 <RemoteConfig::HandleTftpSet()+0xf4>)
 800200a:	f04f 33ff 	mov.w	r3, #4294967295	; 0xffffffff
 800200e:	f248 0271 	movw	r2, #32881	; 0x8071
 8002012:	4912      	ldr	r1, [pc, #72]	; (800205c <RemoteConfig::HandleTftpSet()+0x10c>)
 8002014:	6800      	ldr	r0, [r0, #0]
 8002016:	e7c9      	b.n	8001fac <RemoteConfig::HandleTftpSet()+0x5c>
 8002018:	4b11      	ldr	r3, [pc, #68]	; (8002060 <RemoteConfig::HandleTftpSet()+0x110>)
 800201a:	6aa1      	ldr	r1, [r4, #40]	; 0x28
 800201c:	6818      	ldr	r0, [r3, #0]
 800201e:	f000 faa3 	bl	8002568 <SpiFlashInstall::WriteFirmware(unsigned char const*, unsigned int)>
 8002022:	4605      	mov	r5, r0
 8002024:	2800      	cmp	r0, #0
 8002026:	d1d8      	bne.n	8001fda <RemoteConfig::HandleTftpSet()+0x8a>
 8002028:	4806      	ldr	r0, [pc, #24]	; (8002044 <RemoteConfig::HandleTftpSet()+0xf4>)
 800202a:	f04f 33ff 	mov.w	r3, #4294967295	; 0xffffffff
 800202e:	f247 1279 	movw	r2, #29049	; 0x7179
 8002032:	490c      	ldr	r1, [pc, #48]	; (8002064 <RemoteConfig::HandleTftpSet()+0x114>)
 8002034:	6800      	ldr	r0, [r0, #0]
 8002036:	f7ff ff62 	bl	8001efe <Display::TextStatus(char const*, Display7SegmentMessage, unsigned int)>
 800203a:	e7cf      	b.n	8001fdc <RemoteConfig::HandleTftpSet()+0x8c>
 800203c:	4770      	bx	lr
 800203e:	bf00      	nop
 8002040:	20001124 	andcs	r1, r0, r4, lsr #2
 8002044:	20000074 	andcs	r0, r0, r4, ror r0
 8002048:	08006448 	stmdaeq	r0, {r3, r6, sl, sp, lr}
 800204c:	0800645b 	stmdaeq	r0, {r0, r1, r3, r4, r6, sl, sp, lr}
 8002050:	200039c4 	andcs	r3, r0, r4, asr #19
 8002054:	0800646f 	stmdaeq	r0, {r0, r1, r2, r3, r5, r6, sl, sp, lr}
 8002058:	080066ec 	stmdaeq	r0, {r2, r3, r5, r6, r7, r9, sl, sp, lr}
 800205c:	08006482 	stmdaeq	r0, {r1, r7, sl, sp, lr}
 8002060:	20001150 	andcs	r1, r0, r0, asr r1
 8002064:	08006463 	stmdaeq	r0, {r0, r1, r5, r6, sl, sp, lr}

08002068 <RemoteConfig::RemoteConfig(remoteconfig::Node, remoteconfig::Output, unsigned int)>:
 8002068:	e92d 47f0 	stmdb	sp!, {r4, r5, r6, r7, r8, r9, sl, lr}
 800206c:	2500      	movs	r5, #0
 800206e:	461f      	mov	r7, r3
 8002070:	6083      	str	r3, [r0, #8]
 8002072:	f04f 33ff 	mov.w	r3, #4294967295	; 0xffffffff
 8002076:	4690      	mov	r8, r2
 8002078:	4689      	mov	r9, r1
 800207a:	4e13      	ldr	r6, [pc, #76]	; (80020c8 <RemoteConfig::RemoteConfig(remoteconfig::Node, remoteconfig::Output, unsigned int)+0x60>)
 800207c:	e9c0 3505 	strd	r3, r5, [r0, #20]
 8002080:	f8df a048 	ldr.w	sl, [pc, #72]	; 80020cc <RemoteConfig::RemoteConfig(remoteconfig::Node, remoteconfig::Output, unsigned int)+0x64>
 8002084:	4b12      	ldr	r3, [pc, #72]	; (80020d0 <RemoteConfig::RemoteConfig(remoteconfig::Node, remoteconfig::Output, unsigned int)+0x68>)
 8002086:	e9c0 1200 	strd	r1, r2, [r0]
 800208a:	4604      	mov	r4, r0
 800208c:	6018      	str	r0, [r3, #0]
 800208e:	4631      	mov	r1, r6
 8002090:	e9c0 5508 	strd	r5, r5, [r0, #32]
 8002094:	60c5      	str	r5, [r0, #12]
 8002096:	8205      	strh	r5, [r0, #16]
 8002098:	8385      	strh	r5, [r0, #28]
 800209a:	6285      	str	r5, [r0, #40]	; 0x28
 800209c:	f880 502c 	strb.w	r5, [r0, #44]	; 0x2c
 80020a0:	f8da 0000 	ldr.w	r0, [sl]
 80020a4:	f000 ff48 	bl	8002f38 <Network::MacAddressCopyTo(unsigned char*)>
 80020a8:	f642 1105 	movw	r1, #10501	; 0x2905
 80020ac:	f8da 0000 	ldr.w	r0, [sl]
 80020b0:	f886 9006 	strb.w	r9, [r6, #6]
 80020b4:	f886 8007 	strb.w	r8, [r6, #7]
 80020b8:	7237      	strb	r7, [r6, #8]
 80020ba:	7275      	strb	r5, [r6, #9]
 80020bc:	f000 ff36 	bl	8002f2c <Network::Begin(unsigned short)>
 80020c0:	6160      	str	r0, [r4, #20]
 80020c2:	4620      	mov	r0, r4
 80020c4:	e8bd 87f0 	ldmia.w	sp!, {r4, r5, r6, r7, r8, r9, sl, pc}
 80020c8:	20001128 	andcs	r1, r0, r8, lsr #2
 80020cc:	2000349c 	mulcs	r0, ip, r4
 80020d0:	2000114c 	andcs	r1, r0, ip, asr #2

080020d4 <RemoteConfig::SetDisable(bool)>:
 80020d4:	b538      	push	{r3, r4, r5, lr}
 80020d6:	4604      	mov	r4, r0
 80020d8:	7b03      	ldrb	r3, [r0, #12]
 80020da:	b161      	cbz	r1, 80020f6 <RemoteConfig::SetDisable(bool)+0x22>
 80020dc:	b953      	cbnz	r3, 80020f4 <RemoteConfig::SetDisable(bool)+0x20>
 80020de:	4b0c      	ldr	r3, [pc, #48]	; (8002110 <RemoteConfig::SetDisable(bool)+0x3c>)
 80020e0:	f642 1105 	movw	r1, #10501	; 0x2905
 80020e4:	6818      	ldr	r0, [r3, #0]
 80020e6:	f000 ff24 	bl	8002f32 <Network::End(unsigned short)>
 80020ea:	f04f 33ff 	mov.w	r3, #4294967295	; 0xffffffff
 80020ee:	6163      	str	r3, [r4, #20]
 80020f0:	2301      	movs	r3, #1
 80020f2:	7323      	strb	r3, [r4, #12]
 80020f4:	bd38      	pop	{r3, r4, r5, pc}
 80020f6:	2b00      	cmp	r3, #0
 80020f8:	d0fc      	beq.n	80020f4 <RemoteConfig::SetDisable(bool)+0x20>
 80020fa:	4b05      	ldr	r3, [pc, #20]	; (8002110 <RemoteConfig::SetDisable(bool)+0x3c>)
 80020fc:	460d      	mov	r5, r1
 80020fe:	6818      	ldr	r0, [r3, #0]
 8002100:	f642 1105 	movw	r1, #10501	; 0x2905
 8002104:	f000 ff12 	bl	8002f2c <Network::Begin(unsigned short)>
 8002108:	7325      	strb	r5, [r4, #12]
 800210a:	6160      	str	r0, [r4, #20]
 800210c:	e7f2      	b.n	80020f4 <RemoteConfig::SetDisable(bool)+0x20>
 800210e:	bf00      	nop
 8002110:	2000349c 	mulcs	r0, ip, r4

08002114 <RemoteConfig::SetDisplayName(char const*)>:
 8002114:	2217      	movs	r2, #23
 8002116:	4809      	ldr	r0, [pc, #36]	; (800213c <RemoteConfig::SetDisplayName(char const*)+0x28>)
 8002118:	b508      	push	{r3, lr}
 800211a:	1e4b      	subs	r3, r1, #1
 800211c:	f813 1f01 	ldrb.w	r1, [r3, #1]!
 8002120:	b911      	cbnz	r1, 8002128 <RemoteConfig::SetDisplayName(char const*)+0x14>
 8002122:	f001 fe70 	bl	8003e06 <memset>
 8002126:	e003      	b.n	8002130 <RemoteConfig::SetDisplayName(char const*)+0x1c>
 8002128:	3a01      	subs	r2, #1
 800212a:	f800 1b01 	strb.w	r1, [r0], #1
 800212e:	d1f5      	bne.n	800211c <RemoteConfig::SetDisplayName(char const*)+0x8>
 8002130:	2200      	movs	r2, #0
 8002132:	4b03      	ldr	r3, [pc, #12]	; (8002140 <RemoteConfig::SetDisplayName(char const*)+0x2c>)
 8002134:	f883 2020 	strb.w	r2, [r3, #32]
 8002138:	bd08      	pop	{r3, pc}
 800213a:	bf00      	nop
 800213c:	20001131 	andcs	r1, r0, r1, lsr r1
 8002140:	20001128 	andcs	r1, r0, r8, lsr #2

08002144 <RemoteConfig::Run()>:
 8002144:	e92d 41ff 	stmdb	sp!, {r0, r1, r2, r3, r4, r5, r6, r7, r8, lr}
 8002148:	7b03      	ldrb	r3, [r0, #12]
 800214a:	2b00      	cmp	r3, #0
 800214c:	d14b      	bne.n	80021e6 <RemoteConfig::Run()+0xa2>
 800214e:	4604      	mov	r4, r0
 8002150:	6a40      	ldr	r0, [r0, #36]	; 0x24
 8002152:	b108      	cbz	r0, 8002158 <RemoteConfig::Run()+0x14>
 8002154:	f000 fe52 	bl	8002dfc <TFTPDaemon::Run()>
 8002158:	4d3b      	ldr	r5, [pc, #236]	; (8002248 <RemoteConfig::Run()+0x104>)
 800215a:	7d20      	ldrb	r0, [r4, #20]
 800215c:	4629      	mov	r1, r5
 800215e:	f10d 030e 	add.w	r3, sp, #14
 8002162:	f104 0218 	add.w	r2, r4, #24
 8002166:	f000 fbe3 	bl	8002930 <udp_recv2>
 800216a:	2803      	cmp	r0, #3
 800216c:	83a0      	strh	r0, [r4, #28]
 800216e:	d93a      	bls.n	80021e6 <RemoteConfig::Run()+0xa2>
 8002170:	682b      	ldr	r3, [r5, #0]
 8002172:	181a      	adds	r2, r3, r0
 8002174:	f812 2c01 	ldrb.w	r2, [r2, #-1]
 8002178:	2a0a      	cmp	r2, #10
 800217a:	bf04      	itt	eq
 800217c:	f100 30ff 	addeq.w	r0, r0, #4294967295	; 0xffffffff
 8002180:	83a0      	strheq	r0, [r4, #28]
 8002182:	781a      	ldrb	r2, [r3, #0]
 8002184:	2a3f      	cmp	r2, #63	; 0x3f
 8002186:	d13b      	bne.n	8002200 <RemoteConfig::Run()+0xbc>
 8002188:	4830      	ldr	r0, [pc, #192]	; (800224c <RemoteConfig::Run()+0x108>)
 800218a:	2200      	movs	r2, #0
 800218c:	4684      	mov	ip, r0
 800218e:	8ba1      	ldrh	r1, [r4, #28]
 8002190:	3901      	subs	r1, #1
 8002192:	b289      	uxth	r1, r1
 8002194:	83a1      	strh	r1, [r4, #28]
 8002196:	7b86      	ldrb	r6, [r0, #14]
 8002198:	8985      	ldrh	r5, [r0, #12]
 800219a:	b186      	cbz	r6, 80021be <RemoteConfig::Run()+0x7a>
 800219c:	42a9      	cmp	r1, r5
 800219e:	d810      	bhi.n	80021c2 <RemoteConfig::Run()+0x7e>
 80021a0:	3201      	adds	r2, #1
 80021a2:	2a07      	cmp	r2, #7
 80021a4:	f100 0010 	add.w	r0, r0, #16
 80021a8:	d1f5      	bne.n	8002196 <RemoteConfig::Run()+0x52>
 80021aa:	f642 1305 	movw	r3, #10501	; 0x2905
 80021ae:	2208      	movs	r2, #8
 80021b0:	9300      	str	r3, [sp, #0]
 80021b2:	69a3      	ldr	r3, [r4, #24]
 80021b4:	4926      	ldr	r1, [pc, #152]	; (8002250 <RemoteConfig::Run()+0x10c>)
 80021b6:	7d20      	ldrb	r0, [r4, #20]
 80021b8:	f000 fbe0 	bl	800297c <udp_send>
 80021bc:	e013      	b.n	80021e6 <RemoteConfig::Run()+0xa2>
 80021be:	42a9      	cmp	r1, r5
 80021c0:	d1ee      	bne.n	80021a0 <RemoteConfig::Run()+0x5c>
 80021c2:	461f      	mov	r7, r3
 80021c4:	6886      	ldr	r6, [r0, #8]
 80021c6:	441d      	add	r5, r3
 80021c8:	3e01      	subs	r6, #1
 80021ca:	42af      	cmp	r7, r5
 80021cc:	d10e      	bne.n	80021ec <RemoteConfig::Run()+0xa8>
 80021ce:	0113      	lsls	r3, r2, #4
 80021d0:	eb0c 1202 	add.w	r2, ip, r2, lsl #4
 80021d4:	6852      	ldr	r2, [r2, #4]
 80021d6:	f85c 3003 	ldr.w	r3, [ip, r3]
 80021da:	1051      	asrs	r1, r2, #1
 80021dc:	eb04 0062 	add.w	r0, r4, r2, asr #1
 80021e0:	07d2      	lsls	r2, r2, #31
 80021e2:	d40a      	bmi.n	80021fa <RemoteConfig::Run()+0xb6>
 80021e4:	4798      	blx	r3
 80021e6:	b004      	add	sp, #16
 80021e8:	e8bd 81f0 	ldmia.w	sp!, {r4, r5, r6, r7, r8, pc}
 80021ec:	f817 8f01 	ldrb.w	r8, [r7, #1]!
 80021f0:	f816 ef01 	ldrb.w	lr, [r6, #1]!
 80021f4:	45f0      	cmp	r8, lr
 80021f6:	d0e8      	beq.n	80021ca <RemoteConfig::Run()+0x86>
 80021f8:	e7d2      	b.n	80021a0 <RemoteConfig::Run()+0x5c>
 80021fa:	5862      	ldr	r2, [r4, r1]
 80021fc:	58d3      	ldr	r3, [r2, r3]
 80021fe:	e7f1      	b.n	80021e4 <RemoteConfig::Run()+0xa0>
 8002200:	7b61      	ldrb	r1, [r4, #13]
 8002202:	2900      	cmp	r1, #0
 8002204:	d1ef      	bne.n	80021e6 <RemoteConfig::Run()+0xa2>
 8002206:	2a23      	cmp	r2, #35	; 0x23
 8002208:	d101      	bne.n	800220e <RemoteConfig::Run()+0xca>
 800220a:	6221      	str	r1, [r4, #32]
 800220c:	e7eb      	b.n	80021e6 <RemoteConfig::Run()+0xa2>
 800220e:	2a21      	cmp	r2, #33	; 0x21
 8002210:	d1e9      	bne.n	80021e6 <RemoteConfig::Run()+0xa2>
 8002212:	8ba2      	ldrh	r2, [r4, #28]
 8002214:	3a01      	subs	r2, #1
 8002216:	b292      	uxth	r2, r2
 8002218:	2a05      	cmp	r2, #5
 800221a:	83a2      	strh	r2, [r4, #28]
 800221c:	d90d      	bls.n	800223a <RemoteConfig::Run()+0xf6>
 800221e:	4a0d      	ldr	r2, [pc, #52]	; (8002254 <RemoteConfig::Run()+0x110>)
 8002220:	1d59      	adds	r1, r3, #5
 8002222:	4299      	cmp	r1, r3
 8002224:	d103      	bne.n	800222e <RemoteConfig::Run()+0xea>
 8002226:	4620      	mov	r0, r4
 8002228:	f7ff fe92 	bl	8001f50 <RemoteConfig::HandleTftpSet()>
 800222c:	e7db      	b.n	80021e6 <RemoteConfig::Run()+0xa2>
 800222e:	f812 0b01 	ldrb.w	r0, [r2], #1
 8002232:	f813 5f01 	ldrb.w	r5, [r3, #1]!
 8002236:	4285      	cmp	r5, r0
 8002238:	d0f3      	beq.n	8002222 <RemoteConfig::Run()+0xde>
 800223a:	f642 1305 	movw	r3, #10501	; 0x2905
 800223e:	9300      	str	r3, [sp, #0]
 8002240:	2208      	movs	r2, #8
 8002242:	69a3      	ldr	r3, [r4, #24]
 8002244:	4904      	ldr	r1, [pc, #16]	; (8002258 <RemoteConfig::Run()+0x114>)
 8002246:	e7b6      	b.n	80021b6 <RemoteConfig::Run()+0x72>
 8002248:	20001124 	andcs	r1, r0, r4, lsr #2
 800224c:	08006618 	stmdaeq	r0, {r3, r4, r9, sl, sp, lr}
 8002250:	08006491 	stmdaeq	r0, {r0, r4, r7, sl, sp, lr}
 8002254:	0800648b 	stmdaeq	r0, {r0, r1, r3, r7, sl, sp, lr}
 8002258:	0800649a 	stmdaeq	r0, {r1, r3, r4, r7, sl, sp, lr}

0800225c <RemoteConfig::TftpExit()>:
 800225c:	2306      	movs	r3, #6
 800225e:	2230      	movs	r2, #48	; 0x30
 8002260:	8383      	strh	r3, [r0, #28]
 8002262:	4b02      	ldr	r3, [pc, #8]	; (800226c <RemoteConfig::TftpExit()+0x10>)
 8002264:	681b      	ldr	r3, [r3, #0]
 8002266:	719a      	strb	r2, [r3, #6]
 8002268:	f7ff be72 	b.w	8001f50 <RemoteConfig::HandleTftpSet()>
 800226c:	20001124 	andcs	r1, r0, r4, lsr #2

08002270 <RemoteConfig::HandleFactory()>:
 8002270:	b538      	push	{r3, r4, r5, lr}
 8002272:	2400      	movs	r4, #0
 8002274:	4d04      	ldr	r5, [pc, #16]	; (8002288 <RemoteConfig::HandleFactory()+0x18>)
 8002276:	4621      	mov	r1, r4
 8002278:	6828      	ldr	r0, [r5, #0]
 800227a:	3401      	adds	r4, #1
 800227c:	f7ff fba2 	bl	80019c4 <SpiFlashStore::ResetSetList(spiflashstore::Store)>
 8002280:	2c1c      	cmp	r4, #28
 8002282:	d1f8      	bne.n	8002276 <RemoteConfig::HandleFactory()+0x6>
 8002284:	bd38      	pop	{r3, r4, r5, pc}
 8002286:	bf00      	nop
 8002288:	20001114 	andcs	r1, r0, r4, lsl r1

0800228c <RemoteConfigParams::RemoteConfigParams(RemoteConfigParamsStore*)>:
 800228c:	b510      	push	{r4, lr}
 800228e:	4604      	mov	r4, r0
 8002290:	2220      	movs	r2, #32
 8002292:	f840 1b04 	str.w	r1, [r0], #4
 8002296:	2100      	movs	r1, #0
 8002298:	f001 fdb5 	bl	8003e06 <memset>
 800229c:	4620      	mov	r0, r4
 800229e:	bd10      	pop	{r4, pc}

080022a0 <RemoteConfigParams::Load()>:
 80022a0:	b508      	push	{r3, lr}
 80022a2:	2300      	movs	r3, #0
 80022a4:	4601      	mov	r1, r0
 80022a6:	6043      	str	r3, [r0, #4]
 80022a8:	6800      	ldr	r0, [r0, #0]
 80022aa:	b120      	cbz	r0, 80022b6 <RemoteConfigParams::Load()+0x16>
 80022ac:	6803      	ldr	r3, [r0, #0]
 80022ae:	3104      	adds	r1, #4
 80022b0:	68db      	ldr	r3, [r3, #12]
 80022b2:	4798      	blx	r3
 80022b4:	2001      	movs	r0, #1
 80022b6:	bd08      	pop	{r3, pc}

080022b8 <RemoteConfigParams::Set(RemoteConfig*)>:
 80022b8:	b538      	push	{r3, r4, r5, lr}
 80022ba:	460c      	mov	r4, r1
 80022bc:	4605      	mov	r5, r0
 80022be:	6841      	ldr	r1, [r0, #4]
 80022c0:	4620      	mov	r0, r4
 80022c2:	f001 0101 	and.w	r1, r1, #1
 80022c6:	f7ff ff05 	bl	80020d4 <RemoteConfig::SetDisable(bool)>
 80022ca:	686b      	ldr	r3, [r5, #4]
 80022cc:	f3c3 0240 	ubfx	r2, r3, #1, #1
 80022d0:	7362      	strb	r2, [r4, #13]
 80022d2:	f3c3 0280 	ubfx	r2, r3, #2, #1
 80022d6:	73a2      	strb	r2, [r4, #14]
 80022d8:	f3c3 02c0 	ubfx	r2, r3, #3, #1
 80022dc:	73e2      	strb	r2, [r4, #15]
 80022de:	f3c3 1240 	ubfx	r2, r3, #5, #1
 80022e2:	06db      	lsls	r3, r3, #27
 80022e4:	7422      	strb	r2, [r4, #16]
 80022e6:	d506      	bpl.n	80022f6 <RemoteConfigParams::Set(RemoteConfig*)+0x3e>
 80022e8:	4620      	mov	r0, r4
 80022ea:	f105 010c 	add.w	r1, r5, #12
 80022ee:	e8bd 4038 	ldmia.w	sp!, {r3, r4, r5, lr}
 80022f2:	f7ff bf0f 	b.w	8002114 <RemoteConfig::SetDisplayName(char const*)>
 80022f6:	bd38      	pop	{r3, r4, r5, pc}

080022f8 <RemoteConfig::HandleReboot()>:
 80022f8:	7b83      	ldrb	r3, [r0, #14]
 80022fa:	b537      	push	{r0, r1, r2, r4, r5, lr}
 80022fc:	2b00      	cmp	r3, #0
 80022fe:	d03f      	beq.n	8002380 <RemoteConfig::HandleReboot()+0x88>
 8002300:	2301      	movs	r3, #1
 8002302:	4c20      	ldr	r4, [pc, #128]	; (8002384 <RemoteConfig::HandleReboot()+0x8c>)
 8002304:	7443      	strb	r3, [r0, #17]
 8002306:	6825      	ldr	r5, [r4, #0]
 8002308:	69a8      	ldr	r0, [r5, #24]
 800230a:	b138      	cbz	r0, 800231c <RemoteConfig::HandleReboot()+0x24>
 800230c:	2100      	movs	r1, #0
 800230e:	6803      	ldr	r3, [r0, #0]
 8002310:	7429      	strb	r1, [r5, #16]
 8002312:	6a9b      	ldr	r3, [r3, #40]	; 0x28
 8002314:	4798      	blx	r3
 8002316:	4b1c      	ldr	r3, [pc, #112]	; (8002388 <RemoteConfig::HandleReboot()+0x90>)
 8002318:	681b      	ldr	r3, [r3, #0]
 800231a:	606b      	str	r3, [r5, #4]
 800231c:	4d1b      	ldr	r5, [pc, #108]	; (800238c <RemoteConfig::HandleReboot()+0x94>)
 800231e:	6828      	ldr	r0, [r5, #0]
 8002320:	f7ff fbce 	bl	8001ac0 <SpiFlashStore::Flash()>
 8002324:	2800      	cmp	r0, #0
 8002326:	d1fa      	bne.n	800231e <RemoteConfig::HandleReboot()+0x26>
 8002328:	4b19      	ldr	r3, [pc, #100]	; (8002390 <RemoteConfig::HandleReboot()+0x98>)
 800232a:	6818      	ldr	r0, [r3, #0]
 800232c:	f000 fdf6 	bl	8002f1c <Network::Shutdown()>
 8002330:	4818      	ldr	r0, [pc, #96]	; (8002394 <RemoteConfig::HandleReboot()+0x9c>)
 8002332:	f7fe fe33 	bl	8000f9c <printf>
 8002336:	6823      	ldr	r3, [r4, #0]
 8002338:	6998      	ldr	r0, [r3, #24]
 800233a:	b110      	cbz	r0, 8002342 <RemoteConfig::HandleReboot()+0x4a>
 800233c:	6803      	ldr	r3, [r0, #0]
 800233e:	68db      	ldr	r3, [r3, #12]
 8002340:	4798      	blx	r3
 8002342:	6824      	ldr	r4, [r4, #0]
 8002344:	4914      	ldr	r1, [pc, #80]	; (8002398 <RemoteConfig::HandleReboot()+0xa0>)
 8002346:	4620      	mov	r0, r4
 8002348:	f7ff fd9e 	bl	8001e88 <Display::TextStatus(char const*)>
 800234c:	7c63      	ldrb	r3, [r4, #17]
 800234e:	b183      	cbz	r3, 8002372 <RemoteConfig::HandleReboot()+0x7a>
 8002350:	f64b 7312 	movw	r3, #48914	; 0xbf12
 8002354:	f8ad 3004 	strh.w	r3, [sp, #4]
 8002358:	23bf      	movs	r3, #191	; 0xbf
 800235a:	7a20      	ldrb	r0, [r4, #8]
 800235c:	f88d 3006 	strb.w	r3, [sp, #6]
 8002360:	f002 fd06 	bl	8004d70 <gd32_i2c_set_address>
 8002364:	68e0      	ldr	r0, [r4, #12]
 8002366:	f002 fcfb 	bl	8004d60 <gd32_i2c_set_baudrate>
 800236a:	2103      	movs	r1, #3
 800236c:	a801      	add	r0, sp, #4
 800236e:	f002 fd05 	bl	8004d7c <gd32_i2c_write>
 8002372:	4b0a      	ldr	r3, [pc, #40]	; (800239c <RemoteConfig::HandleReboot()+0xa4>)
 8002374:	6818      	ldr	r0, [r3, #0]
 8002376:	b003      	add	sp, #12
 8002378:	e8bd 4030 	ldmia.w	sp!, {r4, r5, lr}
 800237c:	f001 bca0 	b.w	8003cc0 <Hardware::Reboot()>
 8002380:	b003      	add	sp, #12
 8002382:	bd30      	pop	{r4, r5, pc}
 8002384:	20000074 	andcs	r0, r0, r4, ror r0
 8002388:	200039c4 	andcs	r3, r0, r4, asr #19
 800238c:	20001114 	andcs	r1, r0, r4, lsl r1
 8002390:	2000349c 	mulcs	r0, ip, r4
 8002394:	08006688 	stmdaeq	r0, {r3, r7, r9, sl, sp, lr}
 8002398:	08006697 	stmdaeq	r0, {r0, r1, r2, r4, r7, r9, sl, sp, lr}
 800239c:	200039b0 			; <UNDEFINED> instruction: 0x200039b0

080023a0 <TFTPFileServer::FileOpen(char const*, TFTPMode)>:
 80023a0:	2000      	movs	r0, #0
 80023a2:	4770      	bx	lr

080023a4 <TFTPFileServer::FileRead(void*, unsigned int, unsigned int)>:
 80023a4:	2000      	movs	r0, #0
 80023a6:	4770      	bx	lr

080023a8 <TFTPFileServer::Exit()>:
 80023a8:	4b01      	ldr	r3, [pc, #4]	; (80023b0 <TFTPFileServer::Exit()+0x8>)
 80023aa:	6818      	ldr	r0, [r3, #0]
 80023ac:	f7ff bf56 	b.w	800225c <RemoteConfig::TftpExit()>
 80023b0:	2000114c 	andcs	r1, r0, ip, asr #2

080023b4 <TFTPFileServer::~TFTPFileServer()>:
 80023b4:	b510      	push	{r4, lr}
 80023b6:	4604      	mov	r4, r0
 80023b8:	4b02      	ldr	r3, [pc, #8]	; (80023c4 <TFTPFileServer::~TFTPFileServer()+0x10>)
 80023ba:	6003      	str	r3, [r0, #0]
 80023bc:	f000 fbbc 	bl	8002b38 <TFTPDaemon::~TFTPDaemon()>
 80023c0:	4620      	mov	r0, r4
 80023c2:	bd10      	pop	{r4, pc}
 80023c4:	080066ec 	stmdaeq	r0, {r2, r3, r5, r6, r7, r9, sl, sp, lr}

080023c8 <TFTPFileServer::~TFTPFileServer()>:
 80023c8:	b510      	push	{r4, lr}
 80023ca:	4604      	mov	r4, r0
 80023cc:	f7ff fff2 	bl	80023b4 <TFTPFileServer::~TFTPFileServer()>
 80023d0:	4620      	mov	r0, r4
 80023d2:	f001 fcb1 	bl	8003d38 <operator delete(void*)>
 80023d6:	4620      	mov	r0, r4
 80023d8:	bd10      	pop	{r4, pc}

080023da <TFTPFileServer::FileWrite(void const*, unsigned int, unsigned int)>:
 80023da:	b5f8      	push	{r3, r4, r5, r6, r7, lr}
 80023dc:	461d      	mov	r5, r3
 80023de:	f8d0 3238 	ldr.w	r3, [r0, #568]	; 0x238
 80023e2:	4606      	mov	r6, r0
 80023e4:	ebb5 2f53 	cmp.w	r5, r3, lsr #9
 80023e8:	460f      	mov	r7, r1
 80023ea:	4614      	mov	r4, r2
 80023ec:	d904      	bls.n	80023f8 <TFTPFileServer::FileWrite(void const*, unsigned int, unsigned int)+0x1e>
 80023ee:	2400      	movs	r4, #0
 80023f0:	f8c0 423c 	str.w	r4, [r0, #572]	; 0x23c
 80023f4:	4620      	mov	r0, r4
 80023f6:	bdf8      	pop	{r3, r4, r5, r6, r7, pc}
 80023f8:	2d01      	cmp	r5, #1
 80023fa:	d00f      	beq.n	800241c <TFTPFileServer::FileWrite(void const*, unsigned int, unsigned int)+0x42>
 80023fc:	f46f 7300 	mvn.w	r3, #512	; 0x200
 8002400:	026d      	lsls	r5, r5, #9
 8002402:	441d      	add	r5, r3
 8002404:	f8d6 3234 	ldr.w	r3, [r6, #564]	; 0x234
 8002408:	193a      	adds	r2, r7, r4
 800240a:	442b      	add	r3, r5
 800240c:	42ba      	cmp	r2, r7
 800240e:	d10c      	bne.n	800242a <TFTPFileServer::FileWrite(void const*, unsigned int, unsigned int)+0x50>
 8002410:	f8d6 323c 	ldr.w	r3, [r6, #572]	; 0x23c
 8002414:	4423      	add	r3, r4
 8002416:	f8c6 323c 	str.w	r3, [r6, #572]	; 0x23c
 800241a:	e7eb      	b.n	80023f4 <TFTPFileServer::FileWrite(void const*, unsigned int, unsigned int)+0x1a>
 800241c:	4608      	mov	r0, r1
 800241e:	f000 f863 	bl	80024e8 <tftpfileserver::is_valid(void const*)>
 8002422:	2800      	cmp	r0, #0
 8002424:	d1ea      	bne.n	80023fc <TFTPFileServer::FileWrite(void const*, unsigned int, unsigned int)+0x22>
 8002426:	4604      	mov	r4, r0
 8002428:	e7e4      	b.n	80023f4 <TFTPFileServer::FileWrite(void const*, unsigned int, unsigned int)+0x1a>
 800242a:	f817 1b01 	ldrb.w	r1, [r7], #1
 800242e:	f803 1f01 	strb.w	r1, [r3, #1]!
 8002432:	e7eb      	b.n	800240c <TFTPFileServer::FileWrite(void const*, unsigned int, unsigned int)+0x32>

08002434 <TFTPFileServer::FileClose()>:
 8002434:	b538      	push	{r3, r4, r5, lr}
 8002436:	2401      	movs	r4, #1
 8002438:	f880 4240 	strb.w	r4, [r0, #576]	; 0x240
 800243c:	4807      	ldr	r0, [pc, #28]	; (800245c <TFTPFileServer::FileClose()+0x28>)
 800243e:	f7fe fdad 	bl	8000f9c <printf>
 8002442:	4b07      	ldr	r3, [pc, #28]	; (8002460 <TFTPFileServer::FileClose()+0x2c>)
 8002444:	4907      	ldr	r1, [pc, #28]	; (8002464 <TFTPFileServer::FileClose()+0x30>)
 8002446:	681d      	ldr	r5, [r3, #0]
 8002448:	4628      	mov	r0, r5
 800244a:	f7ff fd1d 	bl	8001e88 <Display::TextStatus(char const*)>
 800244e:	4628      	mov	r0, r5
 8002450:	f645 3171 	movw	r1, #23409	; 0x5b71
 8002454:	f7fe faec 	bl	8000a30 <Display::Status(Display7SegmentMessage)>
 8002458:	4620      	mov	r0, r4
 800245a:	bd38      	pop	{r3, r4, r5, pc}
 800245c:	080066a5 	stmdaeq	r0, {r0, r2, r5, r7, r9, sl, sp, lr}
 8002460:	20000074 	andcs	r0, r0, r4, ror r0
 8002464:	080066b1 	stmdaeq	r0, {r0, r4, r5, r7, r9, sl, sp, lr}

08002468 <TFTPFileServer::FileCreate(char const*, TFTPMode)>:
 8002468:	b538      	push	{r3, r4, r5, lr}
 800246a:	4604      	mov	r4, r0
 800246c:	b9f2      	cbnz	r2, 80024ac <TFTPFileServer::FileCreate(char const*, TFTPMode)+0x44>
 800246e:	4a10      	ldr	r2, [pc, #64]	; (80024b0 <TFTPFileServer::FileCreate(char const*, TFTPMode)+0x48>)
 8002470:	1e4b      	subs	r3, r1, #1
 8002472:	310b      	adds	r1, #11
 8002474:	f812 5b01 	ldrb.w	r5, [r2], #1
 8002478:	f813 0f01 	ldrb.w	r0, [r3, #1]!
 800247c:	42a8      	cmp	r0, r5
 800247e:	d115      	bne.n	80024ac <TFTPFileServer::FileCreate(char const*, TFTPMode)+0x44>
 8002480:	b108      	cbz	r0, 8002486 <TFTPFileServer::FileCreate(char const*, TFTPMode)+0x1e>
 8002482:	428b      	cmp	r3, r1
 8002484:	d1f6      	bne.n	8002474 <TFTPFileServer::FileCreate(char const*, TFTPMode)+0xc>
 8002486:	480b      	ldr	r0, [pc, #44]	; (80024b4 <TFTPFileServer::FileCreate(char const*, TFTPMode)+0x4c>)
 8002488:	f7fe fd88 	bl	8000f9c <printf>
 800248c:	4b0a      	ldr	r3, [pc, #40]	; (80024b8 <TFTPFileServer::FileCreate(char const*, TFTPMode)+0x50>)
 800248e:	490b      	ldr	r1, [pc, #44]	; (80024bc <TFTPFileServer::FileCreate(char const*, TFTPMode)+0x54>)
 8002490:	681d      	ldr	r5, [r3, #0]
 8002492:	4628      	mov	r0, r5
 8002494:	f7ff fcf8 	bl	8001e88 <Display::TextStatus(char const*)>
 8002498:	4628      	mov	r0, r5
 800249a:	f240 6171 	movw	r1, #1649	; 0x671
 800249e:	f7fe fac7 	bl	8000a30 <Display::Status(Display7SegmentMessage)>
 80024a2:	2300      	movs	r3, #0
 80024a4:	2001      	movs	r0, #1
 80024a6:	f8c4 323c 	str.w	r3, [r4, #572]	; 0x23c
 80024aa:	bd38      	pop	{r3, r4, r5, pc}
 80024ac:	2000      	movs	r0, #0
 80024ae:	e7fc      	b.n	80024aa <TFTPFileServer::FileCreate(char const*, TFTPMode)+0x42>
 80024b0:	080066d7 	stmdaeq	r0, {r0, r1, r2, r4, r6, r7, r9, sl, sp, lr}
 80024b4:	080066bc 	stmdaeq	r0, {r2, r3, r4, r5, r7, r9, sl, sp, lr}
 80024b8:	20000074 	andcs	r0, r0, r4, ror r0
 80024bc:	080066ca 	stmdaeq	r0, {r1, r3, r6, r7, r9, sl, sp, lr}

080024c0 <TFTPFileServer::TFTPFileServer(unsigned char*, unsigned int)>:
 80024c0:	b570      	push	{r4, r5, r6, lr}
 80024c2:	4604      	mov	r4, r0
 80024c4:	460e      	mov	r6, r1
 80024c6:	4615      	mov	r5, r2
 80024c8:	f000 fb08 	bl	8002adc <TFTPDaemon::TFTPDaemon()>
 80024cc:	4b05      	ldr	r3, [pc, #20]	; (80024e4 <TFTPFileServer::TFTPFileServer(unsigned char*, unsigned int)+0x24>)
 80024ce:	4620      	mov	r0, r4
 80024d0:	6023      	str	r3, [r4, #0]
 80024d2:	2300      	movs	r3, #0
 80024d4:	e9c4 658d 	strd	r6, r5, [r4, #564]	; 0x234
 80024d8:	f8c4 323c 	str.w	r3, [r4, #572]	; 0x23c
 80024dc:	f884 3240 	strb.w	r3, [r4, #576]	; 0x240
 80024e0:	bd70      	pop	{r4, r5, r6, pc}
 80024e2:	bf00      	nop
 80024e4:	080066ec 	stmdaeq	r0, {r2, r3, r5, r6, r7, r9, sl, sp, lr}

080024e8 <tftpfileserver::is_valid(void const*)>:
 80024e8:	2001      	movs	r0, #1
 80024ea:	4770      	bx	lr

080024ec <SpiFlashInstall::SpiFlashInstall()>:
 80024ec:	2300      	movs	r3, #0
 80024ee:	b573      	push	{r0, r1, r4, r5, r6, lr}
 80024f0:	e9c0 3300 	strd	r3, r3, [r0]
 80024f4:	e9c0 3302 	strd	r3, r3, [r0, #8]
 80024f8:	6103      	str	r3, [r0, #16]
 80024fa:	7503      	strb	r3, [r0, #20]
 80024fc:	4e17      	ldr	r6, [pc, #92]	; (800255c <SpiFlashInstall::SpiFlashInstall()+0x70>)
 80024fe:	4b18      	ldr	r3, [pc, #96]	; (8002560 <SpiFlashInstall::SpiFlashInstall()+0x74>)
 8002500:	4604      	mov	r4, r0
 8002502:	6018      	str	r0, [r3, #0]
 8002504:	6833      	ldr	r3, [r6, #0]
 8002506:	6998      	ldr	r0, [r3, #24]
 8002508:	b110      	cbz	r0, 8002510 <SpiFlashInstall::SpiFlashInstall()+0x24>
 800250a:	6803      	ldr	r3, [r0, #0]
 800250c:	68db      	ldr	r3, [r3, #12]
 800250e:	4798      	blx	r3
 8002510:	f000 f8a8 	bl	8002664 <spi_flash_get_size>
 8002514:	6060      	str	r0, [r4, #4]
 8002516:	f000 f8a1 	bl	800265c <spi_flash_get_name>
 800251a:	4605      	mov	r5, r0
 800251c:	f000 f8aa 	bl	8002674 <spi_flash_get_sector_size>
 8002520:	6863      	ldr	r3, [r4, #4]
 8002522:	4602      	mov	r2, r0
 8002524:	0a99      	lsrs	r1, r3, #10
 8002526:	9100      	str	r1, [sp, #0]
 8002528:	480e      	ldr	r0, [pc, #56]	; (8002564 <SpiFlashInstall::SpiFlashInstall()+0x78>)
 800252a:	4629      	mov	r1, r5
 800252c:	f7fe fd36 	bl	8000f9c <printf>
 8002530:	6835      	ldr	r5, [r6, #0]
 8002532:	f000 f893 	bl	800265c <spi_flash_get_name>
 8002536:	4602      	mov	r2, r0
 8002538:	69a8      	ldr	r0, [r5, #24]
 800253a:	b160      	cbz	r0, 8002556 <SpiFlashInstall::SpiFlashInstall()+0x6a>
 800253c:	2300      	movs	r3, #0
 800253e:	7905      	ldrb	r5, [r0, #4]
 8002540:	5cd1      	ldrb	r1, [r2, r3]
 8002542:	b119      	cbz	r1, 800254c <SpiFlashInstall::SpiFlashInstall()+0x60>
 8002544:	1c59      	adds	r1, r3, #1
 8002546:	429d      	cmp	r5, r3
 8002548:	460b      	mov	r3, r1
 800254a:	dcf9      	bgt.n	8002540 <SpiFlashInstall::SpiFlashInstall()+0x54>
 800254c:	6801      	ldr	r1, [r0, #0]
 800254e:	b2db      	uxtb	r3, r3
 8002550:	69cd      	ldr	r5, [r1, #28]
 8002552:	2101      	movs	r1, #1
 8002554:	47a8      	blx	r5
 8002556:	4620      	mov	r0, r4
 8002558:	b002      	add	sp, #8
 800255a:	bd70      	pop	{r4, r5, r6, pc}
 800255c:	20000074 	andcs	r0, r0, r4, ror r0
 8002560:	20001150 	andcs	r1, r0, r0, asr r1
 8002564:	0800670c 	stmdaeq	r0, {r2, r3, r8, r9, sl, sp, lr}

08002568 <SpiFlashInstall::WriteFirmware(unsigned char const*, unsigned int)>:
 8002568:	e92d 43f8 	stmdb	sp!, {r3, r4, r5, r6, r7, r8, r9, lr}
 800256c:	460e      	mov	r6, r1
 800256e:	4614      	mov	r4, r2
 8002570:	f502 41e0 	add.w	r1, r2, #28672	; 0x7000
 8002574:	6842      	ldr	r2, [r0, #4]
 8002576:	4291      	cmp	r1, r2
 8002578:	d905      	bls.n	8002586 <SpiFlashInstall::WriteFirmware(unsigned char const*, unsigned int)+0x1e>
 800257a:	482f      	ldr	r0, [pc, #188]	; (8002638 <SpiFlashInstall::WriteFirmware(unsigned char const*, unsigned int)+0xd0>)
 800257c:	f7fe fd0e 	bl	8000f9c <printf>
 8002580:	2000      	movs	r0, #0
 8002582:	e8bd 83f8 	ldmia.w	sp!, {r3, r4, r5, r6, r7, r8, r9, pc}
 8002586:	4f2d      	ldr	r7, [pc, #180]	; (800263c <SpiFlashInstall::WriteFirmware(unsigned char const*, unsigned int)+0xd4>)
 8002588:	683b      	ldr	r3, [r7, #0]
 800258a:	f893 8000 	ldrb.w	r8, [r3]
 800258e:	f1b8 0f00 	cmp.w	r8, #0
 8002592:	d006      	beq.n	80025a2 <SpiFlashInstall::WriteFirmware(unsigned char const*, unsigned int)+0x3a>
 8002594:	2200      	movs	r2, #0
 8002596:	2104      	movs	r1, #4
 8002598:	f64f 70ff 	movw	r0, #65535	; 0xffff
 800259c:	701a      	strb	r2, [r3, #0]
 800259e:	f001 ff11 	bl	80043c4 <fwdgt_config>
 80025a2:	4827      	ldr	r0, [pc, #156]	; (8002640 <SpiFlashInstall::WriteFirmware(unsigned char const*, unsigned int)+0xd8>)
 80025a4:	f001 fc50 	bl	8003e48 <puts>
 80025a8:	f000 f864 	bl	8002674 <spi_flash_get_sector_size>
 80025ac:	f8df 9094 	ldr.w	r9, [pc, #148]	; 8002644 <SpiFlashInstall::WriteFirmware(unsigned char const*, unsigned int)+0xdc>
 80025b0:	1e65      	subs	r5, r4, #1
 80025b2:	4405      	add	r5, r0
 80025b4:	4240      	negs	r0, r0
 80025b6:	2302      	movs	r3, #2
 80025b8:	f240 6239 	movw	r2, #1593	; 0x639
 80025bc:	4922      	ldr	r1, [pc, #136]	; (8002648 <SpiFlashInstall::WriteFirmware(unsigned char const*, unsigned int)+0xe0>)
 80025be:	4005      	ands	r5, r0
 80025c0:	f8d9 0000 	ldr.w	r0, [r9]
 80025c4:	f7ff fc9b 	bl	8001efe <Display::TextStatus(char const*, Display7SegmentMessage, unsigned int)>
 80025c8:	4629      	mov	r1, r5
 80025ca:	f44f 40e0 	mov.w	r0, #28672	; 0x7000
 80025ce:	f000 f882 	bl	80026d6 <spi_flash_cmd_erase>
 80025d2:	2800      	cmp	r0, #0
 80025d4:	da03      	bge.n	80025de <SpiFlashInstall::WriteFirmware(unsigned char const*, unsigned int)+0x76>
 80025d6:	481d      	ldr	r0, [pc, #116]	; (800264c <SpiFlashInstall::WriteFirmware(unsigned char const*, unsigned int)+0xe4>)
 80025d8:	f001 fc36 	bl	8003e48 <puts>
 80025dc:	e7d0      	b.n	8002580 <SpiFlashInstall::WriteFirmware(unsigned char const*, unsigned int)+0x18>
 80025de:	2302      	movs	r3, #2
 80025e0:	f645 3239 	movw	r2, #23353	; 0x5b39
 80025e4:	491a      	ldr	r1, [pc, #104]	; (8002650 <SpiFlashInstall::WriteFirmware(unsigned char const*, unsigned int)+0xe8>)
 80025e6:	f8d9 0000 	ldr.w	r0, [r9]
 80025ea:	f7ff fc88 	bl	8001efe <Display::TextStatus(char const*, Display7SegmentMessage, unsigned int)>
 80025ee:	4632      	mov	r2, r6
 80025f0:	4621      	mov	r1, r4
 80025f2:	f44f 40e0 	mov.w	r0, #28672	; 0x7000
 80025f6:	f000 f84e 	bl	8002696 <spi_flash_cmd_write_multi>
 80025fa:	2800      	cmp	r0, #0
 80025fc:	da01      	bge.n	8002602 <SpiFlashInstall::WriteFirmware(unsigned char const*, unsigned int)+0x9a>
 80025fe:	4815      	ldr	r0, [pc, #84]	; (8002654 <SpiFlashInstall::WriteFirmware(unsigned char const*, unsigned int)+0xec>)
 8002600:	e7ea      	b.n	80025d8 <SpiFlashInstall::WriteFirmware(unsigned char const*, unsigned int)+0x70>
 8002602:	f1b8 0f00 	cmp.w	r8, #0
 8002606:	d00d      	beq.n	8002624 <SpiFlashInstall::WriteFirmware(unsigned char const*, unsigned int)+0xbc>
 8002608:	2102      	movs	r1, #2
 800260a:	f64f 70ff 	movw	r0, #65535	; 0xffff
 800260e:	683c      	ldr	r4, [r7, #0]
 8002610:	f001 fed8 	bl	80043c4 <fwdgt_config>
 8002614:	2801      	cmp	r0, #1
 8002616:	bf0c      	ite	eq
 8002618:	2301      	moveq	r3, #1
 800261a:	2300      	movne	r3, #0
 800261c:	7023      	strb	r3, [r4, #0]
 800261e:	d101      	bne.n	8002624 <SpiFlashInstall::WriteFirmware(unsigned char const*, unsigned int)+0xbc>
 8002620:	f001 fec0 	bl	80043a4 <fwdgt_enable>
 8002624:	f8d9 0000 	ldr.w	r0, [r9]
 8002628:	2302      	movs	r3, #2
 800262a:	f643 1239 	movw	r2, #14649	; 0x3939
 800262e:	490a      	ldr	r1, [pc, #40]	; (8002658 <SpiFlashInstall::WriteFirmware(unsigned char const*, unsigned int)+0xf0>)
 8002630:	f7ff fc65 	bl	8001efe <Display::TextStatus(char const*, Display7SegmentMessage, unsigned int)>
 8002634:	2001      	movs	r0, #1
 8002636:	e7a4      	b.n	8002582 <SpiFlashInstall::WriteFirmware(unsigned char const*, unsigned int)+0x1a>
 8002638:	08006732 	stmdaeq	r0, {r1, r4, r5, r8, r9, sl, sp, lr}
 800263c:	200039b0 			; <UNDEFINED> instruction: 0x200039b0
 8002640:	0800674d 	stmdaeq	r0, {r0, r2, r3, r6, r8, r9, sl, sp, lr}
 8002644:	20000074 	andcs	r0, r0, r4, ror r0
 8002648:	0800675c 	stmdaeq	r0, {r2, r3, r4, r6, r8, r9, sl, sp, lr}
 800264c:	08006762 	stmdaeq	r0, {r1, r5, r6, r8, r9, sl, sp, lr}
 8002650:	08006775 	stmdaeq	r0, {r0, r2, r4, r5, r6, r8, r9, sl, sp, lr}
 8002654:	0800677d 	stmdaeq	r0, {r0, r2, r3, r4, r5, r6, r8, r9, sl, sp, lr}
 8002658:	08006790 	stmdaeq	r0, {r4, r7, r8, r9, sl, sp, lr}

0800265c <spi_flash_get_name>:
 800265c:	4800      	ldr	r0, [pc, #0]	; (8002660 <spi_flash_get_name+0x4>)
 800265e:	4770      	bx	lr
 8002660:	08006795 	stmdaeq	r0, {r0, r2, r4, r7, r8, r9, sl, sp, lr}

08002664 <spi_flash_get_size>:
 8002664:	4b02      	ldr	r3, [pc, #8]	; (8002670 <spi_flash_get_size+0xc>)
 8002666:	f8b3 00e0 	ldrh.w	r0, [r3, #224]	; 0xe0
 800266a:	0280      	lsls	r0, r0, #10
 800266c:	4770      	bx	lr
 800266e:	bf00      	nop
 8002670:	1ffff700 	svcne	0x00fff700

08002674 <spi_flash_get_sector_size>:
 8002674:	f44f 5080 	mov.w	r0, #4096	; 0x1000
 8002678:	4770      	bx	lr

0800267a <spi_flash_probe>:
 800267a:	2001      	movs	r0, #1
 800267c:	4770      	bx	lr

0800267e <spi_flash_cmd_read_fast>:
 800267e:	f100 6000 	add.w	r0, r0, #134217728	; 0x8000000
 8002682:	4411      	add	r1, r2
 8002684:	428a      	cmp	r2, r1
 8002686:	d101      	bne.n	800268c <spi_flash_cmd_read_fast+0xe>
 8002688:	2000      	movs	r0, #0
 800268a:	4770      	bx	lr
 800268c:	f850 3b04 	ldr.w	r3, [r0], #4
 8002690:	f842 3b04 	str.w	r3, [r2], #4
 8002694:	e7f6      	b.n	8002684 <spi_flash_cmd_read_fast+0x6>

08002696 <spi_flash_cmd_write_multi>:
 8002696:	b570      	push	{r4, r5, r6, lr}
 8002698:	4604      	mov	r4, r0
 800269a:	460e      	mov	r6, r1
 800269c:	4615      	mov	r5, r2
 800269e:	f001 fdad 	bl	80041fc <fmc_bank0_unlock>
 80026a2:	f104 6400 	add.w	r4, r4, #134217728	; 0x8000000
 80026a6:	2e03      	cmp	r6, #3
 80026a8:	462b      	mov	r3, r5
 80026aa:	d809      	bhi.n	80026c0 <spi_flash_cmd_write_multi+0x2a>
 80026ac:	b126      	cbz	r6, 80026b8 <spi_flash_cmd_write_multi+0x22>
 80026ae:	4620      	mov	r0, r4
 80026b0:	6829      	ldr	r1, [r5, #0]
 80026b2:	f001 fe3b 	bl	800432c <fmc_word_program>
 80026b6:	b948      	cbnz	r0, 80026cc <spi_flash_cmd_write_multi+0x36>
 80026b8:	f001 fdae 	bl	8004218 <fmc_bank0_lock>
 80026bc:	2000      	movs	r0, #0
 80026be:	e006      	b.n	80026ce <spi_flash_cmd_write_multi+0x38>
 80026c0:	4620      	mov	r0, r4
 80026c2:	6819      	ldr	r1, [r3, #0]
 80026c4:	3504      	adds	r5, #4
 80026c6:	f001 fe31 	bl	800432c <fmc_word_program>
 80026ca:	b108      	cbz	r0, 80026d0 <spi_flash_cmd_write_multi+0x3a>
 80026cc:	4240      	negs	r0, r0
 80026ce:	bd70      	pop	{r4, r5, r6, pc}
 80026d0:	3404      	adds	r4, #4
 80026d2:	3e04      	subs	r6, #4
 80026d4:	e7e7      	b.n	80026a6 <spi_flash_cmd_write_multi+0x10>

080026d6 <spi_flash_cmd_erase>:
 80026d6:	b538      	push	{r3, r4, r5, lr}
 80026d8:	460c      	mov	r4, r1
 80026da:	f100 6500 	add.w	r5, r0, #134217728	; 0x8000000
 80026de:	f001 fd8d 	bl	80041fc <fmc_bank0_unlock>
 80026e2:	b91c      	cbnz	r4, 80026ec <spi_flash_cmd_erase+0x16>
 80026e4:	f001 fd98 	bl	8004218 <fmc_bank0_lock>
 80026e8:	4620      	mov	r0, r4
 80026ea:	e004      	b.n	80026f6 <spi_flash_cmd_erase+0x20>
 80026ec:	4628      	mov	r0, r5
 80026ee:	f001 fdd7 	bl	80042a0 <fmc_page_erase>
 80026f2:	b108      	cbz	r0, 80026f8 <spi_flash_cmd_erase+0x22>
 80026f4:	4240      	negs	r0, r0
 80026f6:	bd38      	pop	{r3, r4, r5, pc}
 80026f8:	f5a4 6400 	sub.w	r4, r4, #2048	; 0x800
 80026fc:	f505 6500 	add.w	r5, r5, #2048	; 0x800
 8002700:	e7ef      	b.n	80026e2 <spi_flash_cmd_erase+0xc>
	...

08002704 <net_timers_run>:
 8002704:	4b05      	ldr	r3, [pc, #20]	; (800271c <net_timers_run+0x18>)
 8002706:	4a06      	ldr	r2, [pc, #24]	; (8002720 <net_timers_run+0x1c>)
 8002708:	681b      	ldr	r3, [r3, #0]
 800270a:	6811      	ldr	r1, [r2, #0]
 800270c:	4299      	cmp	r1, r3
 800270e:	d803      	bhi.n	8002718 <net_timers_run+0x14>
 8002710:	3364      	adds	r3, #100	; 0x64
 8002712:	6013      	str	r3, [r2, #0]
 8002714:	f001 b91c 	b.w	8003950 <igmp_timer>
 8002718:	4770      	bx	lr
 800271a:	bf00      	nop
 800271c:	200039c4 	andcs	r3, r0, r4, asr #19
 8002720:	2000116c 	andcs	r1, r0, ip, ror #2

08002724 <rfc3927>:
 8002724:	e92d 4ff8 	stmdb	sp!, {r3, r4, r5, r6, r7, r8, r9, sl, fp, lr}
 8002728:	4606      	mov	r6, r0
 800272a:	25ff      	movs	r5, #255	; 0xff
 800272c:	4b18      	ldr	r3, [pc, #96]	; (8002790 <rfc3927+0x6c>)
 800272e:	4f19      	ldr	r7, [pc, #100]	; (8002794 <rfc3927+0x70>)
 8002730:	791a      	ldrb	r2, [r3, #4]
 8002732:	78dc      	ldrb	r4, [r3, #3]
 8002734:	f8df 8060 	ldr.w	r8, [pc, #96]	; 8002798 <rfc3927+0x74>
 8002738:	eb04 2402 	add.w	r4, r4, r2, lsl #8
 800273c:	f8d7 9000 	ldr.w	r9, [r7]
 8002740:	f8df b058 	ldr.w	fp, [pc, #88]	; 800279c <rfc3927+0x78>
 8002744:	f8df a058 	ldr.w	sl, [pc, #88]	; 80027a0 <rfc3927+0x7c>
 8002748:	ea48 4404 	orr.w	r4, r8, r4, lsl #16
 800274c:	4659      	mov	r1, fp
 800274e:	4620      	mov	r0, r4
 8002750:	f000 fe5c 	bl	800340c <arp_cache_lookup>
 8002754:	b190      	cbz	r0, 800277c <rfc3927+0x58>
 8002756:	ba24      	rev	r4, r4
 8002758:	3401      	adds	r4, #1
 800275a:	3d01      	subs	r5, #1
 800275c:	ba24      	rev	r4, r4
 800275e:	b2ad      	uxth	r5, r5
 8002760:	4554      	cmp	r4, sl
 8002762:	bf08      	it	eq
 8002764:	4644      	moveq	r4, r8
 8002766:	b18d      	cbz	r5, 800278c <rfc3927+0x68>
 8002768:	683b      	ldr	r3, [r7, #0]
 800276a:	eba3 0309 	sub.w	r3, r3, r9
 800276e:	f5b3 7ffa 	cmp.w	r3, #500	; 0x1f4
 8002772:	d3eb      	bcc.n	800274c <rfc3927+0x28>
 8002774:	2400      	movs	r4, #0
 8002776:	4623      	mov	r3, r4
 8002778:	4620      	mov	r0, r4
 800277a:	e002      	b.n	8002782 <rfc3927+0x5e>
 800277c:	f64f 73ff 	movw	r3, #65535	; 0xffff
 8002780:	2001      	movs	r0, #1
 8002782:	e9c6 3401 	strd	r3, r4, [r6, #4]
 8002786:	6034      	str	r4, [r6, #0]
 8002788:	e8bd 8ff8 	ldmia.w	sp!, {r3, r4, r5, r6, r7, r8, r9, sl, fp, pc}
 800278c:	462c      	mov	r4, r5
 800278e:	e7f2      	b.n	8002776 <rfc3927+0x52>
 8002790:	20001170 	andcs	r1, r0, r0, ror r1
 8002794:	200039c4 	andcs	r3, r0, r4, asr #19
 8002798:	0100fea9 	smlatbeq	r0, r9, lr, pc	; <UNPREDICTABLE>
 800279c:	20001178 	andcs	r1, r0, r8, ror r1
 80027a0:	fffefea9 			; <UNDEFINED> instruction: 0xfffefea9

080027a4 <memcpy.isra.0>:
 80027a4:	3801      	subs	r0, #1
 80027a6:	440a      	add	r2, r1
 80027a8:	4291      	cmp	r1, r2
 80027aa:	d100      	bne.n	80027ae <memcpy.isra.0+0xa>
 80027ac:	4770      	bx	lr
 80027ae:	f811 3b01 	ldrb.w	r3, [r1], #1
 80027b2:	f800 3f01 	strb.w	r3, [r0, #1]!
 80027b6:	e7f7      	b.n	80027a8 <memcpy.isra.0+0x4>

080027b8 <memcpy.isra.0>:
 80027b8:	3801      	subs	r0, #1
 80027ba:	440a      	add	r2, r1
 80027bc:	4291      	cmp	r1, r2
 80027be:	d100      	bne.n	80027c2 <memcpy.isra.0+0xa>
 80027c0:	4770      	bx	lr
 80027c2:	f811 3b01 	ldrb.w	r3, [r1], #1
 80027c6:	f800 3f01 	strb.w	r3, [r0, #1]!
 80027ca:	e7f7      	b.n	80027bc <memcpy.isra.0+0x4>

080027cc <net_memcpy>:
 80027cc:	ea40 0301 	orr.w	r3, r0, r1
 80027d0:	079b      	lsls	r3, r3, #30
 80027d2:	b570      	push	{r4, r5, r6, lr}
 80027d4:	d108      	bne.n	80027e8 <net_memcpy+0x1c>
 80027d6:	f022 0303 	bic.w	r3, r2, #3
 80027da:	1f04      	subs	r4, r0, #4
 80027dc:	18cd      	adds	r5, r1, r3
 80027de:	42a9      	cmp	r1, r5
 80027e0:	d108      	bne.n	80027f4 <net_memcpy+0x28>
 80027e2:	1ad2      	subs	r2, r2, r3
 80027e4:	4403      	add	r3, r0
 80027e6:	e000      	b.n	80027ea <net_memcpy+0x1e>
 80027e8:	4603      	mov	r3, r0
 80027ea:	3b01      	subs	r3, #1
 80027ec:	440a      	add	r2, r1
 80027ee:	4291      	cmp	r1, r2
 80027f0:	d105      	bne.n	80027fe <net_memcpy+0x32>
 80027f2:	bd70      	pop	{r4, r5, r6, pc}
 80027f4:	f851 6b04 	ldr.w	r6, [r1], #4
 80027f8:	f844 6f04 	str.w	r6, [r4, #4]!
 80027fc:	e7ef      	b.n	80027de <net_memcpy+0x12>
 80027fe:	f811 4b01 	ldrb.w	r4, [r1], #1
 8002802:	f803 4f01 	strb.w	r4, [r3, #1]!
 8002806:	e7f2      	b.n	80027ee <net_memcpy+0x22>

08002808 <udp_set_ip>:
 8002808:	2204      	movs	r2, #4
 800280a:	b513      	push	{r0, r1, r4, lr}
 800280c:	4604      	mov	r4, r0
 800280e:	6803      	ldr	r3, [r0, #0]
 8002810:	eb0d 0102 	add.w	r1, sp, r2
 8002814:	4808      	ldr	r0, [pc, #32]	; (8002838 <udp_set_ip+0x30>)
 8002816:	9301      	str	r3, [sp, #4]
 8002818:	f7ff ffce 	bl	80027b8 <memcpy.isra.0>
 800281c:	6862      	ldr	r2, [r4, #4]
 800281e:	4b07      	ldr	r3, [pc, #28]	; (800283c <udp_set_ip+0x34>)
 8002820:	43d1      	mvns	r1, r2
 8002822:	6019      	str	r1, [r3, #0]
 8002824:	6823      	ldr	r3, [r4, #0]
 8002826:	4013      	ands	r3, r2
 8002828:	4a05      	ldr	r2, [pc, #20]	; (8002840 <udp_set_ip+0x38>)
 800282a:	6013      	str	r3, [r2, #0]
 800282c:	68a2      	ldr	r2, [r4, #8]
 800282e:	4b05      	ldr	r3, [pc, #20]	; (8002844 <udp_set_ip+0x3c>)
 8002830:	601a      	str	r2, [r3, #0]
 8002832:	b002      	add	sp, #8
 8002834:	bd10      	pop	{r4, pc}
 8002836:	bf00      	nop
 8002838:	20002ec6 	andcs	r2, r0, r6, asr #29
 800283c:	2000176c 	andcs	r1, r0, ip, ror #14
 8002840:	20001774 	andcs	r1, r0, r4, ror r7
 8002844:	20001770 	andcs	r1, r0, r0, ror r7

08002848 <udp_bind>:
 8002848:	b508      	push	{r3, lr}
 800284a:	4603      	mov	r3, r0
 800284c:	4a0b      	ldr	r2, [pc, #44]	; (800287c <udp_bind+0x34>)
 800284e:	6810      	ldr	r0, [r2, #0]
 8002850:	4298      	cmp	r0, r3
 8002852:	d00e      	beq.n	8002872 <udp_bind+0x2a>
 8002854:	b150      	cbz	r0, 800286c <udp_bind+0x24>
 8002856:	6851      	ldr	r1, [r2, #4]
 8002858:	428b      	cmp	r3, r1
 800285a:	d00c      	beq.n	8002876 <udp_bind+0x2e>
 800285c:	b129      	cbz	r1, 800286a <udp_bind+0x22>
 800285e:	4808      	ldr	r0, [pc, #32]	; (8002880 <udp_bind+0x38>)
 8002860:	f001 f918 	bl	8003a94 <console_error>
 8002864:	f04f 30ff 	mov.w	r0, #4294967295	; 0xffffffff
 8002868:	bd08      	pop	{r3, pc}
 800286a:	2001      	movs	r0, #1
 800286c:	f842 3020 	str.w	r3, [r2, r0, lsl #2]
 8002870:	e7fa      	b.n	8002868 <udp_bind+0x20>
 8002872:	2000      	movs	r0, #0
 8002874:	e7f8      	b.n	8002868 <udp_bind+0x20>
 8002876:	2001      	movs	r0, #1
 8002878:	e7f6      	b.n	8002868 <udp_bind+0x20>
 800287a:	bf00      	nop
 800287c:	2000177c 	andcs	r1, r0, ip, ror r7
 8002880:	0800679e 	stmdaeq	r0, {r1, r2, r3, r4, r7, r8, r9, sl, sp, lr}

08002884 <udp_unbind>:
 8002884:	4a0c      	ldr	r2, [pc, #48]	; (80028b8 <udp_unbind+0x34>)
 8002886:	b508      	push	{r3, lr}
 8002888:	6813      	ldr	r3, [r2, #0]
 800288a:	4283      	cmp	r3, r0
 800288c:	d008      	beq.n	80028a0 <udp_unbind+0x1c>
 800288e:	6853      	ldr	r3, [r2, #4]
 8002890:	4298      	cmp	r0, r3
 8002892:	d00f      	beq.n	80028b4 <udp_unbind+0x30>
 8002894:	4809      	ldr	r0, [pc, #36]	; (80028bc <udp_unbind+0x38>)
 8002896:	f001 f8fd 	bl	8003a94 <console_error>
 800289a:	f04f 30ff 	mov.w	r0, #4294967295	; 0xffffffff
 800289e:	bd08      	pop	{r3, pc}
 80028a0:	2300      	movs	r3, #0
 80028a2:	2000      	movs	r0, #0
 80028a4:	f842 0023 	str.w	r0, [r2, r3, lsl #2]
 80028a8:	f640 3294 	movw	r2, #2964	; 0xb94
 80028ac:	4353      	muls	r3, r2
 80028ae:	4a04      	ldr	r2, [pc, #16]	; (80028c0 <udp_unbind+0x3c>)
 80028b0:	50d0      	str	r0, [r2, r3]
 80028b2:	e7f4      	b.n	800289e <udp_unbind+0x1a>
 80028b4:	2301      	movs	r3, #1
 80028b6:	e7f4      	b.n	80028a2 <udp_unbind+0x1e>
 80028b8:	2000177c 	andcs	r1, r0, ip, ror r7
 80028bc:	080067a3 	stmdaeq	r0, {r0, r1, r5, r7, r8, r9, sl, sp, lr}
 80028c0:	20001784 	andcs	r1, r0, r4, lsl #15

080028c4 <udp_recv>:
 80028c4:	e92d 41f0 	stmdb	sp!, {r4, r5, r6, r7, r8, lr}
 80028c8:	4604      	mov	r4, r0
 80028ca:	4698      	mov	r8, r3
 80028cc:	f640 3394 	movw	r3, #2964	; 0xb94
 80028d0:	435c      	muls	r4, r3
 80028d2:	4608      	mov	r0, r1
 80028d4:	4915      	ldr	r1, [pc, #84]	; (800292c <udp_recv+0x68>)
 80028d6:	190f      	adds	r7, r1, r4
 80028d8:	f8b7 c002 	ldrh.w	ip, [r7, #2]
 80028dc:	5b0b      	ldrh	r3, [r1, r4]
 80028de:	4563      	cmp	r3, ip
 80028e0:	d021      	beq.n	8002926 <udp_recv+0x62>
 80028e2:	f44f 63b9 	mov.w	r3, #1480	; 0x5c8
 80028e6:	fb03 fc0c 	mul.w	ip, r3, ip
 80028ea:	eb0c 0604 	add.w	r6, ip, r4
 80028ee:	440e      	add	r6, r1
 80028f0:	f8b6 55ca 	ldrh.w	r5, [r6, #1482]	; 0x5ca
 80028f4:	3404      	adds	r4, #4
 80028f6:	4295      	cmp	r5, r2
 80028f8:	bf28      	it	cs
 80028fa:	4615      	movcs	r5, r2
 80028fc:	4464      	add	r4, ip
 80028fe:	462a      	mov	r2, r5
 8002900:	4421      	add	r1, r4
 8002902:	f7ff ff63 	bl	80027cc <net_memcpy>
 8002906:	f8d6 35c4 	ldr.w	r3, [r6, #1476]	; 0x5c4
 800290a:	f8c8 3000 	str.w	r3, [r8]
 800290e:	f8b6 25c8 	ldrh.w	r2, [r6, #1480]	; 0x5c8
 8002912:	9b06      	ldr	r3, [sp, #24]
 8002914:	801a      	strh	r2, [r3, #0]
 8002916:	887b      	ldrh	r3, [r7, #2]
 8002918:	3301      	adds	r3, #1
 800291a:	f003 0301 	and.w	r3, r3, #1
 800291e:	807b      	strh	r3, [r7, #2]
 8002920:	4628      	mov	r0, r5
 8002922:	e8bd 81f0 	ldmia.w	sp!, {r4, r5, r6, r7, r8, pc}
 8002926:	2500      	movs	r5, #0
 8002928:	e7fa      	b.n	8002920 <udp_recv+0x5c>
 800292a:	bf00      	nop
 800292c:	20001784 	andcs	r1, r0, r4, lsl #15

08002930 <udp_recv2>:
 8002930:	b5f0      	push	{r4, r5, r6, r7, lr}
 8002932:	f640 3594 	movw	r5, #2964	; 0xb94
 8002936:	4368      	muls	r0, r5
 8002938:	4c0f      	ldr	r4, [pc, #60]	; (8002978 <udp_recv2+0x48>)
 800293a:	1827      	adds	r7, r4, r0
 800293c:	887d      	ldrh	r5, [r7, #2]
 800293e:	5a26      	ldrh	r6, [r4, r0]
 8002940:	42ae      	cmp	r6, r5
 8002942:	d017      	beq.n	8002974 <udp_recv2+0x44>
 8002944:	f44f 6cb9 	mov.w	ip, #1480	; 0x5c8
 8002948:	fb0c f505 	mul.w	r5, ip, r5
 800294c:	1d06      	adds	r6, r0, #4
 800294e:	442e      	add	r6, r5
 8002950:	4405      	add	r5, r0
 8002952:	4426      	add	r6, r4
 8002954:	442c      	add	r4, r5
 8002956:	600e      	str	r6, [r1, #0]
 8002958:	f8d4 15c4 	ldr.w	r1, [r4, #1476]	; 0x5c4
 800295c:	6011      	str	r1, [r2, #0]
 800295e:	f8b4 25c8 	ldrh.w	r2, [r4, #1480]	; 0x5c8
 8002962:	801a      	strh	r2, [r3, #0]
 8002964:	887b      	ldrh	r3, [r7, #2]
 8002966:	f8b4 05ca 	ldrh.w	r0, [r4, #1482]	; 0x5ca
 800296a:	3301      	adds	r3, #1
 800296c:	f003 0301 	and.w	r3, r3, #1
 8002970:	807b      	strh	r3, [r7, #2]
 8002972:	bdf0      	pop	{r4, r5, r6, r7, pc}
 8002974:	2000      	movs	r0, #0
 8002976:	e7fc      	b.n	8002972 <udp_recv2+0x42>
 8002978:	20001784 	andcs	r1, r0, r4, lsl #15

0800297c <udp_send>:
 800297c:	e92d 47f3 	stmdb	sp!, {r0, r1, r4, r5, r6, r7, r8, r9, sl, lr}
 8002980:	f8df 9130 	ldr.w	r9, [pc, #304]	; 8002ab4 <udp_send+0x138>
 8002984:	461c      	mov	r4, r3
 8002986:	f859 3020 	ldr.w	r3, [r9, r0, lsl #2]
 800298a:	4607      	mov	r7, r0
 800298c:	4688      	mov	r8, r1
 800298e:	4616      	mov	r6, r2
 8002990:	2b00      	cmp	r3, #0
 8002992:	f000 808b 	beq.w	8002aac <udp_send+0x130>
 8002996:	1c63      	adds	r3, r4, #1
 8002998:	d141      	bne.n	8002a1e <udp_send+0xa2>
 800299a:	4a47      	ldr	r2, [pc, #284]	; (8002ab8 <udp_send+0x13c>)
 800299c:	2307      	movs	r3, #7
 800299e:	4611      	mov	r1, r2
 80029a0:	20ff      	movs	r0, #255	; 0xff
 80029a2:	e001      	b.n	80029a8 <udp_send+0x2c>
 80029a4:	f802 0b01 	strb.w	r0, [r2], #1
 80029a8:	3b01      	subs	r3, #1
 80029aa:	d1fb      	bne.n	80029a4 <udp_send+0x28>
 80029ac:	f64f 73ff 	movw	r3, #65535	; 0xffff
 80029b0:	83cb      	strh	r3, [r1, #30]
 80029b2:	840b      	strh	r3, [r1, #32]
 80029b4:	2500      	movs	r5, #0
 80029b6:	f8df a104 	ldr.w	sl, [pc, #260]	; 8002abc <udp_send+0x140>
 80029ba:	4c3f      	ldr	r4, [pc, #252]	; (8002ab8 <udp_send+0x13c>)
 80029bc:	f8ba 3000 	ldrh.w	r3, [sl]
 80029c0:	2114      	movs	r1, #20
 80029c2:	8263      	strh	r3, [r4, #18]
 80029c4:	f106 031c 	add.w	r3, r6, #28
 80029c8:	ba5b      	rev16	r3, r3
 80029ca:	f104 000e 	add.w	r0, r4, #14
 80029ce:	8223      	strh	r3, [r4, #16]
 80029d0:	8325      	strh	r5, [r4, #24]
 80029d2:	f001 f816 	bl	8003a02 <net_chksum>
 80029d6:	f859 3027 	ldr.w	r3, [r9, r7, lsl #2]
 80029da:	f5b6 6fb8 	cmp.w	r6, #1472	; 0x5c0
 80029de:	ba5b      	rev16	r3, r3
 80029e0:	8463      	strh	r3, [r4, #34]	; 0x22
 80029e2:	f8bd 3028 	ldrh.w	r3, [sp, #40]	; 0x28
 80029e6:	4632      	mov	r2, r6
 80029e8:	ba5b      	rev16	r3, r3
 80029ea:	84a3      	strh	r3, [r4, #36]	; 0x24
 80029ec:	f106 0308 	add.w	r3, r6, #8
 80029f0:	ba5b      	rev16	r3, r3
 80029f2:	bf28      	it	cs
 80029f4:	f44f 62b8 	movcs.w	r2, #1472	; 0x5c0
 80029f8:	4641      	mov	r1, r8
 80029fa:	8320      	strh	r0, [r4, #24]
 80029fc:	f104 002a 	add.w	r0, r4, #42	; 0x2a
 8002a00:	84e3      	strh	r3, [r4, #38]	; 0x26
 8002a02:	f7ff fee3 	bl	80027cc <net_memcpy>
 8002a06:	4620      	mov	r0, r4
 8002a08:	f106 012a 	add.w	r1, r6, #42	; 0x2a
 8002a0c:	f002 f918 	bl	8004c40 <emac_eth_send>
 8002a10:	f8ba 3000 	ldrh.w	r3, [sl]
 8002a14:	4628      	mov	r0, r5
 8002a16:	3301      	adds	r3, #1
 8002a18:	f8aa 3000 	strh.w	r3, [sl]
 8002a1c:	e037      	b.n	8002a8e <udp_send+0x112>
 8002a1e:	4b28      	ldr	r3, [pc, #160]	; (8002ac0 <udp_send+0x144>)
 8002a20:	681b      	ldr	r3, [r3, #0]
 8002a22:	43a3      	bics	r3, r4
 8002a24:	d10f      	bne.n	8002a46 <udp_send+0xca>
 8002a26:	2307      	movs	r3, #7
 8002a28:	21ff      	movs	r1, #255	; 0xff
 8002a2a:	4a23      	ldr	r2, [pc, #140]	; (8002ab8 <udp_send+0x13c>)
 8002a2c:	e001      	b.n	8002a32 <udp_send+0xb6>
 8002a2e:	f802 1b01 	strb.w	r1, [r2], #1
 8002a32:	3b01      	subs	r3, #1
 8002a34:	d1fb      	bne.n	8002a2e <udp_send+0xb2>
 8002a36:	2204      	movs	r2, #4
 8002a38:	4822      	ldr	r0, [pc, #136]	; (8002ac4 <udp_send+0x148>)
 8002a3a:	eb0d 0102 	add.w	r1, sp, r2
 8002a3e:	9401      	str	r4, [sp, #4]
 8002a40:	f7ff feba 	bl	80027b8 <memcpy.isra.0>
 8002a44:	e7b6      	b.n	80029b4 <udp_send+0x38>
 8002a46:	f004 03e0 	and.w	r3, r4, #224	; 0xe0
 8002a4a:	2be0      	cmp	r3, #224	; 0xe0
 8002a4c:	d10e      	bne.n	8002a6c <udp_send+0xf0>
 8002a4e:	491e      	ldr	r1, [pc, #120]	; (8002ac8 <udp_send+0x14c>)
 8002a50:	f3c4 2306 	ubfx	r3, r4, #8, #7
 8002a54:	70cb      	strb	r3, [r1, #3]
 8002a56:	f3c4 4307 	ubfx	r3, r4, #16, #8
 8002a5a:	710b      	strb	r3, [r1, #4]
 8002a5c:	f3c4 6307 	ubfx	r3, r4, #24, #8
 8002a60:	2206      	movs	r2, #6
 8002a62:	4815      	ldr	r0, [pc, #84]	; (8002ab8 <udp_send+0x13c>)
 8002a64:	714b      	strb	r3, [r1, #5]
 8002a66:	f7ff fea7 	bl	80027b8 <memcpy.isra.0>
 8002a6a:	e7e4      	b.n	8002a36 <udp_send+0xba>
 8002a6c:	4b17      	ldr	r3, [pc, #92]	; (8002acc <udp_send+0x150>)
 8002a6e:	681b      	ldr	r3, [r3, #0]
 8002a70:	43a3      	bics	r3, r4
 8002a72:	d00f      	beq.n	8002a94 <udp_send+0x118>
 8002a74:	4d16      	ldr	r5, [pc, #88]	; (8002ad0 <udp_send+0x154>)
 8002a76:	4910      	ldr	r1, [pc, #64]	; (8002ab8 <udp_send+0x13c>)
 8002a78:	6828      	ldr	r0, [r5, #0]
 8002a7a:	f000 fcc7 	bl	800340c <arp_cache_lookup>
 8002a7e:	682b      	ldr	r3, [r5, #0]
 8002a80:	4298      	cmp	r0, r3
 8002a82:	d0d8      	beq.n	8002a36 <udp_send+0xba>
 8002a84:	4813      	ldr	r0, [pc, #76]	; (8002ad4 <udp_send+0x158>)
 8002a86:	f001 f805 	bl	8003a94 <console_error>
 8002a8a:	f06f 0002 	mvn.w	r0, #2
 8002a8e:	b002      	add	sp, #8
 8002a90:	e8bd 87f0 	ldmia.w	sp!, {r4, r5, r6, r7, r8, r9, sl, pc}
 8002a94:	4620      	mov	r0, r4
 8002a96:	4908      	ldr	r1, [pc, #32]	; (8002ab8 <udp_send+0x13c>)
 8002a98:	f000 fcb8 	bl	800340c <arp_cache_lookup>
 8002a9c:	42a0      	cmp	r0, r4
 8002a9e:	d0ca      	beq.n	8002a36 <udp_send+0xba>
 8002aa0:	480d      	ldr	r0, [pc, #52]	; (8002ad8 <udp_send+0x15c>)
 8002aa2:	f000 fff7 	bl	8003a94 <console_error>
 8002aa6:	f06f 0001 	mvn.w	r0, #1
 8002aaa:	e7f0      	b.n	8002a8e <udp_send+0x112>
 8002aac:	f04f 30ff 	mov.w	r0, #4294967295	; 0xffffffff
 8002ab0:	e7ed      	b.n	8002a8e <udp_send+0x112>
 8002ab2:	bf00      	nop
 8002ab4:	2000177c 	andcs	r1, r0, ip, ror r7
 8002ab8:	20002eac 	andcs	r2, r0, ip, lsr #29
 8002abc:	20001778 	andcs	r1, r0, r8, ror r7
 8002ac0:	2000176c 	andcs	r1, r0, ip, ror #14
 8002ac4:	20002eca 	andcs	r2, r0, sl, asr #29
 8002ac8:	20000000 	andcs	r0, r0, r0
 8002acc:	20001774 	andcs	r1, r0, r4, ror r7
 8002ad0:	20001770 	andcs	r1, r0, r0, ror r7
 8002ad4:	080067ab 	stmdaeq	r0, {r0, r1, r3, r5, r7, r8, r9, sl, sp, lr}
 8002ad8:	080067d1 	stmdaeq	r0, {r0, r4, r6, r7, r8, r9, sl, sp, lr}

08002adc <TFTPDaemon::TFTPDaemon()>:
 8002adc:	b538      	push	{r3, r4, r5, lr}
 8002ade:	4b14      	ldr	r3, [pc, #80]	; (8002b30 <TFTPDaemon::TFTPDaemon()+0x54>)
 8002ae0:	f04f 32ff 	mov.w	r2, #4294967295	; 0xffffffff
 8002ae4:	6003      	str	r3, [r0, #0]
 8002ae6:	2300      	movs	r3, #0
 8002ae8:	4d12      	ldr	r5, [pc, #72]	; (8002b34 <TFTPDaemon::TFTPDaemon()+0x58>)
 8002aea:	4604      	mov	r4, r0
 8002aec:	e9c0 3201 	strd	r3, r2, [r0, #4]
 8002af0:	f8c0 321c 	str.w	r3, [r0, #540]	; 0x21c
 8002af4:	f8a0 3220 	strh.w	r3, [r0, #544]	; 0x220
 8002af8:	f8c0 3224 	str.w	r3, [r0, #548]	; 0x224
 8002afc:	f8a0 3228 	strh.w	r3, [r0, #552]	; 0x228
 8002b00:	f8c0 322c 	str.w	r3, [r0, #556]	; 0x22c
 8002b04:	f8a0 3230 	strh.w	r3, [r0, #560]	; 0x230
 8002b08:	f880 3232 	strb.w	r3, [r0, #562]	; 0x232
 8002b0c:	6828      	ldr	r0, [r5, #0]
 8002b0e:	b110      	cbz	r0, 8002b16 <TFTPDaemon::TFTPDaemon()+0x3a>
 8002b10:	6803      	ldr	r3, [r0, #0]
 8002b12:	69db      	ldr	r3, [r3, #28]
 8002b14:	4798      	blx	r3
 8002b16:	2100      	movs	r1, #0
 8002b18:	602c      	str	r4, [r5, #0]
 8002b1a:	f104 030c 	add.w	r3, r4, #12
 8002b1e:	f504 7207 	add.w	r2, r4, #540	; 0x21c
 8002b22:	429a      	cmp	r2, r3
 8002b24:	d101      	bne.n	8002b2a <TFTPDaemon::TFTPDaemon()+0x4e>
 8002b26:	4620      	mov	r0, r4
 8002b28:	bd38      	pop	{r3, r4, r5, pc}
 8002b2a:	f803 1b01 	strb.w	r1, [r3], #1
 8002b2e:	e7f8      	b.n	8002b22 <TFTPDaemon::TFTPDaemon()+0x46>
 8002b30:	0800684c 	stmdaeq	r0, {r2, r3, r6, fp, sp, lr}
 8002b34:	20003498 	mulcs	r0, r8, r4

08002b38 <TFTPDaemon::~TFTPDaemon()>:
 8002b38:	4b06      	ldr	r3, [pc, #24]	; (8002b54 <TFTPDaemon::~TFTPDaemon()+0x1c>)
 8002b3a:	b510      	push	{r4, lr}
 8002b3c:	6003      	str	r3, [r0, #0]
 8002b3e:	4b06      	ldr	r3, [pc, #24]	; (8002b58 <TFTPDaemon::~TFTPDaemon()+0x20>)
 8002b40:	4604      	mov	r4, r0
 8002b42:	2145      	movs	r1, #69	; 0x45
 8002b44:	6818      	ldr	r0, [r3, #0]
 8002b46:	f000 f9f4 	bl	8002f32 <Network::End(unsigned short)>
 8002b4a:	2200      	movs	r2, #0
 8002b4c:	4b03      	ldr	r3, [pc, #12]	; (8002b5c <TFTPDaemon::~TFTPDaemon()+0x24>)
 8002b4e:	4620      	mov	r0, r4
 8002b50:	601a      	str	r2, [r3, #0]
 8002b52:	bd10      	pop	{r4, pc}
 8002b54:	0800684c 	stmdaeq	r0, {r2, r3, r6, fp, sp, lr}
 8002b58:	2000349c 	mulcs	r0, ip, r4
 8002b5c:	20003498 	mulcs	r0, r8, r4

08002b60 <TFTPDaemon::SendError(unsigned short, char const*)>:
 8002b60:	f44f 63a0 	mov.w	r3, #1280	; 0x500
 8002b64:	b510      	push	{r4, lr}
 8002b66:	b0a4      	sub	sp, #144	; 0x90
 8002b68:	f8ad 300c 	strh.w	r3, [sp, #12]
 8002b6c:	237f      	movs	r3, #127	; 0x7f
 8002b6e:	ba49      	rev16	r1, r1
 8002b70:	f8ad 100e 	strh.w	r1, [sp, #14]
 8002b74:	3a01      	subs	r2, #1
 8002b76:	a904      	add	r1, sp, #16
 8002b78:	f812 4f01 	ldrb.w	r4, [r2, #1]!
 8002b7c:	b92c      	cbnz	r4, 8002b8a <TFTPDaemon::SendError(unsigned short, char const*)+0x2a>
 8002b7e:	440b      	add	r3, r1
 8002b80:	4299      	cmp	r1, r3
 8002b82:	d006      	beq.n	8002b92 <TFTPDaemon::SendError(unsigned short, char const*)+0x32>
 8002b84:	f801 4b01 	strb.w	r4, [r1], #1
 8002b88:	e7fa      	b.n	8002b80 <TFTPDaemon::SendError(unsigned short, char const*)+0x20>
 8002b8a:	3b01      	subs	r3, #1
 8002b8c:	f801 4b01 	strb.w	r4, [r1], #1
 8002b90:	d1f2      	bne.n	8002b78 <TFTPDaemon::SendError(unsigned short, char const*)+0x18>
 8002b92:	f8b0 3220 	ldrh.w	r3, [r0, #544]	; 0x220
 8002b96:	2284      	movs	r2, #132	; 0x84
 8002b98:	9300      	str	r3, [sp, #0]
 8002b9a:	f8d0 321c 	ldr.w	r3, [r0, #540]	; 0x21c
 8002b9e:	a903      	add	r1, sp, #12
 8002ba0:	7a00      	ldrb	r0, [r0, #8]
 8002ba2:	f7ff feeb 	bl	800297c <udp_send>
 8002ba6:	b024      	add	sp, #144	; 0x90
 8002ba8:	bd10      	pop	{r4, pc}

08002baa <TFTPDaemon::DoRead()>:
 8002baa:	6843      	ldr	r3, [r0, #4]
 8002bac:	b573      	push	{r0, r1, r4, r5, r6, lr}
 8002bae:	2b02      	cmp	r3, #2
 8002bb0:	4604      	mov	r4, r0
 8002bb2:	f100 050c 	add.w	r5, r0, #12
 8002bb6:	d128      	bne.n	8002c0a <TFTPDaemon::DoRead()+0x60>
 8002bb8:	6803      	ldr	r3, [r0, #0]
 8002bba:	f44f 7200 	mov.w	r2, #512	; 0x200
 8002bbe:	695e      	ldr	r6, [r3, #20]
 8002bc0:	f8b0 3228 	ldrh.w	r3, [r0, #552]	; 0x228
 8002bc4:	f100 0110 	add.w	r1, r0, #16
 8002bc8:	3301      	adds	r3, #1
 8002bca:	b29b      	uxth	r3, r3
 8002bcc:	f8a0 3228 	strh.w	r3, [r0, #552]	; 0x228
 8002bd0:	47b0      	blx	r6
 8002bd2:	2300      	movs	r3, #0
 8002bd4:	7323      	strb	r3, [r4, #12]
 8002bd6:	2303      	movs	r3, #3
 8002bd8:	7363      	strb	r3, [r4, #13]
 8002bda:	f8b4 3228 	ldrh.w	r3, [r4, #552]	; 0x228
 8002bde:	f5b0 7f00 	cmp.w	r0, #512	; 0x200
 8002be2:	ba5b      	rev16	r3, r3
 8002be4:	81e3      	strh	r3, [r4, #14]
 8002be6:	f100 0304 	add.w	r3, r0, #4
 8002bea:	f8a4 3230 	strh.w	r3, [r4, #560]	; 0x230
 8002bee:	bf2c      	ite	cs
 8002bf0:	2300      	movcs	r3, #0
 8002bf2:	2301      	movcc	r3, #1
 8002bf4:	f5b0 7f00 	cmp.w	r0, #512	; 0x200
 8002bf8:	f8c4 022c 	str.w	r0, [r4, #556]	; 0x22c
 8002bfc:	f884 3232 	strb.w	r3, [r4, #562]	; 0x232
 8002c00:	d203      	bcs.n	8002c0a <TFTPDaemon::DoRead()+0x60>
 8002c02:	6823      	ldr	r3, [r4, #0]
 8002c04:	4620      	mov	r0, r4
 8002c06:	691b      	ldr	r3, [r3, #16]
 8002c08:	4798      	blx	r3
 8002c0a:	f8b4 3220 	ldrh.w	r3, [r4, #544]	; 0x220
 8002c0e:	4629      	mov	r1, r5
 8002c10:	9300      	str	r3, [sp, #0]
 8002c12:	f8b4 2230 	ldrh.w	r2, [r4, #560]	; 0x230
 8002c16:	f8d4 321c 	ldr.w	r3, [r4, #540]	; 0x21c
 8002c1a:	7a20      	ldrb	r0, [r4, #8]
 8002c1c:	f7ff feae 	bl	800297c <udp_send>
 8002c20:	2303      	movs	r3, #3
 8002c22:	6063      	str	r3, [r4, #4]
 8002c24:	b002      	add	sp, #8
 8002c26:	bd70      	pop	{r4, r5, r6, pc}

08002c28 <TFTPDaemon::HandleRecvAck()>:
 8002c28:	8983      	ldrh	r3, [r0, #12]
 8002c2a:	f5b3 6f80 	cmp.w	r3, #1024	; 0x400
 8002c2e:	d10c      	bne.n	8002c4a <TFTPDaemon::HandleRecvAck()+0x22>
 8002c30:	f8b0 3228 	ldrh.w	r3, [r0, #552]	; 0x228
 8002c34:	89c2      	ldrh	r2, [r0, #14]
 8002c36:	ba5b      	rev16	r3, r3
 8002c38:	b29b      	uxth	r3, r3
 8002c3a:	429a      	cmp	r2, r3
 8002c3c:	bf01      	itttt	eq
 8002c3e:	f890 3232 	ldrbeq.w	r3, [r0, #562]	; 0x232
 8002c42:	f083 0301 	eoreq.w	r3, r3, #1
 8002c46:	005b      	lsleq	r3, r3, #1
 8002c48:	6043      	streq	r3, [r0, #4]
 8002c4a:	4770      	bx	lr

08002c4c <TFTPDaemon::DoWriteAck()>:
 8002c4c:	2300      	movs	r3, #0
 8002c4e:	b507      	push	{r0, r1, r2, lr}
 8002c50:	7303      	strb	r3, [r0, #12]
 8002c52:	f8b0 3228 	ldrh.w	r3, [r0, #552]	; 0x228
 8002c56:	2204      	movs	r2, #4
 8002c58:	ba5b      	rev16	r3, r3
 8002c5a:	81c3      	strh	r3, [r0, #14]
 8002c5c:	f890 3232 	ldrb.w	r3, [r0, #562]	; 0x232
 8002c60:	7342      	strb	r2, [r0, #13]
 8002c62:	2b00      	cmp	r3, #0
 8002c64:	bf14      	ite	ne
 8002c66:	2300      	movne	r3, #0
 8002c68:	2305      	moveq	r3, #5
 8002c6a:	6043      	str	r3, [r0, #4]
 8002c6c:	f8b0 3220 	ldrh.w	r3, [r0, #544]	; 0x220
 8002c70:	f100 010c 	add.w	r1, r0, #12
 8002c74:	9300      	str	r3, [sp, #0]
 8002c76:	f8d0 321c 	ldr.w	r3, [r0, #540]	; 0x21c
 8002c7a:	7a00      	ldrb	r0, [r0, #8]
 8002c7c:	f7ff fe7e 	bl	800297c <udp_send>
 8002c80:	b003      	add	sp, #12
 8002c82:	f85d fb04 	ldr.w	pc, [sp], #4
	...

08002c88 <TFTPDaemon::HandleRequest()>:
 8002c88:	b5f8      	push	{r3, r4, r5, r6, r7, lr}
 8002c8a:	8985      	ldrh	r5, [r0, #12]
 8002c8c:	4604      	mov	r4, r0
 8002c8e:	ba6d      	rev16	r5, r5
 8002c90:	b2ad      	uxth	r5, r5
 8002c92:	1e6b      	subs	r3, r5, #1
 8002c94:	2b01      	cmp	r3, #1
 8002c96:	d906      	bls.n	8002ca6 <TFTPDaemon::HandleRequest()+0x1e>
 8002c98:	2104      	movs	r1, #4
 8002c9a:	4a37      	ldr	r2, [pc, #220]	; (8002d78 <TFTPDaemon::HandleRequest()+0xf0>)
 8002c9c:	4620      	mov	r0, r4
 8002c9e:	e8bd 40f8 	ldmia.w	sp!, {r3, r4, r5, r6, r7, lr}
 8002ca2:	f7ff bf5d 	b.w	8002b60 <TFTPDaemon::SendError(unsigned short, char const*)>
 8002ca6:	f100 010e 	add.w	r1, r0, #14
 8002caa:	460a      	mov	r2, r1
 8002cac:	4613      	mov	r3, r2
 8002cae:	7818      	ldrb	r0, [r3, #0]
 8002cb0:	3201      	adds	r2, #1
 8002cb2:	2800      	cmp	r0, #0
 8002cb4:	d1fa      	bne.n	8002cac <TFTPDaemon::HandleRequest()+0x24>
 8002cb6:	1a5b      	subs	r3, r3, r1
 8002cb8:	1e5a      	subs	r2, r3, #1
 8002cba:	2a7f      	cmp	r2, #127	; 0x7f
 8002cbc:	d902      	bls.n	8002cc4 <TFTPDaemon::HandleRequest()+0x3c>
 8002cbe:	4601      	mov	r1, r0
 8002cc0:	4a2e      	ldr	r2, [pc, #184]	; (8002d7c <TFTPDaemon::HandleRequest()+0xf4>)
 8002cc2:	e7eb      	b.n	8002c9c <TFTPDaemon::HandleRequest()+0x14>
 8002cc4:	4423      	add	r3, r4
 8002cc6:	f103 000e 	add.w	r0, r3, #14
 8002cca:	4607      	mov	r7, r0
 8002ccc:	f8df c0b0 	ldr.w	ip, [pc, #176]	; 8002d80 <TFTPDaemon::HandleRequest()+0xf8>
 8002cd0:	f103 060f 	add.w	r6, r3, #15
 8002cd4:	3313      	adds	r3, #19
 8002cd6:	f817 2f01 	ldrb.w	r2, [r7, #1]!
 8002cda:	f81c eb01 	ldrb.w	lr, [ip], #1
 8002cde:	4572      	cmp	r2, lr
 8002ce0:	d00c      	beq.n	8002cfc <TFTPDaemon::HandleRequest()+0x74>
 8002ce2:	4a28      	ldr	r2, [pc, #160]	; (8002d84 <TFTPDaemon::HandleRequest()+0xfc>)
 8002ce4:	1df3      	adds	r3, r6, #7
 8002ce6:	f810 6f01 	ldrb.w	r6, [r0, #1]!
 8002cea:	f812 7b01 	ldrb.w	r7, [r2], #1
 8002cee:	42be      	cmp	r6, r7
 8002cf0:	d1d2      	bne.n	8002c98 <TFTPDaemon::HandleRequest()+0x10>
 8002cf2:	b10e      	cbz	r6, 8002cf8 <TFTPDaemon::HandleRequest()+0x70>
 8002cf4:	4283      	cmp	r3, r0
 8002cf6:	d1f6      	bne.n	8002ce6 <TFTPDaemon::HandleRequest()+0x5e>
 8002cf8:	2201      	movs	r2, #1
 8002cfa:	e003      	b.n	8002d04 <TFTPDaemon::HandleRequest()+0x7c>
 8002cfc:	b112      	cbz	r2, 8002d04 <TFTPDaemon::HandleRequest()+0x7c>
 8002cfe:	429f      	cmp	r7, r3
 8002d00:	d1e9      	bne.n	8002cd6 <TFTPDaemon::HandleRequest()+0x4e>
 8002d02:	2200      	movs	r2, #0
 8002d04:	2d02      	cmp	r5, #2
 8002d06:	6823      	ldr	r3, [r4, #0]
 8002d08:	d01d      	beq.n	8002d46 <TFTPDaemon::HandleRequest()+0xbe>
 8002d0a:	4620      	mov	r0, r4
 8002d0c:	689b      	ldr	r3, [r3, #8]
 8002d0e:	4798      	blx	r3
 8002d10:	b938      	cbnz	r0, 8002d22 <TFTPDaemon::HandleRequest()+0x9a>
 8002d12:	2101      	movs	r1, #1
 8002d14:	4a1c      	ldr	r2, [pc, #112]	; (8002d88 <TFTPDaemon::HandleRequest()+0x100>)
 8002d16:	4620      	mov	r0, r4
 8002d18:	f7ff ff22 	bl	8002b60 <TFTPDaemon::SendError(unsigned short, char const*)>
 8002d1c:	2301      	movs	r3, #1
 8002d1e:	6063      	str	r3, [r4, #4]
 8002d20:	bdf8      	pop	{r3, r4, r5, r6, r7, pc}
 8002d22:	4d1a      	ldr	r5, [pc, #104]	; (8002d8c <TFTPDaemon::HandleRequest()+0x104>)
 8002d24:	2145      	movs	r1, #69	; 0x45
 8002d26:	6828      	ldr	r0, [r5, #0]
 8002d28:	f000 f903 	bl	8002f32 <Network::End(unsigned short)>
 8002d2c:	f8b4 1220 	ldrh.w	r1, [r4, #544]	; 0x220
 8002d30:	6828      	ldr	r0, [r5, #0]
 8002d32:	f000 f8fb 	bl	8002f2c <Network::Begin(unsigned short)>
 8002d36:	2302      	movs	r3, #2
 8002d38:	60a0      	str	r0, [r4, #8]
 8002d3a:	6063      	str	r3, [r4, #4]
 8002d3c:	4620      	mov	r0, r4
 8002d3e:	e8bd 40f8 	ldmia.w	sp!, {r3, r4, r5, r6, r7, lr}
 8002d42:	f7ff bf32 	b.w	8002baa <TFTPDaemon::DoRead()>
 8002d46:	4620      	mov	r0, r4
 8002d48:	68db      	ldr	r3, [r3, #12]
 8002d4a:	4798      	blx	r3
 8002d4c:	b910      	cbnz	r0, 8002d54 <TFTPDaemon::HandleRequest()+0xcc>
 8002d4e:	4629      	mov	r1, r5
 8002d50:	4a0f      	ldr	r2, [pc, #60]	; (8002d90 <TFTPDaemon::HandleRequest()+0x108>)
 8002d52:	e7e0      	b.n	8002d16 <TFTPDaemon::HandleRequest()+0x8e>
 8002d54:	4d0d      	ldr	r5, [pc, #52]	; (8002d8c <TFTPDaemon::HandleRequest()+0x104>)
 8002d56:	2145      	movs	r1, #69	; 0x45
 8002d58:	6828      	ldr	r0, [r5, #0]
 8002d5a:	f000 f8ea 	bl	8002f32 <Network::End(unsigned short)>
 8002d5e:	f8b4 1220 	ldrh.w	r1, [r4, #544]	; 0x220
 8002d62:	6828      	ldr	r0, [r5, #0]
 8002d64:	f000 f8e2 	bl	8002f2c <Network::Begin(unsigned short)>
 8002d68:	2304      	movs	r3, #4
 8002d6a:	60a0      	str	r0, [r4, #8]
 8002d6c:	6063      	str	r3, [r4, #4]
 8002d6e:	4620      	mov	r0, r4
 8002d70:	e8bd 40f8 	ldmia.w	sp!, {r3, r4, r5, r6, r7, lr}
 8002d74:	f7ff bf6a 	b.w	8002c4c <TFTPDaemon::DoWriteAck()>
 8002d78:	080067e4 	stmdaeq	r0, {r2, r5, r6, r7, r8, r9, sl, sp, lr}
 8002d7c:	080067f6 	stmdaeq	r0, {r1, r2, r4, r5, r6, r7, r8, r9, sl, sp, lr}
 8002d80:	08006808 	stmdaeq	r0, {r3, fp, sp, lr}
 8002d84:	0800680e 	stmdaeq	r0, {r1, r2, r3, fp, sp, lr}
 8002d88:	08006817 	stmdaeq	r0, {r0, r1, r2, r4, fp, sp, lr}
 8002d8c:	2000349c 	mulcs	r0, ip, r4
 8002d90:	08006826 	stmdaeq	r0, {r1, r2, r5, fp, sp, lr}

08002d94 <TFTPDaemon::HandleRecvData()>:
 8002d94:	b570      	push	{r4, r5, r6, lr}
 8002d96:	8983      	ldrh	r3, [r0, #12]
 8002d98:	4604      	mov	r4, r0
 8002d9a:	f5b3 7f40 	cmp.w	r3, #768	; 0x300
 8002d9e:	d129      	bne.n	8002df4 <TFTPDaemon::HandleRecvData()+0x60>
 8002da0:	4601      	mov	r1, r0
 8002da2:	f8d0 5224 	ldr.w	r5, [r0, #548]	; 0x224
 8002da6:	89c3      	ldrh	r3, [r0, #14]
 8002da8:	f851 2b10 	ldr.w	r2, [r1], #16
 8002dac:	3d04      	subs	r5, #4
 8002dae:	ba5b      	rev16	r3, r3
 8002db0:	6996      	ldr	r6, [r2, #24]
 8002db2:	f8a0 3228 	strh.w	r3, [r0, #552]	; 0x228
 8002db6:	462a      	mov	r2, r5
 8002db8:	f8c0 522c 	str.w	r5, [r0, #556]	; 0x22c
 8002dbc:	b29b      	uxth	r3, r3
 8002dbe:	47b0      	blx	r6
 8002dc0:	4285      	cmp	r5, r0
 8002dc2:	d110      	bne.n	8002de6 <TFTPDaemon::HandleRecvData()+0x52>
 8002dc4:	f8d4 322c 	ldr.w	r3, [r4, #556]	; 0x22c
 8002dc8:	f5b3 7f00 	cmp.w	r3, #512	; 0x200
 8002dcc:	d206      	bcs.n	8002ddc <TFTPDaemon::HandleRecvData()+0x48>
 8002dce:	2301      	movs	r3, #1
 8002dd0:	f884 3232 	strb.w	r3, [r4, #562]	; 0x232
 8002dd4:	6823      	ldr	r3, [r4, #0]
 8002dd6:	4620      	mov	r0, r4
 8002dd8:	691b      	ldr	r3, [r3, #16]
 8002dda:	4798      	blx	r3
 8002ddc:	4620      	mov	r0, r4
 8002dde:	e8bd 4070 	ldmia.w	sp!, {r4, r5, r6, lr}
 8002de2:	f7ff bf33 	b.w	8002c4c <TFTPDaemon::DoWriteAck()>
 8002de6:	2103      	movs	r1, #3
 8002de8:	4620      	mov	r0, r4
 8002dea:	4a03      	ldr	r2, [pc, #12]	; (8002df8 <TFTPDaemon::HandleRecvData()+0x64>)
 8002dec:	f7ff feb8 	bl	8002b60 <TFTPDaemon::SendError(unsigned short, char const*)>
 8002df0:	2300      	movs	r3, #0
 8002df2:	6063      	str	r3, [r4, #4]
 8002df4:	bd70      	pop	{r4, r5, r6, pc}
 8002df6:	bf00      	nop
 8002df8:	08006837 	stmdaeq	r0, {r0, r1, r2, r4, r5, fp, sp, lr}

08002dfc <TFTPDaemon::Run()>:
 8002dfc:	b5f7      	push	{r0, r1, r2, r4, r5, r6, r7, lr}
 8002dfe:	6847      	ldr	r7, [r0, #4]
 8002e00:	4604      	mov	r4, r0
 8002e02:	f100 050c 	add.w	r5, r0, #12
 8002e06:	bb07      	cbnz	r7, 8002e4a <TFTPDaemon::Run()+0x4e>
 8002e08:	f8b0 1220 	ldrh.w	r1, [r0, #544]	; 0x220
 8002e0c:	4e25      	ldr	r6, [pc, #148]	; (8002ea4 <TFTPDaemon::Run()+0xa8>)
 8002e0e:	b139      	cbz	r1, 8002e20 <TFTPDaemon::Run()+0x24>
 8002e10:	6830      	ldr	r0, [r6, #0]
 8002e12:	f000 f88e 	bl	8002f32 <Network::End(unsigned short)>
 8002e16:	f04f 33ff 	mov.w	r3, #4294967295	; 0xffffffff
 8002e1a:	f8a4 7220 	strh.w	r7, [r4, #544]	; 0x220
 8002e1e:	60a3      	str	r3, [r4, #8]
 8002e20:	2145      	movs	r1, #69	; 0x45
 8002e22:	6830      	ldr	r0, [r6, #0]
 8002e24:	f000 f882 	bl	8002f2c <Network::Begin(unsigned short)>
 8002e28:	2300      	movs	r3, #0
 8002e2a:	2201      	movs	r2, #1
 8002e2c:	60a0      	str	r0, [r4, #8]
 8002e2e:	f8a4 3228 	strh.w	r3, [r4, #552]	; 0x228
 8002e32:	6062      	str	r2, [r4, #4]
 8002e34:	f884 3232 	strb.w	r3, [r4, #562]	; 0x232
 8002e38:	34a0      	adds	r4, #160	; 0xa0
 8002e3a:	42ac      	cmp	r4, r5
 8002e3c:	d102      	bne.n	8002e44 <TFTPDaemon::Run()+0x48>
 8002e3e:	2001      	movs	r0, #1
 8002e40:	b003      	add	sp, #12
 8002e42:	bdf0      	pop	{r4, r5, r6, r7, pc}
 8002e44:	f805 3b01 	strb.w	r3, [r5], #1
 8002e48:	e7f7      	b.n	8002e3a <TFTPDaemon::Run()+0x3e>
 8002e4a:	f500 7308 	add.w	r3, r0, #544	; 0x220
 8002e4e:	9300      	str	r3, [sp, #0]
 8002e50:	f44f 7204 	mov.w	r2, #528	; 0x210
 8002e54:	f500 7307 	add.w	r3, r0, #540	; 0x21c
 8002e58:	4629      	mov	r1, r5
 8002e5a:	7a00      	ldrb	r0, [r0, #8]
 8002e5c:	f7ff fd32 	bl	80028c4 <udp_recv>
 8002e60:	6863      	ldr	r3, [r4, #4]
 8002e62:	f8c4 0224 	str.w	r0, [r4, #548]	; 0x224
 8002e66:	3b01      	subs	r3, #1
 8002e68:	2b04      	cmp	r3, #4
 8002e6a:	d814      	bhi.n	8002e96 <TFTPDaemon::Run()+0x9a>
 8002e6c:	e8df f003 	tbb	[pc, r3]
 8002e70:	130d0903 	movwne	r0, #55555	; 0xd903
 8002e74:	28040013 	stmdacs	r4, {r0, r1, r4}
 8002e78:	d9e1      	bls.n	8002e3e <TFTPDaemon::Run()+0x42>
 8002e7a:	4620      	mov	r0, r4
 8002e7c:	f7ff ff04 	bl	8002c88 <TFTPDaemon::HandleRequest()>
 8002e80:	e7dd      	b.n	8002e3e <TFTPDaemon::Run()+0x42>
 8002e82:	4620      	mov	r0, r4
 8002e84:	f7ff fe91 	bl	8002baa <TFTPDaemon::DoRead()>
 8002e88:	e7d9      	b.n	8002e3e <TFTPDaemon::Run()+0x42>
 8002e8a:	2804      	cmp	r0, #4
 8002e8c:	d1d7      	bne.n	8002e3e <TFTPDaemon::Run()+0x42>
 8002e8e:	4620      	mov	r0, r4
 8002e90:	f7ff feca 	bl	8002c28 <TFTPDaemon::HandleRecvAck()>
 8002e94:	e7d3      	b.n	8002e3e <TFTPDaemon::Run()+0x42>
 8002e96:	f5b0 7f01 	cmp.w	r0, #516	; 0x204
 8002e9a:	d8d0      	bhi.n	8002e3e <TFTPDaemon::Run()+0x42>
 8002e9c:	4620      	mov	r0, r4
 8002e9e:	f7ff ff79 	bl	8002d94 <TFTPDaemon::HandleRecvData()>
 8002ea2:	e7cc      	b.n	8002e3e <TFTPDaemon::Run()+0x42>
 8002ea4:	2000349c 	mulcs	r0, ip, r4

08002ea8 <strncpy.constprop.0.isra.0>:
 8002ea8:	233f      	movs	r3, #63	; 0x3f
 8002eaa:	3901      	subs	r1, #1
 8002eac:	f811 2f01 	ldrb.w	r2, [r1, #1]!
 8002eb0:	b92a      	cbnz	r2, 8002ebe <strncpy.constprop.0.isra.0+0x16>
 8002eb2:	4403      	add	r3, r0
 8002eb4:	4298      	cmp	r0, r3
 8002eb6:	d006      	beq.n	8002ec6 <strncpy.constprop.0.isra.0+0x1e>
 8002eb8:	f800 2b01 	strb.w	r2, [r0], #1
 8002ebc:	e7fa      	b.n	8002eb4 <strncpy.constprop.0.isra.0+0xc>
 8002ebe:	3b01      	subs	r3, #1
 8002ec0:	f800 2b01 	strb.w	r2, [r0], #1
 8002ec4:	d1f2      	bne.n	8002eac <strncpy.constprop.0.isra.0+0x4>
 8002ec6:	4770      	bx	lr

08002ec8 <Network::Network()>:
 8002ec8:	4a12      	ldr	r2, [pc, #72]	; (8002f14 <Network::Network()+0x4c>)
 8002eca:	2300      	movs	r3, #0
 8002ecc:	f04f 1101 	mov.w	r1, #65537	; 0x10001
 8002ed0:	6010      	str	r0, [r2, #0]
 8002ed2:	2201      	movs	r2, #1
 8002ed4:	e9c0 2100 	strd	r2, r1, [r0]
 8002ed8:	e9c0 2302 	strd	r2, r3, [r0, #8]
 8002edc:	2200      	movs	r2, #0
 8002ede:	e9c0 3330 	strd	r3, r3, [r0, #192]	; 0xc0
 8002ee2:	e9c0 3305 	strd	r3, r3, [r0, #20]
 8002ee6:	490c      	ldr	r1, [pc, #48]	; (8002f18 <Network::Network()+0x50>)
 8002ee8:	6102      	str	r2, [r0, #16]
 8002eea:	f8c0 30b8 	str.w	r3, [r0, #184]	; 0xb8
 8002eee:	f8c0 30c8 	str.w	r3, [r0, #200]	; 0xc8
 8002ef2:	f880 30a0 	strb.w	r3, [r0, #160]	; 0xa0
 8002ef6:	61c3      	str	r3, [r0, #28]
 8002ef8:	f880 3020 	strb.w	r3, [r0, #32]
 8002efc:	f880 3060 	strb.w	r3, [r0, #96]	; 0x60
 8002f00:	f100 02a5 	add.w	r2, r0, #165	; 0xa5
 8002f04:	f811 3b01 	ldrb.w	r3, [r1], #1
 8002f08:	f802 3f01 	strb.w	r3, [r2, #1]!
 8002f0c:	2b00      	cmp	r3, #0
 8002f0e:	d1f9      	bne.n	8002f04 <Network::Network()+0x3c>
 8002f10:	4770      	bx	lr
 8002f12:	bf00      	nop
 8002f14:	2000349c 	mulcs	r0, ip, r4
 8002f18:	0800686c 	stmdaeq	r0, {r2, r3, r5, r6, fp, sp, lr}

08002f1c <Network::Shutdown()>:
 8002f1c:	b508      	push	{r3, lr}
 8002f1e:	30bc      	adds	r0, #188	; 0xbc
 8002f20:	f7fd fde6 	bl	8000af0 <NetworkDisplay::ShowShutdown()>
 8002f24:	e8bd 4008 	ldmia.w	sp!, {r3, lr}
 8002f28:	f7fd b98e 	b.w	8000248 <net_shutdown>

08002f2c <Network::Begin(unsigned short)>:
 8002f2c:	4608      	mov	r0, r1
 8002f2e:	f7ff bc8b 	b.w	8002848 <udp_bind>

08002f32 <Network::End(unsigned short)>:
 8002f32:	4608      	mov	r0, r1
 8002f34:	f7ff bca6 	b.w	8002884 <udp_unbind>

08002f38 <Network::MacAddressCopyTo(unsigned char*)>:
 8002f38:	f100 039f 	add.w	r3, r0, #159	; 0x9f
 8002f3c:	3901      	subs	r1, #1
 8002f3e:	30a5      	adds	r0, #165	; 0xa5
 8002f40:	f813 2f01 	ldrb.w	r2, [r3, #1]!
 8002f44:	4283      	cmp	r3, r0
 8002f46:	f801 2f01 	strb.w	r2, [r1, #1]!
 8002f4a:	d1f9      	bne.n	8002f40 <Network::MacAddressCopyTo(unsigned char*)+0x8>
 8002f4c:	4770      	bx	lr

08002f4e <Network::SetDefaultIp()>:
 8002f4e:	f890 30a4 	ldrb.w	r3, [r0, #164]	; 0xa4
 8002f52:	f890 20a3 	ldrb.w	r2, [r0, #163]	; 0xa3
 8002f56:	041b      	lsls	r3, r3, #16
 8002f58:	eb03 2302 	add.w	r3, r3, r2, lsl #8
 8002f5c:	f890 20a5 	ldrb.w	r2, [r0, #165]	; 0xa5
 8002f60:	3302      	adds	r3, #2
 8002f62:	eb03 6302 	add.w	r3, r3, r2, lsl #24
 8002f66:	22ff      	movs	r2, #255	; 0xff
 8002f68:	6143      	str	r3, [r0, #20]
 8002f6a:	e9c0 3206 	strd	r3, r2, [r0, #24]
 8002f6e:	4770      	bx	lr

08002f70 <Network::Init(NetworkParamsStore*)>:
 8002f70:	e92d 4ff0 	stmdb	sp!, {r4, r5, r6, r7, r8, r9, sl, fp, lr}
 8002f74:	b0a5      	sub	sp, #148	; 0x94
 8002f76:	4604      	mov	r4, r0
 8002f78:	a80b      	add	r0, sp, #44	; 0x2c
 8002f7a:	f000 f9bb 	bl	80032f4 <NetworkParams::NetworkParams(NetworkParamsStore*)>
 8002f7e:	a80b      	add	r0, sp, #44	; 0x2c
 8002f80:	f000 f9c4 	bl	800330c <NetworkParams::Load()>
 8002f84:	b110      	cbz	r0, 8002f8c <Network::Init(NetworkParamsStore*)+0x1c>
 8002f86:	a80b      	add	r0, sp, #44	; 0x2c
 8002f88:	f000 f9cc 	bl	8003324 <NetworkParams::Dump()>
 8002f8c:	f104 05bc 	add.w	r5, r4, #188	; 0xbc
 8002f90:	4628      	mov	r0, r5
 8002f92:	f7fd fd67 	bl	8000a64 <NetworkDisplay::ShowEmacStart()>
 8002f96:	9b0d      	ldr	r3, [sp, #52]	; 0x34
 8002f98:	f104 06a0 	add.w	r6, r4, #160	; 0xa0
 8002f9c:	9308      	str	r3, [sp, #32]
 8002f9e:	9b0e      	ldr	r3, [sp, #56]	; 0x38
 8002fa0:	4630      	mov	r0, r6
 8002fa2:	9309      	str	r3, [sp, #36]	; 0x24
 8002fa4:	9b0f      	ldr	r3, [sp, #60]	; 0x3c
 8002fa6:	f104 0720 	add.w	r7, r4, #32
 8002faa:	930a      	str	r3, [sp, #40]	; 0x28
 8002fac:	f89d 3044 	ldrb.w	r3, [sp, #68]	; 0x44
 8002fb0:	7163      	strb	r3, [r4, #5]
 8002fb2:	9b0c      	ldr	r3, [sp, #48]	; 0x30
 8002fb4:	f013 0240 	ands.w	r2, r3, #64	; 0x40
 8002fb8:	bf18      	it	ne
 8002fba:	f8dd 2085 	ldrne.w	r2, [sp, #133]	; 0x85
 8002fbe:	061b      	lsls	r3, r3, #24
 8002fc0:	bf54      	ite	pl
 8002fc2:	2300      	movpl	r3, #0
 8002fc4:	f8dd 3089 	ldrmi.w	r3, [sp, #137]	; 0x89
 8002fc8:	60e2      	str	r2, [r4, #12]
 8002fca:	6123      	str	r3, [r4, #16]
 8002fcc:	f002 f96c 	bl	80052a8 <emac_start(unsigned char*)>
 8002fd0:	f89d 3045 	ldrb.w	r3, [sp, #69]	; 0x45
 8002fd4:	2b00      	cmp	r3, #0
 8002fd6:	f040 80c7 	bne.w	8003168 <Network::Init(NetworkParamsStore*)+0x1f8>
 8002fda:	4984      	ldr	r1, [pc, #528]	; (80031ec <Network::Init(NetworkParamsStore*)+0x27c>)
 8002fdc:	f104 001f 	add.w	r0, r4, #31
 8002fe0:	f811 2b01 	ldrb.w	r2, [r1], #1
 8002fe4:	f103 0c01 	add.w	ip, r3, #1
 8002fe8:	2a00      	cmp	r2, #0
 8002fea:	f040 80b9 	bne.w	8003160 <Network::Init(NetworkParamsStore*)+0x1f0>
 8002fee:	f894 20a3 	ldrb.w	r2, [r4, #163]	; 0xa3
 8002ff2:	18e1      	adds	r1, r4, r3
 8002ff4:	0910      	lsrs	r0, r2, #4
 8002ff6:	2a9f      	cmp	r2, #159	; 0x9f
 8002ff8:	f002 020f 	and.w	r2, r2, #15
 8002ffc:	bf94      	ite	ls
 8002ffe:	3030      	addls	r0, #48	; 0x30
 8003000:	3037      	addhi	r0, #55	; 0x37
 8003002:	2a09      	cmp	r2, #9
 8003004:	bf94      	ite	ls
 8003006:	3230      	addls	r2, #48	; 0x30
 8003008:	3237      	addhi	r2, #55	; 0x37
 800300a:	44a4      	add	ip, r4
 800300c:	f881 0020 	strb.w	r0, [r1, #32]
 8003010:	f88c 2020 	strb.w	r2, [ip, #32]
 8003014:	f894 20a4 	ldrb.w	r2, [r4, #164]	; 0xa4
 8003018:	f103 0802 	add.w	r8, r3, #2
 800301c:	0910      	lsrs	r0, r2, #4
 800301e:	2a9f      	cmp	r2, #159	; 0x9f
 8003020:	f002 020f 	and.w	r2, r2, #15
 8003024:	bf94      	ite	ls
 8003026:	3030      	addls	r0, #48	; 0x30
 8003028:	3037      	addhi	r0, #55	; 0x37
 800302a:	f103 0e03 	add.w	lr, r3, #3
 800302e:	2a09      	cmp	r2, #9
 8003030:	eb04 0c08 	add.w	ip, r4, r8
 8003034:	f88c 0020 	strb.w	r0, [ip, #32]
 8003038:	bf94      	ite	ls
 800303a:	3230      	addls	r2, #48	; 0x30
 800303c:	3237      	addhi	r2, #55	; 0x37
 800303e:	eb04 000e 	add.w	r0, r4, lr
 8003042:	f880 2020 	strb.w	r2, [r0, #32]
 8003046:	f894 20a5 	ldrb.w	r2, [r4, #165]	; 0xa5
 800304a:	f103 0c04 	add.w	ip, r3, #4
 800304e:	0910      	lsrs	r0, r2, #4
 8003050:	2a9f      	cmp	r2, #159	; 0x9f
 8003052:	f002 020f 	and.w	r2, r2, #15
 8003056:	bf94      	ite	ls
 8003058:	3030      	addls	r0, #48	; 0x30
 800305a:	3037      	addhi	r0, #55	; 0x37
 800305c:	3305      	adds	r3, #5
 800305e:	2a09      	cmp	r2, #9
 8003060:	4423      	add	r3, r4
 8003062:	44a4      	add	ip, r4
 8003064:	bf94      	ite	ls
 8003066:	3230      	addls	r2, #48	; 0x30
 8003068:	3237      	addhi	r2, #55	; 0x37
 800306a:	f88c 0020 	strb.w	r0, [ip, #32]
 800306e:	f883 2020 	strb.w	r2, [r3, #32]
 8003072:	2300      	movs	r3, #0
 8003074:	f881 3026 	strb.w	r3, [r1, #38]	; 0x26
 8003078:	f002 f9b8 	bl	80053ec <net::link_register_read()>
 800307c:	7963      	ldrb	r3, [r4, #5]
 800307e:	6020      	str	r0, [r4, #0]
 8003080:	2800      	cmp	r0, #0
 8003082:	f040 809c 	bne.w	80031be <Network::Init(NetworkParamsStore*)+0x24e>
 8003086:	2b00      	cmp	r3, #0
 8003088:	f040 80aa 	bne.w	80031e0 <Network::Init(NetworkParamsStore*)+0x270>
 800308c:	9b08      	ldr	r3, [sp, #32]
 800308e:	2b00      	cmp	r3, #0
 8003090:	d173      	bne.n	800317a <Network::Init(NetworkParamsStore*)+0x20a>
 8003092:	4620      	mov	r0, r4
 8003094:	f7ff ff5b 	bl	8002f4e <Network::SetDefaultIp()>
 8003098:	6963      	ldr	r3, [r4, #20]
 800309a:	69e2      	ldr	r2, [r4, #28]
 800309c:	9308      	str	r3, [sp, #32]
 800309e:	e9cd 2309 	strd	r2, r3, [sp, #36]	; 0x24
 80030a2:	1de3      	adds	r3, r4, #7
 80030a4:	f104 0905 	add.w	r9, r4, #5
 80030a8:	9302      	str	r3, [sp, #8]
 80030aa:	9300      	str	r3, [sp, #0]
 80030ac:	463a      	mov	r2, r7
 80030ae:	464b      	mov	r3, r9
 80030b0:	4630      	mov	r0, r6
 80030b2:	a908      	add	r1, sp, #32
 80030b4:	f7fd f878 	bl	80001a8 <net_init>
 80030b8:	79e3      	ldrb	r3, [r4, #7]
 80030ba:	b11b      	cbz	r3, 80030c4 <Network::Init(NetworkParamsStore*)+0x154>
 80030bc:	2104      	movs	r1, #4
 80030be:	4628      	mov	r0, r5
 80030c0:	f7fd fd28 	bl	8000b14 <NetworkDisplay::ShowDhcpStatus(network::dhcp::ClientStatus)>
 80030c4:	f89d 3044 	ldrb.w	r3, [sp, #68]	; 0x44
 80030c8:	f89d a08d 	ldrb.w	sl, [sp, #141]	; 0x8d
 80030cc:	9304      	str	r3, [sp, #16]
 80030ce:	233c      	movs	r3, #60	; 0x3c
 80030d0:	fb03 f30a 	mul.w	r3, r3, sl
 80030d4:	f8df 8118 	ldr.w	r8, [pc, #280]	; 80031f0 <Network::Init(NetworkParamsStore*)+0x280>
 80030d8:	f8df b118 	ldr.w	fp, [pc, #280]	; 80031f4 <Network::Init(NetworkParamsStore*)+0x284>
 80030dc:	9303      	str	r3, [sp, #12]
 80030de:	79e3      	ldrb	r3, [r4, #7]
 80030e0:	b393      	cbz	r3, 8003148 <Network::Init(NetworkParamsStore*)+0x1d8>
 80030e2:	f1ba 0f00 	cmp.w	sl, #0
 80030e6:	d02f      	beq.n	8003148 <Network::Init(NetworkParamsStore*)+0x1d8>
 80030e8:	9b04      	ldr	r3, [sp, #16]
 80030ea:	b36b      	cbz	r3, 8003148 <Network::Init(NetworkParamsStore*)+0x1d8>
 80030ec:	2104      	movs	r1, #4
 80030ee:	f8d8 0000 	ldr.w	r0, [r8]
 80030f2:	f000 fd61 	bl	8003bb8 <LedBlink::SetMode(ledblink::Mode)>
 80030f6:	2103      	movs	r1, #3
 80030f8:	4628      	mov	r0, r5
 80030fa:	f7fd fd0b 	bl	8000b14 <NetworkDisplay::ShowDhcpStatus(network::dhcp::ClientStatus)>
 80030fe:	2000      	movs	r0, #0
 8003100:	f000 ff5e 	bl	8003fc0 <time>
 8003104:	9005      	str	r0, [sp, #20]
 8003106:	2000      	movs	r0, #0
 8003108:	f000 ff5a 	bl	8003fc0 <time>
 800310c:	9b05      	ldr	r3, [sp, #20]
 800310e:	493a      	ldr	r1, [pc, #232]	; (80031f8 <Network::Init(NetworkParamsStore*)+0x288>)
 8003110:	1ac0      	subs	r0, r0, r3
 8003112:	9b03      	ldr	r3, [sp, #12]
 8003114:	4298      	cmp	r0, r3
 8003116:	db38      	blt.n	800318a <Network::Init(NetworkParamsStore*)+0x21a>
 8003118:	2101      	movs	r1, #1
 800311a:	4628      	mov	r0, r5
 800311c:	f7fd fcfa 	bl	8000b14 <NetworkDisplay::ShowDhcpStatus(network::dhcp::ClientStatus)>
 8003120:	2101      	movs	r1, #1
 8003122:	f8d8 0000 	ldr.w	r0, [r8]
 8003126:	f000 fd47 	bl	8003bb8 <LedBlink::SetMode(ledblink::Mode)>
 800312a:	2301      	movs	r3, #1
 800312c:	7163      	strb	r3, [r4, #5]
 800312e:	2300      	movs	r3, #0
 8003130:	71e3      	strb	r3, [r4, #7]
 8003132:	9b02      	ldr	r3, [sp, #8]
 8003134:	463a      	mov	r2, r7
 8003136:	9300      	str	r3, [sp, #0]
 8003138:	4630      	mov	r0, r6
 800313a:	464b      	mov	r3, r9
 800313c:	a908      	add	r1, sp, #32
 800313e:	f7fd f833 	bl	80001a8 <net_init>
 8003142:	7963      	ldrb	r3, [r4, #5]
 8003144:	2b00      	cmp	r3, #0
 8003146:	d0ca      	beq.n	80030de <Network::Init(NetworkParamsStore*)+0x16e>
 8003148:	9b08      	ldr	r3, [sp, #32]
 800314a:	4628      	mov	r0, r5
 800314c:	6163      	str	r3, [r4, #20]
 800314e:	9b09      	ldr	r3, [sp, #36]	; 0x24
 8003150:	61e3      	str	r3, [r4, #28]
 8003152:	9b0a      	ldr	r3, [sp, #40]	; 0x28
 8003154:	61a3      	str	r3, [r4, #24]
 8003156:	f7fd fc97 	bl	8000a88 <NetworkDisplay::ShowIp()>
 800315a:	b025      	add	sp, #148	; 0x94
 800315c:	e8bd 8ff0 	ldmia.w	sp!, {r4, r5, r6, r7, r8, r9, sl, fp, pc}
 8003160:	4663      	mov	r3, ip
 8003162:	f800 2f01 	strb.w	r2, [r0, #1]!
 8003166:	e73b      	b.n	8002fe0 <Network::Init(NetworkParamsStore*)+0x70>
 8003168:	4638      	mov	r0, r7
 800316a:	f10d 0145 	add.w	r1, sp, #69	; 0x45
 800316e:	f7ff fe9b 	bl	8002ea8 <strncpy.constprop.0.isra.0>
 8003172:	2300      	movs	r3, #0
 8003174:	f884 305f 	strb.w	r3, [r4, #95]	; 0x5f
 8003178:	e77e      	b.n	8003078 <Network::Init(NetworkParamsStore*)+0x108>
 800317a:	69e1      	ldr	r1, [r4, #28]
 800317c:	e9d4 2305 	ldrd	r2, r3, [r4, #20]
 8003180:	4053      	eors	r3, r2
 8003182:	420b      	tst	r3, r1
 8003184:	bf18      	it	ne
 8003186:	920a      	strne	r2, [sp, #40]	; 0x28
 8003188:	e78b      	b.n	80030a2 <Network::Init(NetworkParamsStore*)+0x132>
 800318a:	f8d8 3000 	ldr.w	r3, [r8]
 800318e:	f8d3 c00c 	ldr.w	ip, [r3, #12]
 8003192:	f1bc 0f00 	cmp.w	ip, #0
 8003196:	d0b6      	beq.n	8003106 <Network::Init(NetworkParamsStore*)+0x196>
 8003198:	6808      	ldr	r0, [r1, #0]
 800319a:	695a      	ldr	r2, [r3, #20]
 800319c:	1a80      	subs	r0, r0, r2
 800319e:	4584      	cmp	ip, r0
 80031a0:	d8b1      	bhi.n	8003106 <Network::Init(NetworkParamsStore*)+0x196>
 80031a2:	6808      	ldr	r0, [r1, #0]
 80031a4:	6158      	str	r0, [r3, #20]
 80031a6:	6918      	ldr	r0, [r3, #16]
 80031a8:	2801      	cmp	r0, #1
 80031aa:	f080 0201 	eor.w	r2, r0, #1
 80031ae:	611a      	str	r2, [r3, #16]
 80031b0:	bf16      	itet	ne
 80031b2:	2301      	movne	r3, #1
 80031b4:	f8cb 0014 	streq.w	r0, [fp, #20]
 80031b8:	f8cb 3010 	strne.w	r3, [fp, #16]
 80031bc:	e7a3      	b.n	8003106 <Network::Init(NetworkParamsStore*)+0x196>
 80031be:	b11b      	cbz	r3, 80031c8 <Network::Init(NetworkParamsStore*)+0x258>
 80031c0:	2300      	movs	r3, #0
 80031c2:	e9c4 3306 	strd	r3, r3, [r4, #24]
 80031c6:	9308      	str	r3, [sp, #32]
 80031c8:	2300      	movs	r3, #0
 80031ca:	f88d 301f 	strb.w	r3, [sp, #31]
 80031ce:	f10d 031f 	add.w	r3, sp, #31
 80031d2:	463a      	mov	r2, r7
 80031d4:	4630      	mov	r0, r6
 80031d6:	9300      	str	r3, [sp, #0]
 80031d8:	a908      	add	r1, sp, #32
 80031da:	f7fc ffe5 	bl	80001a8 <net_init>
 80031de:	e7b3      	b.n	8003148 <Network::Init(NetworkParamsStore*)+0x1d8>
 80031e0:	2101      	movs	r1, #1
 80031e2:	4628      	mov	r0, r5
 80031e4:	f7fd fc96 	bl	8000b14 <NetworkDisplay::ShowDhcpStatus(network::dhcp::ClientStatus)>
 80031e8:	e75b      	b.n	80030a2 <Network::Init(NetworkParamsStore*)+0x132>
 80031ea:	bf00      	nop
 80031ec:	08006871 	stmdaeq	r0, {r0, r4, r5, r6, fp, sp, lr}
 80031f0:	200039ac 	andcs	r3, r0, ip, lsr #19
 80031f4:	40011000 	andmi	r1, r1, r0
 80031f8:	200039c4 	andcs	r3, r0, r4, asr #19

080031fc <Network::Print()>:
 80031fc:	b530      	push	{r4, r5, lr}
 80031fe:	4604      	mov	r4, r0
 8003200:	b085      	sub	sp, #20
 8003202:	4832      	ldr	r0, [pc, #200]	; (80032cc <Network::Print()+0xd0>)
 8003204:	f7fd feca 	bl	8000f9c <printf>
 8003208:	f104 0120 	add.w	r1, r4, #32
 800320c:	4830      	ldr	r0, [pc, #192]	; (80032d0 <Network::Print()+0xd4>)
 800320e:	f7fd fec5 	bl	8000f9c <printf>
 8003212:	68a1      	ldr	r1, [r4, #8]
 8003214:	f104 02a6 	add.w	r2, r4, #166	; 0xa6
 8003218:	482e      	ldr	r0, [pc, #184]	; (80032d4 <Network::Print()+0xd8>)
 800321a:	f7fd febf 	bl	8000f9c <printf>
 800321e:	69e0      	ldr	r0, [r4, #28]
 8003220:	f7fd fcb0 	bl	8000b84 <__popcountsi2>
 8003224:	6965      	ldr	r5, [r4, #20]
 8003226:	9001      	str	r0, [sp, #4]
 8003228:	0e2b      	lsrs	r3, r5, #24
 800322a:	9300      	str	r3, [sp, #0]
 800322c:	f3c5 2207 	ubfx	r2, r5, #8, #8
 8003230:	f3c5 4307 	ubfx	r3, r5, #16, #8
 8003234:	b2e9      	uxtb	r1, r5
 8003236:	4828      	ldr	r0, [pc, #160]	; (80032d8 <Network::Print()+0xdc>)
 8003238:	f7fd feb0 	bl	8000f9c <printf>
 800323c:	69e1      	ldr	r1, [r4, #28]
 800323e:	4827      	ldr	r0, [pc, #156]	; (80032dc <Network::Print()+0xe0>)
 8003240:	0e0b      	lsrs	r3, r1, #24
 8003242:	f3c1 2207 	ubfx	r2, r1, #8, #8
 8003246:	9300      	str	r3, [sp, #0]
 8003248:	f3c1 4307 	ubfx	r3, r1, #16, #8
 800324c:	b2c9      	uxtb	r1, r1
 800324e:	f7fd fea5 	bl	8000f9c <printf>
 8003252:	69a1      	ldr	r1, [r4, #24]
 8003254:	4822      	ldr	r0, [pc, #136]	; (80032e0 <Network::Print()+0xe4>)
 8003256:	0e0b      	lsrs	r3, r1, #24
 8003258:	f3c1 2207 	ubfx	r2, r1, #8, #8
 800325c:	9300      	str	r3, [sp, #0]
 800325e:	f3c1 4307 	ubfx	r3, r1, #16, #8
 8003262:	b2c9      	uxtb	r1, r1
 8003264:	f7fd fe9a 	bl	8000f9c <printf>
 8003268:	69e3      	ldr	r3, [r4, #28]
 800326a:	6961      	ldr	r1, [r4, #20]
 800326c:	481d      	ldr	r0, [pc, #116]	; (80032e4 <Network::Print()+0xe8>)
 800326e:	ea61 0103 	orn	r1, r1, r3
 8003272:	0e0b      	lsrs	r3, r1, #24
 8003274:	f3c1 2207 	ubfx	r2, r1, #8, #8
 8003278:	9300      	str	r3, [sp, #0]
 800327a:	f3c1 4307 	ubfx	r3, r1, #16, #8
 800327e:	b2c9      	uxtb	r1, r1
 8003280:	f7fd fe8c 	bl	8000f9c <printf>
 8003284:	f894 30a5 	ldrb.w	r3, [r4, #165]	; 0xa5
 8003288:	f894 20a1 	ldrb.w	r2, [r4, #161]	; 0xa1
 800328c:	9302      	str	r3, [sp, #8]
 800328e:	f894 30a4 	ldrb.w	r3, [r4, #164]	; 0xa4
 8003292:	f894 10a0 	ldrb.w	r1, [r4, #160]	; 0xa0
 8003296:	9301      	str	r3, [sp, #4]
 8003298:	f894 30a3 	ldrb.w	r3, [r4, #163]	; 0xa3
 800329c:	4812      	ldr	r0, [pc, #72]	; (80032e8 <Network::Print()+0xec>)
 800329e:	9300      	str	r3, [sp, #0]
 80032a0:	f894 30a2 	ldrb.w	r3, [r4, #162]	; 0xa2
 80032a4:	f7fd fe7a 	bl	8000f9c <printf>
 80032a8:	4b10      	ldr	r3, [pc, #64]	; (80032ec <Network::Print()+0xf0>)
 80032aa:	681b      	ldr	r3, [r3, #0]
 80032ac:	79da      	ldrb	r2, [r3, #7]
 80032ae:	b952      	cbnz	r2, 80032c6 <Network::Print()+0xca>
 80032b0:	795b      	ldrb	r3, [r3, #5]
 80032b2:	2b00      	cmp	r3, #0
 80032b4:	bf14      	ite	ne
 80032b6:	2144      	movne	r1, #68	; 0x44
 80032b8:	2153      	moveq	r1, #83	; 0x53
 80032ba:	480d      	ldr	r0, [pc, #52]	; (80032f0 <Network::Print()+0xf4>)
 80032bc:	b005      	add	sp, #20
 80032be:	e8bd 4030 	ldmia.w	sp!, {r4, r5, lr}
 80032c2:	f7fd be6b 	b.w	8000f9c <printf>
 80032c6:	215a      	movs	r1, #90	; 0x5a
 80032c8:	e7f7      	b.n	80032ba <Network::Print()+0xbe>
 80032ca:	bf00      	nop
 80032cc:	0800687d 	stmdaeq	r0, {r0, r2, r3, r4, r5, r6, fp, sp, lr}
 80032d0:	08006886 	stmdaeq	r0, {r1, r2, r7, fp, sp, lr}
 80032d4:	08006897 	stmdaeq	r0, {r0, r1, r2, r4, r7, fp, sp, lr}
 80032d8:	080068ac 	stmdaeq	r0, {r2, r3, r5, r7, fp, sp, lr}
 80032dc:	080068c9 	stmdaeq	r0, {r0, r3, r6, r7, fp, sp, lr}
 80032e0:	080068e3 	stmdaeq	r0, {r0, r1, r5, r6, r7, fp, sp, lr}
 80032e4:	080068fd 	stmdaeq	r0, {r0, r2, r3, r4, r5, r6, r7, fp, sp, lr}
 80032e8:	08006917 	stmdaeq	r0, {r0, r1, r2, r4, r8, fp, sp, lr}
 80032ec:	2000349c 	mulcs	r0, ip, r4
 80032f0:	08006943 	stmdaeq	r0, {r0, r1, r6, r8, fp, sp, lr}

080032f4 <NetworkParams::NetworkParams(NetworkParamsStore*)>:
 80032f4:	b510      	push	{r4, lr}
 80032f6:	225e      	movs	r2, #94	; 0x5e
 80032f8:	4604      	mov	r4, r0
 80032fa:	f840 1b04 	str.w	r1, [r0], #4
 80032fe:	2100      	movs	r1, #0
 8003300:	f000 fd81 	bl	8003e06 <memset>
 8003304:	2301      	movs	r3, #1
 8003306:	4620      	mov	r0, r4
 8003308:	7623      	strb	r3, [r4, #24]
 800330a:	bd10      	pop	{r4, pc}

0800330c <NetworkParams::Load()>:
 800330c:	b508      	push	{r3, lr}
 800330e:	2300      	movs	r3, #0
 8003310:	4601      	mov	r1, r0
 8003312:	6043      	str	r3, [r0, #4]
 8003314:	6800      	ldr	r0, [r0, #0]
 8003316:	b120      	cbz	r0, 8003322 <NetworkParams::Load()+0x16>
 8003318:	6803      	ldr	r3, [r0, #0]
 800331a:	3104      	adds	r1, #4
 800331c:	68db      	ldr	r3, [r3, #12]
 800331e:	4798      	blx	r3
 8003320:	2001      	movs	r0, #1
 8003322:	bd08      	pop	{r3, pc}

08003324 <NetworkParams::Dump()>:
 8003324:	4770      	bx	lr

08003326 <memcpy.isra.0>:
 8003326:	3801      	subs	r0, #1
 8003328:	440a      	add	r2, r1
 800332a:	4291      	cmp	r1, r2
 800332c:	d100      	bne.n	8003330 <memcpy.isra.0+0xa>
 800332e:	4770      	bx	lr
 8003330:	f811 3b01 	ldrb.w	r3, [r1], #1
 8003334:	f800 3f01 	strb.w	r3, [r0, #1]!
 8003338:	e7f7      	b.n	800332a <memcpy.isra.0+0x4>
	...

0800333c <arp_announce>:
 800333c:	4803      	ldr	r0, [pc, #12]	; (800334c <arp_announce+0x10>)
 800333e:	69c3      	ldr	r3, [r0, #28]
 8003340:	b113      	cbz	r3, 8003348 <arp_announce+0xc>
 8003342:	212a      	movs	r1, #42	; 0x2a
 8003344:	f001 bc7c 	b.w	8004c40 <emac_eth_send>
 8003348:	4770      	bx	lr
 800334a:	bf00      	nop
 800334c:	200034a0 	andcs	r3, r0, r0, lsr #9

08003350 <arp_handle_request>:
 8003350:	b537      	push	{r0, r1, r2, r4, r5, lr}
 8003352:	2204      	movs	r2, #4
 8003354:	f100 0126 	add.w	r1, r0, #38	; 0x26
 8003358:	4604      	mov	r4, r0
 800335a:	eb0d 0002 	add.w	r0, sp, r2
 800335e:	f7ff ffe2 	bl	8003326 <memcpy.isra.0>
 8003362:	4b0d      	ldr	r3, [pc, #52]	; (8003398 <arp_handle_request+0x48>)
 8003364:	9a01      	ldr	r2, [sp, #4]
 8003366:	69db      	ldr	r3, [r3, #28]
 8003368:	429a      	cmp	r2, r3
 800336a:	d113      	bne.n	8003394 <arp_handle_request+0x44>
 800336c:	2206      	movs	r2, #6
 800336e:	4d0b      	ldr	r5, [pc, #44]	; (800339c <arp_handle_request+0x4c>)
 8003370:	18a1      	adds	r1, r4, r2
 8003372:	4628      	mov	r0, r5
 8003374:	f7ff ffd7 	bl	8003326 <memcpy.isra.0>
 8003378:	f104 0116 	add.w	r1, r4, #22
 800337c:	f105 0020 	add.w	r0, r5, #32
 8003380:	2206      	movs	r2, #6
 8003382:	f7ff ffd0 	bl	8003326 <memcpy.isra.0>
 8003386:	69e3      	ldr	r3, [r4, #28]
 8003388:	212a      	movs	r1, #42	; 0x2a
 800338a:	4628      	mov	r0, r5
 800338c:	f8c5 3026 	str.w	r3, [r5, #38]	; 0x26
 8003390:	f001 fc56 	bl	8004c40 <emac_eth_send>
 8003394:	b003      	add	sp, #12
 8003396:	bd30      	pop	{r4, r5, pc}
 8003398:	200034a0 	andcs	r3, r0, r0, lsr #9
 800339c:	200034cc 	andcs	r3, r0, ip, asr #9

080033a0 <arp_handle_reply>:
 80033a0:	69c1      	ldr	r1, [r0, #28]
 80033a2:	3016      	adds	r0, #22
 80033a4:	f000 b80a 	b.w	80033bc <arp_cache_update>

080033a8 <arp_send_request>:
 80033a8:	4b03      	ldr	r3, [pc, #12]	; (80033b8 <arp_send_request+0x10>)
 80033aa:	212a      	movs	r1, #42	; 0x2a
 80033ac:	f8c3 0026 	str.w	r0, [r3, #38]	; 0x26
 80033b0:	4618      	mov	r0, r3
 80033b2:	f001 bc45 	b.w	8004c40 <emac_eth_send>
 80033b6:	bf00      	nop
 80033b8:	200034f8 	strdcs	r3, [r0], -r8

080033bc <arp_cache_update>:
 80033bc:	b5f0      	push	{r4, r5, r6, r7, lr}
 80033be:	4e11      	ldr	r6, [pc, #68]	; (8003404 <arp_cache_update+0x48>)
 80033c0:	8833      	ldrh	r3, [r6, #0]
 80033c2:	2b20      	cmp	r3, #32
 80033c4:	d018      	beq.n	80033f8 <arp_cache_update+0x3c>
 80033c6:	2400      	movs	r4, #0
 80033c8:	220c      	movs	r2, #12
 80033ca:	4d0f      	ldr	r5, [pc, #60]	; (8003408 <arp_cache_update+0x4c>)
 80033cc:	b2a7      	uxth	r7, r4
 80033ce:	42bb      	cmp	r3, r7
 80033d0:	d80b      	bhi.n	80033ea <arp_cache_update+0x2e>
 80033d2:	fb02 5203 	mla	r2, r2, r3, r5
 80033d6:	1d84      	adds	r4, r0, #6
 80033d8:	3203      	adds	r2, #3
 80033da:	42a0      	cmp	r0, r4
 80033dc:	d10d      	bne.n	80033fa <arp_cache_update+0x3e>
 80033de:	220c      	movs	r2, #12
 80033e0:	435a      	muls	r2, r3
 80033e2:	3301      	adds	r3, #1
 80033e4:	50a9      	str	r1, [r5, r2]
 80033e6:	8033      	strh	r3, [r6, #0]
 80033e8:	e006      	b.n	80033f8 <arp_cache_update+0x3c>
 80033ea:	3401      	adds	r4, #1
 80033ec:	fb02 5704 	mla	r7, r2, r4, r5
 80033f0:	f857 7c0c 	ldr.w	r7, [r7, #-12]
 80033f4:	428f      	cmp	r7, r1
 80033f6:	d1e9      	bne.n	80033cc <arp_cache_update+0x10>
 80033f8:	bdf0      	pop	{r4, r5, r6, r7, pc}
 80033fa:	f810 7b01 	ldrb.w	r7, [r0], #1
 80033fe:	f802 7f01 	strb.w	r7, [r2, #1]!
 8003402:	e7ea      	b.n	80033da <arp_cache_update+0x1e>
 8003404:	200036a4 	andcs	r3, r0, r4, lsr #13
 8003408:	20003524 	andcs	r3, r0, r4, lsr #10

0800340c <arp_cache_lookup>:
 800340c:	e92d 47f0 	stmdb	sp!, {r4, r5, r6, r7, r8, r9, sl, lr}
 8003410:	2200      	movs	r2, #0
 8003412:	4606      	mov	r6, r0
 8003414:	460c      	mov	r4, r1
 8003416:	200c      	movs	r0, #12
 8003418:	f8df 8084 	ldr.w	r8, [pc, #132]	; 80034a0 <arp_cache_lookup+0x94>
 800341c:	fb00 f302 	mul.w	r3, r0, r2
 8003420:	f853 1008 	ldr.w	r1, [r3, r8]
 8003424:	42b1      	cmp	r1, r6
 8003426:	d10d      	bne.n	8003444 <arp_cache_lookup+0x38>
 8003428:	3304      	adds	r3, #4
 800342a:	4443      	add	r3, r8
 800342c:	3c01      	subs	r4, #1
 800342e:	1d9a      	adds	r2, r3, #6
 8003430:	4293      	cmp	r3, r2
 8003432:	d102      	bne.n	800343a <arp_cache_lookup+0x2e>
 8003434:	4630      	mov	r0, r6
 8003436:	e8bd 87f0 	ldmia.w	sp!, {r4, r5, r6, r7, r8, r9, sl, pc}
 800343a:	f813 1b01 	ldrb.w	r1, [r3], #1
 800343e:	f804 1f01 	strb.w	r1, [r4, #1]!
 8003442:	e7f5      	b.n	8003430 <arp_cache_lookup+0x24>
 8003444:	b111      	cbz	r1, 800344c <arp_cache_lookup+0x40>
 8003446:	3201      	adds	r2, #1
 8003448:	2a20      	cmp	r2, #32
 800344a:	d1e7      	bne.n	800341c <arp_cache_lookup+0x10>
 800344c:	2704      	movs	r7, #4
 800344e:	f8df a054 	ldr.w	sl, [pc, #84]	; 80034a4 <arp_cache_lookup+0x98>
 8003452:	f8ba 5000 	ldrh.w	r5, [sl]
 8003456:	3f01      	subs	r7, #1
 8003458:	f017 07ff 	ands.w	r7, r7, #255	; 0xff
 800345c:	d101      	bne.n	8003462 <arp_cache_lookup+0x56>
 800345e:	463e      	mov	r6, r7
 8003460:	e7e8      	b.n	8003434 <arp_cache_lookup+0x28>
 8003462:	4630      	mov	r0, r6
 8003464:	f7ff ffa0 	bl	80033a8 <arp_send_request>
 8003468:	f44f 3900 	mov.w	r9, #131072	; 0x20000
 800346c:	f1b9 0901 	subs.w	r9, r9, #1
 8003470:	f8ba 3000 	ldrh.w	r3, [sl]
 8003474:	d011      	beq.n	800349a <arp_cache_lookup+0x8e>
 8003476:	429d      	cmp	r5, r3
 8003478:	d00c      	beq.n	8003494 <arp_cache_lookup+0x88>
 800347a:	230c      	movs	r3, #12
 800347c:	fb03 8505 	mla	r5, r3, r5, r8
 8003480:	3c01      	subs	r4, #1
 8003482:	1d2b      	adds	r3, r5, #4
 8003484:	350a      	adds	r5, #10
 8003486:	42ab      	cmp	r3, r5
 8003488:	d0d4      	beq.n	8003434 <arp_cache_lookup+0x28>
 800348a:	f813 2b01 	ldrb.w	r2, [r3], #1
 800348e:	f804 2f01 	strb.w	r2, [r4, #1]!
 8003492:	e7f8      	b.n	8003486 <arp_cache_lookup+0x7a>
 8003494:	f7fd f85e 	bl	8000554 <net_handle>
 8003498:	e7e8      	b.n	800346c <arp_cache_lookup+0x60>
 800349a:	429d      	cmp	r5, r3
 800349c:	d0db      	beq.n	8003456 <arp_cache_lookup+0x4a>
 800349e:	e7ec      	b.n	800347a <arp_cache_lookup+0x6e>
 80034a0:	20003524 	andcs	r3, r0, r4, lsr #10
 80034a4:	200036a4 	andcs	r3, r0, r4, lsr #13

080034a8 <_parse_response>:
 80034a8:	e92d 4ff0 	stmdb	sp!, {r4, r5, r6, r7, r8, r9, sl, fp, lr}
 80034ac:	2400      	movs	r4, #0
 80034ae:	460d      	mov	r5, r1
 80034b0:	46a3      	mov	fp, r4
 80034b2:	4627      	mov	r7, r4
 80034b4:	46a2      	mov	sl, r4
 80034b6:	46a1      	mov	r9, r4
 80034b8:	46a0      	mov	r8, r4
 80034ba:	4e50      	ldr	r6, [pc, #320]	; (80035fc <_parse_response+0x154>)
 80034bc:	f5ad 7d17 	sub.w	sp, sp, #604	; 0x25c
 80034c0:	6833      	ldr	r3, [r6, #0]
 80034c2:	e9cd 4403 	strd	r4, r4, [sp, #12]
 80034c6:	e9cd 4405 	strd	r4, r4, [sp, #20]
 80034ca:	9009      	str	r0, [sp, #36]	; 0x24
 80034cc:	9402      	str	r4, [sp, #8]
 80034ce:	9407      	str	r4, [sp, #28]
 80034d0:	9308      	str	r3, [sp, #32]
 80034d2:	f7fd f83f 	bl	8000554 <net_handle>
 80034d6:	f10d 032e 	add.w	r3, sp, #46	; 0x2e
 80034da:	9300      	str	r3, [sp, #0]
 80034dc:	f44f 7209 	mov.w	r2, #548	; 0x224
 80034e0:	f89d 0024 	ldrb.w	r0, [sp, #36]	; 0x24
 80034e4:	ab0c      	add	r3, sp, #48	; 0x30
 80034e6:	a90d      	add	r1, sp, #52	; 0x34
 80034e8:	f7ff f9ec 	bl	80028c4 <udp_recv>
 80034ec:	2800      	cmp	r0, #0
 80034ee:	d03f      	beq.n	8003570 <_parse_response+0xc8>
 80034f0:	f8bd 302e 	ldrh.w	r3, [sp, #46]	; 0x2e
 80034f4:	2b43      	cmp	r3, #67	; 0x43
 80034f6:	d13b      	bne.n	8003570 <_parse_response+0xc8>
 80034f8:	f10d 024f 	add.w	r2, sp, #79	; 0x4f
 80034fc:	1e6b      	subs	r3, r5, #1
 80034fe:	1d69      	adds	r1, r5, #5
 8003500:	4299      	cmp	r1, r3
 8003502:	d12f      	bne.n	8003564 <_parse_response+0xbc>
 8003504:	2100      	movs	r1, #0
 8003506:	ab0d      	add	r3, sp, #52	; 0x34
 8003508:	181d      	adds	r5, r3, r0
 800350a:	468c      	mov	ip, r1
 800350c:	460e      	mov	r6, r1
 800350e:	4608      	mov	r0, r1
 8003510:	ab49      	add	r3, sp, #292	; 0x124
 8003512:	42ab      	cmp	r3, r5
 8003514:	d337      	bcc.n	8003586 <_parse_response+0xde>
 8003516:	b141      	cbz	r1, 800352a <_parse_response+0x82>
 8003518:	4b39      	ldr	r3, [pc, #228]	; (8003600 <_parse_response+0x158>)
 800351a:	9a07      	ldr	r2, [sp, #28]
 800351c:	f883 8003 	strb.w	r8, [r3, #3]
 8003520:	709a      	strb	r2, [r3, #2]
 8003522:	9a06      	ldr	r2, [sp, #24]
 8003524:	705a      	strb	r2, [r3, #1]
 8003526:	9a05      	ldr	r2, [sp, #20]
 8003528:	701a      	strb	r2, [r3, #0]
 800352a:	f1bc 0f00 	cmp.w	ip, #0
 800352e:	d007      	beq.n	8003540 <_parse_response+0x98>
 8003530:	4b34      	ldr	r3, [pc, #208]	; (8003604 <_parse_response+0x15c>)
 8003532:	9a04      	ldr	r2, [sp, #16]
 8003534:	705c      	strb	r4, [r3, #1]
 8003536:	70da      	strb	r2, [r3, #3]
 8003538:	9a03      	ldr	r2, [sp, #12]
 800353a:	709a      	strb	r2, [r3, #2]
 800353c:	9a02      	ldr	r2, [sp, #8]
 800353e:	701a      	strb	r2, [r3, #0]
 8003540:	b13e      	cbz	r6, 8003552 <_parse_response+0xaa>
 8003542:	4b31      	ldr	r3, [pc, #196]	; (8003608 <_parse_response+0x160>)
 8003544:	70df      	strb	r7, [r3, #3]
 8003546:	f883 a002 	strb.w	sl, [r3, #2]
 800354a:	f883 9001 	strb.w	r9, [r3, #1]
 800354e:	f883 b000 	strb.w	fp, [r3]
 8003552:	2802      	cmp	r0, #2
 8003554:	d102      	bne.n	800355c <_parse_response+0xb4>
 8003556:	9a11      	ldr	r2, [sp, #68]	; 0x44
 8003558:	4b2c      	ldr	r3, [pc, #176]	; (800360c <_parse_response+0x164>)
 800355a:	601a      	str	r2, [r3, #0]
 800355c:	f50d 7d17 	add.w	sp, sp, #604	; 0x25c
 8003560:	e8bd 8ff0 	ldmia.w	sp!, {r4, r5, r6, r7, r8, r9, sl, fp, pc}
 8003564:	f812 ef01 	ldrb.w	lr, [r2, #1]!
 8003568:	f813 cf01 	ldrb.w	ip, [r3, #1]!
 800356c:	45e6      	cmp	lr, ip
 800356e:	d0c7      	beq.n	8003500 <_parse_response+0x58>
 8003570:	6833      	ldr	r3, [r6, #0]
 8003572:	9a08      	ldr	r2, [sp, #32]
 8003574:	1a9b      	subs	r3, r3, r2
 8003576:	f5b3 7ffa 	cmp.w	r3, #500	; 0x1f4
 800357a:	d3aa      	bcc.n	80034d2 <_parse_response+0x2a>
 800357c:	2800      	cmp	r0, #0
 800357e:	d1c1      	bne.n	8003504 <_parse_response+0x5c>
 8003580:	f04f 30ff 	mov.w	r0, #4294967295	; 0xffffffff
 8003584:	e7ea      	b.n	800355c <_parse_response+0xb4>
 8003586:	781a      	ldrb	r2, [r3, #0]
 8003588:	2a35      	cmp	r2, #53	; 0x35
 800358a:	d011      	beq.n	80035b0 <_parse_response+0x108>
 800358c:	d808      	bhi.n	80035a0 <_parse_response+0xf8>
 800358e:	2a01      	cmp	r2, #1
 8003590:	d011      	beq.n	80035b6 <_parse_response+0x10e>
 8003592:	2a03      	cmp	r2, #3
 8003594:	d019      	beq.n	80035ca <_parse_response+0x122>
 8003596:	b14a      	cbz	r2, 80035ac <_parse_response+0x104>
 8003598:	1c9a      	adds	r2, r3, #2
 800359a:	785b      	ldrb	r3, [r3, #1]
 800359c:	4413      	add	r3, r2
 800359e:	e7b8      	b.n	8003512 <_parse_response+0x6a>
 80035a0:	2a36      	cmp	r2, #54	; 0x36
 80035a2:	d01f      	beq.n	80035e4 <_parse_response+0x13c>
 80035a4:	2aff      	cmp	r2, #255	; 0xff
 80035a6:	d1f7      	bne.n	8003598 <_parse_response+0xf0>
 80035a8:	462b      	mov	r3, r5
 80035aa:	e7b2      	b.n	8003512 <_parse_response+0x6a>
 80035ac:	3301      	adds	r3, #1
 80035ae:	e7b0      	b.n	8003512 <_parse_response+0x6a>
 80035b0:	7898      	ldrb	r0, [r3, #2]
 80035b2:	3303      	adds	r3, #3
 80035b4:	e7ad      	b.n	8003512 <_parse_response+0x6a>
 80035b6:	f893 b002 	ldrb.w	fp, [r3, #2]
 80035ba:	f893 9003 	ldrb.w	r9, [r3, #3]
 80035be:	f893 a004 	ldrb.w	sl, [r3, #4]
 80035c2:	795f      	ldrb	r7, [r3, #5]
 80035c4:	4616      	mov	r6, r2
 80035c6:	3306      	adds	r3, #6
 80035c8:	e7a3      	b.n	8003512 <_parse_response+0x6a>
 80035ca:	789a      	ldrb	r2, [r3, #2]
 80035cc:	78dc      	ldrb	r4, [r3, #3]
 80035ce:	9202      	str	r2, [sp, #8]
 80035d0:	791a      	ldrb	r2, [r3, #4]
 80035d2:	f04f 0c01 	mov.w	ip, #1
 80035d6:	9203      	str	r2, [sp, #12]
 80035d8:	795a      	ldrb	r2, [r3, #5]
 80035da:	9204      	str	r2, [sp, #16]
 80035dc:	785a      	ldrb	r2, [r3, #1]
 80035de:	4413      	add	r3, r2
 80035e0:	3302      	adds	r3, #2
 80035e2:	e796      	b.n	8003512 <_parse_response+0x6a>
 80035e4:	789a      	ldrb	r2, [r3, #2]
 80035e6:	f893 8005 	ldrb.w	r8, [r3, #5]
 80035ea:	9205      	str	r2, [sp, #20]
 80035ec:	78da      	ldrb	r2, [r3, #3]
 80035ee:	2101      	movs	r1, #1
 80035f0:	9206      	str	r2, [sp, #24]
 80035f2:	791a      	ldrb	r2, [r3, #4]
 80035f4:	3306      	adds	r3, #6
 80035f6:	9207      	str	r2, [sp, #28]
 80035f8:	e78b      	b.n	8003512 <_parse_response+0x6a>
 80035fa:	bf00      	nop
 80035fc:	200039c4 	andcs	r3, r0, r4, asr #19
 8003600:	200038d8 	ldrdcs	r3, [r0], -r8
 8003604:	200036a8 	andcs	r3, r0, r8, lsr #13
 8003608:	200036b0 			; <UNDEFINED> instruction: 0x200036b0
 800360c:	200036ac 	andcs	r3, r0, ip, lsr #13

08003610 <memcpy.isra.0>:
 8003610:	3801      	subs	r0, #1
 8003612:	440a      	add	r2, r1
 8003614:	4291      	cmp	r1, r2
 8003616:	d100      	bne.n	800361a <memcpy.isra.0+0xa>
 8003618:	4770      	bx	lr
 800361a:	f811 3b01 	ldrb.w	r3, [r1], #1
 800361e:	f800 3f01 	strb.w	r3, [r0, #1]!
 8003622:	e7f7      	b.n	8003614 <memcpy.isra.0+0x4>

08003624 <dhcp_client>:
 8003624:	e92d 4ff0 	stmdb	sp!, {r4, r5, r6, r7, r8, r9, sl, fp, lr}
 8003628:	b087      	sub	sp, #28
 800362a:	9203      	str	r2, [sp, #12]
 800362c:	4a77      	ldr	r2, [pc, #476]	; (800380c <dhcp_client+0x1e8>)
 800362e:	460f      	mov	r7, r1
 8003630:	4605      	mov	r5, r0
 8003632:	f44f 7309 	mov.w	r3, #548	; 0x224
 8003636:	4614      	mov	r4, r2
 8003638:	2100      	movs	r1, #0
 800363a:	3b01      	subs	r3, #1
 800363c:	f802 1b01 	strb.w	r1, [r2], #1
 8003640:	d1fb      	bne.n	800363a <dhcp_client+0x16>
 8003642:	f240 1301 	movw	r3, #257	; 0x101
 8003646:	2206      	movs	r2, #6
 8003648:	4629      	mov	r1, r5
 800364a:	4871      	ldr	r0, [pc, #452]	; (8003810 <dhcp_client+0x1ec>)
 800364c:	8023      	strh	r3, [r4, #0]
 800364e:	70a2      	strb	r2, [r4, #2]
 8003650:	f7ff ffde 	bl	8003610 <memcpy.isra.0>
 8003654:	4b6f      	ldr	r3, [pc, #444]	; (8003814 <dhcp_client+0x1f0>)
 8003656:	2044      	movs	r0, #68	; 0x44
 8003658:	f8c4 30ec 	str.w	r3, [r4, #236]	; 0xec
 800365c:	f240 1335 	movw	r3, #309	; 0x135
 8003660:	f8a4 30f0 	strh.w	r3, [r4, #240]	; 0xf0
 8003664:	f7ff f8f0 	bl	8002848 <udp_bind>
 8003668:	1e06      	subs	r6, r0, #0
 800366a:	f2c0 80c9 	blt.w	8003800 <dhcp_client+0x1dc>
 800366e:	f04f 0915 	mov.w	r9, #21
 8003672:	f8df a198 	ldr.w	sl, [pc, #408]	; 800380c <dhcp_client+0x1e8>
 8003676:	f1b9 0901 	subs.w	r9, r9, #1
 800367a:	d11f      	bne.n	80036bc <dhcp_client+0x98>
 800367c:	464c      	mov	r4, r9
 800367e:	2044      	movs	r0, #68	; 0x44
 8003680:	f7ff f900 	bl	8002884 <udp_unbind>
 8003684:	2c00      	cmp	r4, #0
 8003686:	f000 80be 	beq.w	8003806 <dhcp_client+0x1e2>
 800368a:	2204      	movs	r2, #4
 800368c:	4962      	ldr	r1, [pc, #392]	; (8003818 <dhcp_client+0x1f4>)
 800368e:	a805      	add	r0, sp, #20
 8003690:	f7ff ffbe 	bl	8003610 <memcpy.isra.0>
 8003694:	9b05      	ldr	r3, [sp, #20]
 8003696:	2204      	movs	r2, #4
 8003698:	4960      	ldr	r1, [pc, #384]	; (800381c <dhcp_client+0x1f8>)
 800369a:	603b      	str	r3, [r7, #0]
 800369c:	a805      	add	r0, sp, #20
 800369e:	f7ff ffb7 	bl	8003610 <memcpy.isra.0>
 80036a2:	9b05      	ldr	r3, [sp, #20]
 80036a4:	a805      	add	r0, sp, #20
 80036a6:	60bb      	str	r3, [r7, #8]
 80036a8:	2204      	movs	r2, #4
 80036aa:	495d      	ldr	r1, [pc, #372]	; (8003820 <dhcp_client+0x1fc>)
 80036ac:	f7ff ffb0 	bl	8003610 <memcpy.isra.0>
 80036b0:	2000      	movs	r0, #0
 80036b2:	9b05      	ldr	r3, [sp, #20]
 80036b4:	607b      	str	r3, [r7, #4]
 80036b6:	b007      	add	sp, #28
 80036b8:	e8bd 8ff0 	ldmia.w	sp!, {r4, r5, r6, r7, r8, r9, sl, fp, pc}
 80036bc:	f643 5301 	movw	r3, #15617	; 0x3d01
 80036c0:	f240 1807 	movw	r8, #263	; 0x107
 80036c4:	f8a4 30f2 	strh.w	r3, [r4, #242]	; 0xf2
 80036c8:	f8a4 80f4 	strh.w	r8, [r4, #244]	; 0xf4
 80036cc:	782b      	ldrb	r3, [r5, #0]
 80036ce:	4a55      	ldr	r2, [pc, #340]	; (8003824 <dhcp_client+0x200>)
 80036d0:	f884 30f6 	strb.w	r3, [r4, #246]	; 0xf6
 80036d4:	786b      	ldrb	r3, [r5, #1]
 80036d6:	fa5f fb86 	uxtb.w	fp, r6
 80036da:	f884 30f7 	strb.w	r3, [r4, #247]	; 0xf7
 80036de:	78ab      	ldrb	r3, [r5, #2]
 80036e0:	4651      	mov	r1, sl
 80036e2:	f884 30f8 	strb.w	r3, [r4, #248]	; 0xf8
 80036e6:	78eb      	ldrb	r3, [r5, #3]
 80036e8:	4658      	mov	r0, fp
 80036ea:	f884 30f9 	strb.w	r3, [r4, #249]	; 0xf9
 80036ee:	792b      	ldrb	r3, [r5, #4]
 80036f0:	f884 30fa 	strb.w	r3, [r4, #250]	; 0xfa
 80036f4:	796b      	ldrb	r3, [r5, #5]
 80036f6:	f884 30fb 	strb.w	r3, [r4, #251]	; 0xfb
 80036fa:	4b4b      	ldr	r3, [pc, #300]	; (8003828 <dhcp_client+0x204>)
 80036fc:	e9c4 233f 	strd	r2, r3, [r4, #252]	; 0xfc
 8003700:	23ff      	movs	r3, #255	; 0xff
 8003702:	f884 3104 	strb.w	r3, [r4, #260]	; 0x104
 8003706:	2343      	movs	r3, #67	; 0x43
 8003708:	f240 1205 	movw	r2, #261	; 0x105
 800370c:	9300      	str	r3, [sp, #0]
 800370e:	f04f 33ff 	mov.w	r3, #4294967295	; 0xffffffff
 8003712:	f7ff f933 	bl	800297c <udp_send>
 8003716:	4629      	mov	r1, r5
 8003718:	4630      	mov	r0, r6
 800371a:	f7ff fec5 	bl	80034a8 <_parse_response>
 800371e:	2802      	cmp	r0, #2
 8003720:	d1a9      	bne.n	8003676 <dhcp_client+0x52>
 8003722:	f643 5303 	movw	r3, #15619	; 0x3d03
 8003726:	f8a4 80f4 	strh.w	r8, [r4, #244]	; 0xf4
 800372a:	f8a4 30f2 	strh.w	r3, [r4, #242]	; 0xf2
 800372e:	782b      	ldrb	r3, [r5, #0]
 8003730:	f8df c0f8 	ldr.w	ip, [pc, #248]	; 800382c <dhcp_client+0x208>
 8003734:	f884 30f6 	strb.w	r3, [r4, #246]	; 0xf6
 8003738:	786b      	ldrb	r3, [r5, #1]
 800373a:	f884 30f7 	strb.w	r3, [r4, #247]	; 0xf7
 800373e:	78ab      	ldrb	r3, [r5, #2]
 8003740:	f884 30f8 	strb.w	r3, [r4, #248]	; 0xf8
 8003744:	78eb      	ldrb	r3, [r5, #3]
 8003746:	f884 30f9 	strb.w	r3, [r4, #249]	; 0xf9
 800374a:	792b      	ldrb	r3, [r5, #4]
 800374c:	f884 30fa 	strb.w	r3, [r4, #250]	; 0xfa
 8003750:	796b      	ldrb	r3, [r5, #5]
 8003752:	f884 30fb 	strb.w	r3, [r4, #251]	; 0xfb
 8003756:	f240 4332 	movw	r3, #1074	; 0x432
 800375a:	f8a4 30fc 	strh.w	r3, [r4, #252]	; 0xfc
 800375e:	4b2e      	ldr	r3, [pc, #184]	; (8003818 <dhcp_client+0x1f4>)
 8003760:	881a      	ldrh	r2, [r3, #0]
 8003762:	885b      	ldrh	r3, [r3, #2]
 8003764:	f8a4 20fe 	strh.w	r2, [r4, #254]	; 0xfe
 8003768:	f8a4 3100 	strh.w	r3, [r4, #256]	; 0x100
 800376c:	f240 4336 	movw	r3, #1078	; 0x436
 8003770:	f8a4 3102 	strh.w	r3, [r4, #258]	; 0x102
 8003774:	4b2e      	ldr	r3, [pc, #184]	; (8003830 <dhcp_client+0x20c>)
 8003776:	221e      	movs	r2, #30
 8003778:	681b      	ldr	r3, [r3, #0]
 800377a:	f8c4 3104 	str.w	r3, [r4, #260]	; 0x104
 800377e:	230c      	movs	r3, #12
 8003780:	f8a4 3108 	strh.w	r3, [r4, #264]	; 0x108
 8003784:	9b03      	ldr	r3, [sp, #12]
 8003786:	1e58      	subs	r0, r3, #1
 8003788:	f810 3f01 	ldrb.w	r3, [r0, #1]!
 800378c:	f1a2 0e1e 	sub.w	lr, r2, #30
 8003790:	1c51      	adds	r1, r2, #1
 8003792:	bb8b      	cbnz	r3, 80037f8 <dhcp_client+0x1d4>
 8003794:	2037      	movs	r0, #55	; 0x37
 8003796:	18a3      	adds	r3, r4, r2
 8003798:	f883 00ec 	strb.w	r0, [r3, #236]	; 0xec
 800379c:	2006      	movs	r0, #6
 800379e:	4421      	add	r1, r4
 80037a0:	f881 00ec 	strb.w	r0, [r1, #236]	; 0xec
 80037a4:	2103      	movs	r1, #3
 80037a6:	f883 10ef 	strb.w	r1, [r3, #239]	; 0xef
 80037aa:	210f      	movs	r1, #15
 80037ac:	f883 10f1 	strb.w	r1, [r3, #241]	; 0xf1
 80037b0:	213a      	movs	r1, #58	; 0x3a
 80037b2:	f883 10f2 	strb.w	r1, [r3, #242]	; 0xf2
 80037b6:	213b      	movs	r1, #59	; 0x3b
 80037b8:	f04f 0801 	mov.w	r8, #1
 80037bc:	f883 10f3 	strb.w	r1, [r3, #243]	; 0xf3
 80037c0:	21ff      	movs	r1, #255	; 0xff
 80037c2:	f883 00f0 	strb.w	r0, [r3, #240]	; 0xf0
 80037c6:	f883 10f4 	strb.w	r1, [r3, #244]	; 0xf4
 80037ca:	f883 80ee 	strb.w	r8, [r3, #238]	; 0xee
 80037ce:	2343      	movs	r3, #67	; 0x43
 80037d0:	32f5      	adds	r2, #245	; 0xf5
 80037d2:	f884 e109 	strb.w	lr, [r4, #265]	; 0x109
 80037d6:	4651      	mov	r1, sl
 80037d8:	9300      	str	r3, [sp, #0]
 80037da:	b292      	uxth	r2, r2
 80037dc:	f04f 33ff 	mov.w	r3, #4294967295	; 0xffffffff
 80037e0:	4658      	mov	r0, fp
 80037e2:	f7ff f8cb 	bl	800297c <udp_send>
 80037e6:	4629      	mov	r1, r5
 80037e8:	4630      	mov	r0, r6
 80037ea:	f7ff fe5d 	bl	80034a8 <_parse_response>
 80037ee:	2805      	cmp	r0, #5
 80037f0:	f47f af41 	bne.w	8003676 <dhcp_client+0x52>
 80037f4:	4644      	mov	r4, r8
 80037f6:	e742      	b.n	800367e <dhcp_client+0x5a>
 80037f8:	460a      	mov	r2, r1
 80037fa:	f80c 3f01 	strb.w	r3, [ip, #1]!
 80037fe:	e7c3      	b.n	8003788 <dhcp_client+0x164>
 8003800:	f04f 30ff 	mov.w	r0, #4294967295	; 0xffffffff
 8003804:	e757      	b.n	80036b6 <dhcp_client+0x92>
 8003806:	f06f 0001 	mvn.w	r0, #1
 800380a:	e754      	b.n	80036b6 <dhcp_client+0x92>
 800380c:	200036b4 			; <UNDEFINED> instruction: 0x200036b4
 8003810:	200036d0 	ldrdcs	r3, [r0], -r0
 8003814:	63538263 	cmpvs	r3, #805306374	; 0x30000006
 8003818:	200036ac 	andcs	r3, r0, ip, lsr #13
 800381c:	200036a8 	andcs	r3, r0, r8, lsr #13
 8003820:	200036b0 			; <UNDEFINED> instruction: 0x200036b0
 8003824:	03010637 	movweq	r0, #5687	; 0x1637
 8003828:	3b3a0f06 	blcc	8e87448 <__exidx_end+0xe80a5c>
 800382c:	200037bd 			; <UNDEFINED> instruction: 0x200037bd
 8003830:	200038d8 	ldrdcs	r3, [r0], -r8

08003834 <dhcp_client_release>:
 8003834:	b507      	push	{r0, r1, r2, lr}
 8003836:	2044      	movs	r0, #68	; 0x44
 8003838:	f7ff f806 	bl	8002848 <udp_bind>
 800383c:	f243 6307 	movw	r3, #13831	; 0x3607
 8003840:	4911      	ldr	r1, [pc, #68]	; (8003888 <dhcp_client_release+0x54>)
 8003842:	b2c0      	uxtb	r0, r0
 8003844:	f8a1 30f2 	strh.w	r3, [r1, #242]	; 0xf2
 8003848:	2304      	movs	r3, #4
 800384a:	f881 30f4 	strb.w	r3, [r1, #244]	; 0xf4
 800384e:	4b0f      	ldr	r3, [pc, #60]	; (800388c <dhcp_client_release+0x58>)
 8003850:	781a      	ldrb	r2, [r3, #0]
 8003852:	f881 20f5 	strb.w	r2, [r1, #245]	; 0xf5
 8003856:	785a      	ldrb	r2, [r3, #1]
 8003858:	f881 20f6 	strb.w	r2, [r1, #246]	; 0xf6
 800385c:	789a      	ldrb	r2, [r3, #2]
 800385e:	78db      	ldrb	r3, [r3, #3]
 8003860:	f881 20f7 	strb.w	r2, [r1, #247]	; 0xf7
 8003864:	f881 30f8 	strb.w	r3, [r1, #248]	; 0xf8
 8003868:	23ff      	movs	r3, #255	; 0xff
 800386a:	f881 30f9 	strb.w	r3, [r1, #249]	; 0xf9
 800386e:	2343      	movs	r3, #67	; 0x43
 8003870:	22fa      	movs	r2, #250	; 0xfa
 8003872:	9300      	str	r3, [sp, #0]
 8003874:	f04f 33ff 	mov.w	r3, #4294967295	; 0xffffffff
 8003878:	f7ff f880 	bl	800297c <udp_send>
 800387c:	2044      	movs	r0, #68	; 0x44
 800387e:	b003      	add	sp, #12
 8003880:	f85d eb04 	ldr.w	lr, [sp], #4
 8003884:	f7fe bffe 	b.w	8002884 <udp_unbind>
 8003888:	200036b4 			; <UNDEFINED> instruction: 0x200036b4
 800388c:	200038d8 	ldrdcs	r3, [r0], -r8

08003890 <memcpy.isra.0>:
 8003890:	3801      	subs	r0, #1
 8003892:	440a      	add	r2, r1
 8003894:	4291      	cmp	r1, r2
 8003896:	d100      	bne.n	800389a <memcpy.isra.0+0xa>
 8003898:	4770      	bx	lr
 800389a:	f811 3b01 	ldrb.w	r3, [r1], #1
 800389e:	f800 3f01 	strb.w	r3, [r0, #1]!
 80038a2:	e7f7      	b.n	8003894 <memcpy.isra.0+0x4>

080038a4 <_send_report>:
 80038a4:	b5f7      	push	{r0, r1, r2, r4, r5, r6, r7, lr}
 80038a6:	491c      	ldr	r1, [pc, #112]	; (8003918 <_send_report+0x74>)
 80038a8:	4c1c      	ldr	r4, [pc, #112]	; (800391c <_send_report+0x78>)
 80038aa:	f3c0 2306 	ubfx	r3, r0, #8, #7
 80038ae:	9001      	str	r0, [sp, #4]
 80038b0:	70cb      	strb	r3, [r1, #3]
 80038b2:	f3c0 4307 	ubfx	r3, r0, #16, #8
 80038b6:	f3c0 6007 	ubfx	r0, r0, #24, #8
 80038ba:	710b      	strb	r3, [r1, #4]
 80038bc:	7148      	strb	r0, [r1, #5]
 80038be:	2206      	movs	r2, #6
 80038c0:	4620      	mov	r0, r4
 80038c2:	f7ff ffe5 	bl	8003890 <memcpy.isra.0>
 80038c6:	2204      	movs	r2, #4
 80038c8:	2700      	movs	r7, #0
 80038ca:	4d15      	ldr	r5, [pc, #84]	; (8003920 <_send_report+0x7c>)
 80038cc:	eb0d 0102 	add.w	r1, sp, r2
 80038d0:	882b      	ldrh	r3, [r5, #0]
 80038d2:	f104 001e 	add.w	r0, r4, #30
 80038d6:	f104 060e 	add.w	r6, r4, #14
 80038da:	8263      	strh	r3, [r4, #18]
 80038dc:	f7ff ffd8 	bl	8003890 <memcpy.isra.0>
 80038e0:	2118      	movs	r1, #24
 80038e2:	4630      	mov	r0, r6
 80038e4:	8327      	strh	r7, [r4, #24]
 80038e6:	f000 f88c 	bl	8003a02 <net_chksum>
 80038ea:	2204      	movs	r2, #4
 80038ec:	8320      	strh	r0, [r4, #24]
 80038ee:	eb0d 0102 	add.w	r1, sp, r2
 80038f2:	f104 002a 	add.w	r0, r4, #42	; 0x2a
 80038f6:	f7ff ffcb 	bl	8003890 <memcpy.isra.0>
 80038fa:	2120      	movs	r1, #32
 80038fc:	4630      	mov	r0, r6
 80038fe:	8527      	strh	r7, [r4, #40]	; 0x28
 8003900:	f000 f87f 	bl	8003a02 <net_chksum>
 8003904:	212e      	movs	r1, #46	; 0x2e
 8003906:	8520      	strh	r0, [r4, #40]	; 0x28
 8003908:	4620      	mov	r0, r4
 800390a:	f001 f999 	bl	8004c40 <emac_eth_send>
 800390e:	882b      	ldrh	r3, [r5, #0]
 8003910:	3301      	adds	r3, #1
 8003912:	802b      	strh	r3, [r5, #0]
 8003914:	b003      	add	sp, #12
 8003916:	bdf0      	pop	{r4, r5, r6, r7, pc}
 8003918:	2000391c 	andcs	r3, r0, ip, lsl r9
 800391c:	20003924 	andcs	r3, r0, r4, lsr #18
 8003920:	200038e4 	andcs	r3, r0, r4, ror #17

08003924 <igmp_set_ip>:
 8003924:	b507      	push	{r0, r1, r2, lr}
 8003926:	2204      	movs	r2, #4
 8003928:	6803      	ldr	r3, [r0, #0]
 800392a:	eb0d 0102 	add.w	r1, sp, r2
 800392e:	4806      	ldr	r0, [pc, #24]	; (8003948 <igmp_set_ip+0x24>)
 8003930:	9301      	str	r3, [sp, #4]
 8003932:	f7ff ffad 	bl	8003890 <memcpy.isra.0>
 8003936:	2204      	movs	r2, #4
 8003938:	4804      	ldr	r0, [pc, #16]	; (800394c <igmp_set_ip+0x28>)
 800393a:	eb0d 0102 	add.w	r1, sp, r2
 800393e:	f7ff ffa7 	bl	8003890 <memcpy.isra.0>
 8003942:	b003      	add	sp, #12
 8003944:	f85d fb04 	ldr.w	pc, [sp], #4
 8003948:	2000393e 	andcs	r3, r0, lr, lsr r9
 800394c:	20003906 	andcs	r3, r0, r6, lsl #18

08003950 <igmp_timer>:
 8003950:	b538      	push	{r3, r4, r5, lr}
 8003952:	2500      	movs	r5, #0
 8003954:	4c0a      	ldr	r4, [pc, #40]	; (8003980 <igmp_timer+0x30>)
 8003956:	7962      	ldrb	r2, [r4, #5]
 8003958:	7923      	ldrb	r3, [r4, #4]
 800395a:	b105      	cbz	r5, 800395e <igmp_timer+0xe>
 800395c:	bd38      	pop	{r3, r4, r5, pc}
 800395e:	2a01      	cmp	r2, #1
 8003960:	d1fc      	bne.n	800395c <igmp_timer+0xc>
 8003962:	2b00      	cmp	r3, #0
 8003964:	d0fa      	beq.n	800395c <igmp_timer+0xc>
 8003966:	3b01      	subs	r3, #1
 8003968:	f013 03ff 	ands.w	r3, r3, #255	; 0xff
 800396c:	4615      	mov	r5, r2
 800396e:	7123      	strb	r3, [r4, #4]
 8003970:	d1f4      	bne.n	800395c <igmp_timer+0xc>
 8003972:	6820      	ldr	r0, [r4, #0]
 8003974:	f7ff ff96 	bl	80038a4 <_send_report>
 8003978:	2302      	movs	r3, #2
 800397a:	7163      	strb	r3, [r4, #5]
 800397c:	e7eb      	b.n	8003956 <igmp_timer+0x6>
 800397e:	bf00      	nop
 8003980:	200038dc 	ldrdcs	r3, [r0], -ip

08003984 <igmp_leave>:
 8003984:	b5f7      	push	{r0, r1, r2, r4, r5, r6, r7, lr}
 8003986:	4e16      	ldr	r6, [pc, #88]	; (80039e0 <igmp_leave+0x5c>)
 8003988:	6833      	ldr	r3, [r6, #0]
 800398a:	4298      	cmp	r0, r3
 800398c:	d125      	bne.n	80039da <igmp_leave+0x56>
 800398e:	2400      	movs	r4, #0
 8003990:	4f14      	ldr	r7, [pc, #80]	; (80039e4 <igmp_leave+0x60>)
 8003992:	4d15      	ldr	r5, [pc, #84]	; (80039e8 <igmp_leave+0x64>)
 8003994:	883b      	ldrh	r3, [r7, #0]
 8003996:	2118      	movs	r1, #24
 8003998:	9001      	str	r0, [sp, #4]
 800399a:	4814      	ldr	r0, [pc, #80]	; (80039ec <igmp_leave+0x68>)
 800399c:	826b      	strh	r3, [r5, #18]
 800399e:	832c      	strh	r4, [r5, #24]
 80039a0:	f000 f82f 	bl	8003a02 <net_chksum>
 80039a4:	2204      	movs	r2, #4
 80039a6:	8328      	strh	r0, [r5, #24]
 80039a8:	eb0d 0102 	add.w	r1, sp, r2
 80039ac:	f105 002a 	add.w	r0, r5, #42	; 0x2a
 80039b0:	f7ff ff6e 	bl	8003890 <memcpy.isra.0>
 80039b4:	2120      	movs	r1, #32
 80039b6:	f105 000e 	add.w	r0, r5, #14
 80039ba:	852c      	strh	r4, [r5, #40]	; 0x28
 80039bc:	f000 f821 	bl	8003a02 <net_chksum>
 80039c0:	212e      	movs	r1, #46	; 0x2e
 80039c2:	8528      	strh	r0, [r5, #40]	; 0x28
 80039c4:	4628      	mov	r0, r5
 80039c6:	f001 f93b 	bl	8004c40 <emac_eth_send>
 80039ca:	4620      	mov	r0, r4
 80039cc:	883b      	ldrh	r3, [r7, #0]
 80039ce:	6034      	str	r4, [r6, #0]
 80039d0:	3301      	adds	r3, #1
 80039d2:	803b      	strh	r3, [r7, #0]
 80039d4:	80b4      	strh	r4, [r6, #4]
 80039d6:	b003      	add	sp, #12
 80039d8:	bdf0      	pop	{r4, r5, r6, r7, pc}
 80039da:	f04f 30ff 	mov.w	r0, #4294967295	; 0xffffffff
 80039de:	e7fa      	b.n	80039d6 <igmp_leave+0x52>
 80039e0:	200038dc 	ldrdcs	r3, [r0], -ip
 80039e4:	200038e4 	andcs	r3, r0, r4, ror #17
 80039e8:	200038ec 	andcs	r3, r0, ip, ror #17
 80039ec:	20003932 	andcs	r3, r0, r2, lsr r9

080039f0 <ip_set_ip>:
 80039f0:	b510      	push	{r4, lr}
 80039f2:	4604      	mov	r4, r0
 80039f4:	f7fe ff08 	bl	8002808 <udp_set_ip>
 80039f8:	4620      	mov	r0, r4
 80039fa:	e8bd 4010 	ldmia.w	sp!, {r4, lr}
 80039fe:	f7ff bf91 	b.w	8003924 <igmp_set_ip>

08003a02 <net_chksum>:
 8003a02:	2300      	movs	r3, #0
 8003a04:	f021 0201 	bic.w	r2, r1, #1
 8003a08:	b530      	push	{r4, r5, lr}
 8003a0a:	1884      	adds	r4, r0, r2
 8003a0c:	42a0      	cmp	r0, r4
 8003a0e:	d10b      	bne.n	8003a28 <net_chksum+0x26>
 8003a10:	4291      	cmp	r1, r2
 8003a12:	d004      	beq.n	8003a1e <net_chksum+0x1c>
 8003a14:	7802      	ldrb	r2, [r0, #0]
 8003a16:	0212      	lsls	r2, r2, #8
 8003a18:	ba52      	rev16	r2, r2
 8003a1a:	b292      	uxth	r2, r2
 8003a1c:	4413      	add	r3, r2
 8003a1e:	0c1a      	lsrs	r2, r3, #16
 8003a20:	d106      	bne.n	8003a30 <net_chksum+0x2e>
 8003a22:	43d8      	mvns	r0, r3
 8003a24:	b280      	uxth	r0, r0
 8003a26:	bd30      	pop	{r4, r5, pc}
 8003a28:	f830 5b02 	ldrh.w	r5, [r0], #2
 8003a2c:	442b      	add	r3, r5
 8003a2e:	e7ed      	b.n	8003a0c <net_chksum+0xa>
 8003a30:	b29b      	uxth	r3, r3
 8003a32:	e7f3      	b.n	8003a1c <net_chksum+0x1a>

08003a34 <memcpy.isra.0>:
 8003a34:	3801      	subs	r0, #1
 8003a36:	440a      	add	r2, r1
 8003a38:	4291      	cmp	r1, r2
 8003a3a:	d100      	bne.n	8003a3e <memcpy.isra.0+0xa>
 8003a3c:	4770      	bx	lr
 8003a3e:	f811 3b01 	ldrb.w	r3, [r1], #1
 8003a42:	f800 3f01 	strb.w	r3, [r0, #1]!
 8003a46:	e7f7      	b.n	8003a38 <memcpy.isra.0+0x4>

08003a48 <console_putc>:
 8003a48:	f000 bad6 	b.w	8003ff8 <uart0_putc>

08003a4c <console_puts>:
 8003a4c:	f000 baf4 	b.w	8004038 <uart0_puts>

08003a50 <console_set_fg_color>:
 8003a50:	2807      	cmp	r0, #7
 8003a52:	d810      	bhi.n	8003a76 <console_set_fg_color+0x26>
 8003a54:	e8df f000 	tbb	[pc, r0]
 8003a58:	0b090704 	bleq	8245670 <__exidx_end+0x23ec84>
 8003a5c:	0d0f0f0f 	stceq	15, cr0, [pc, #-60]	; 8003a28 <net_chksum+0x26>
 8003a60:	4806      	ldr	r0, [pc, #24]	; (8003a7c <console_set_fg_color+0x2c>)
 8003a62:	f000 bae9 	b.w	8004038 <uart0_puts>
 8003a66:	4806      	ldr	r0, [pc, #24]	; (8003a80 <console_set_fg_color+0x30>)
 8003a68:	e7fb      	b.n	8003a62 <console_set_fg_color+0x12>
 8003a6a:	4806      	ldr	r0, [pc, #24]	; (8003a84 <console_set_fg_color+0x34>)
 8003a6c:	e7f9      	b.n	8003a62 <console_set_fg_color+0x12>
 8003a6e:	4806      	ldr	r0, [pc, #24]	; (8003a88 <console_set_fg_color+0x38>)
 8003a70:	e7f7      	b.n	8003a62 <console_set_fg_color+0x12>
 8003a72:	4806      	ldr	r0, [pc, #24]	; (8003a8c <console_set_fg_color+0x3c>)
 8003a74:	e7f5      	b.n	8003a62 <console_set_fg_color+0x12>
 8003a76:	4806      	ldr	r0, [pc, #24]	; (8003a90 <console_set_fg_color+0x40>)
 8003a78:	e7f3      	b.n	8003a62 <console_set_fg_color+0x12>
 8003a7a:	bf00      	nop
 8003a7c:	08006960 	stmdaeq	r0, {r5, r6, r8, fp, sp, lr}
 8003a80:	08006966 	stmdaeq	r0, {r1, r2, r5, r6, r8, fp, sp, lr}
 8003a84:	0800696c 	stmdaeq	r0, {r2, r3, r5, r6, r8, fp, sp, lr}
 8003a88:	08006972 	stmdaeq	r0, {r1, r4, r5, r6, r8, fp, sp, lr}
 8003a8c:	08006954 	stmdaeq	r0, {r2, r4, r6, r8, fp, sp, lr}
 8003a90:	08006978 	stmdaeq	r0, {r3, r4, r5, r6, r8, fp, sp, lr}

08003a94 <console_error>:
 8003a94:	b510      	push	{r4, lr}
 8003a96:	4604      	mov	r4, r0
 8003a98:	4805      	ldr	r0, [pc, #20]	; (8003ab0 <console_error+0x1c>)
 8003a9a:	f000 facd 	bl	8004038 <uart0_puts>
 8003a9e:	4620      	mov	r0, r4
 8003aa0:	f000 faca 	bl	8004038 <uart0_puts>
 8003aa4:	e8bd 4010 	ldmia.w	sp!, {r4, lr}
 8003aa8:	4802      	ldr	r0, [pc, #8]	; (8003ab4 <console_error+0x20>)
 8003aaa:	f000 bac5 	b.w	8004038 <uart0_puts>
 8003aae:	bf00      	nop
 8003ab0:	08006966 	stmdaeq	r0, {r1, r2, r5, r6, r8, fp, sp, lr}
 8003ab4:	08006954 	stmdaeq	r0, {r2, r4, r6, r8, fp, sp, lr}

08003ab8 <console_status>:
 8003ab8:	b510      	push	{r4, lr}
 8003aba:	460c      	mov	r4, r1
 8003abc:	b280      	uxth	r0, r0
 8003abe:	f7ff ffc7 	bl	8003a50 <console_set_fg_color>
 8003ac2:	4807      	ldr	r0, [pc, #28]	; (8003ae0 <console_status+0x28>)
 8003ac4:	f000 fab8 	bl	8004038 <uart0_puts>
 8003ac8:	4620      	mov	r0, r4
 8003aca:	f000 fab5 	bl	8004038 <uart0_puts>
 8003ace:	200a      	movs	r0, #10
 8003ad0:	f000 fa92 	bl	8003ff8 <uart0_putc>
 8003ad4:	e8bd 4010 	ldmia.w	sp!, {r4, lr}
 8003ad8:	4802      	ldr	r0, [pc, #8]	; (8003ae4 <console_status+0x2c>)
 8003ada:	f000 baad 	b.w	8004038 <uart0_puts>
 8003ade:	bf00      	nop
 8003ae0:	0800695a 	stmdaeq	r0, {r1, r3, r4, r6, r8, fp, sp, lr}
 8003ae4:	08006954 	stmdaeq	r0, {r2, r4, r6, r8, fp, sp, lr}

08003ae8 <FirmwareVersion::FirmwareVersion(char const*, char const*, char const*)>:
 8003ae8:	e92d 41f0 	stmdb	sp!, {r4, r5, r6, r7, r8, lr}
 8003aec:	4617      	mov	r7, r2
 8003aee:	461e      	mov	r6, r3
 8003af0:	4d14      	ldr	r5, [pc, #80]	; (8003b44 <FirmwareVersion::FirmwareVersion(char const*, char const*, char const*)+0x5c>)
 8003af2:	4b15      	ldr	r3, [pc, #84]	; (8003b48 <FirmwareVersion::FirmwareVersion(char const*, char const*, char const*)+0x60>)
 8003af4:	b086      	sub	sp, #24
 8003af6:	6018      	str	r0, [r3, #0]
 8003af8:	4604      	mov	r4, r0
 8003afa:	f105 0803 	add.w	r8, r5, #3
 8003afe:	2203      	movs	r2, #3
 8003b00:	4628      	mov	r0, r5
 8003b02:	f000 f969 	bl	8003dd8 <memmove>
 8003b06:	4639      	mov	r1, r7
 8003b08:	220b      	movs	r2, #11
 8003b0a:	4640      	mov	r0, r8
 8003b0c:	f000 f964 	bl	8003dd8 <memmove>
 8003b10:	f105 030e 	add.w	r3, r5, #14
 8003b14:	4631      	mov	r1, r6
 8003b16:	2208      	movs	r2, #8
 8003b18:	4618      	mov	r0, r3
 8003b1a:	f000 f95d 	bl	8003dd8 <memmove>
 8003b1e:	2308      	movs	r3, #8
 8003b20:	e9cd 8303 	strd	r8, r3, [sp, #12]
 8003b24:	230b      	movs	r3, #11
 8003b26:	9302      	str	r3, [sp, #8]
 8003b28:	4b08      	ldr	r3, [pc, #32]	; (8003b4c <FirmwareVersion::FirmwareVersion(char const*, char const*, char const*)+0x64>)
 8003b2a:	9005      	str	r0, [sp, #20]
 8003b2c:	e9cd 5300 	strd	r5, r3, [sp]
 8003b30:	213f      	movs	r1, #63	; 0x3f
 8003b32:	2303      	movs	r3, #3
 8003b34:	4a06      	ldr	r2, [pc, #24]	; (8003b50 <FirmwareVersion::FirmwareVersion(char const*, char const*, char const*)+0x68>)
 8003b36:	4807      	ldr	r0, [pc, #28]	; (8003b54 <FirmwareVersion::FirmwareVersion(char const*, char const*, char const*)+0x6c>)
 8003b38:	f7fd fa40 	bl	8000fbc <snprintf>
 8003b3c:	4620      	mov	r0, r4
 8003b3e:	b006      	add	sp, #24
 8003b40:	e8bd 81f0 	ldmia.w	sp!, {r4, r5, r6, r7, r8, pc}
 8003b44:	20003952 	andcs	r3, r0, r2, asr r9
 8003b48:	200039a8 	andcs	r3, r0, r8, lsr #19
 8003b4c:	080069a2 	stmdaeq	r0, {r1, r5, r7, r8, fp, sp, lr}
 8003b50:	0800697e 	stmdaeq	r0, {r1, r2, r3, r4, r5, r6, r8, fp, sp, lr}
 8003b54:	20003968 	andcs	r3, r0, r8, ror #18

08003b58 <FirmwareVersion::Print(char const*)>:
 8003b58:	b510      	push	{r4, lr}
 8003b5a:	460c      	mov	r4, r1
 8003b5c:	4804      	ldr	r0, [pc, #16]	; (8003b70 <FirmwareVersion::Print(char const*)+0x18>)
 8003b5e:	f000 f973 	bl	8003e48 <puts>
 8003b62:	b124      	cbz	r4, 8003b6e <FirmwareVersion::Print(char const*)+0x16>
 8003b64:	4620      	mov	r0, r4
 8003b66:	e8bd 4010 	ldmia.w	sp!, {r4, lr}
 8003b6a:	f000 b96d 	b.w	8003e48 <puts>
 8003b6e:	bd10      	pop	{r4, pc}
 8003b70:	20003968 	andcs	r3, r0, r8, ror #18

08003b74 <LedBlink::LedBlink()>:
 8003b74:	b538      	push	{r3, r4, r5, lr}
 8003b76:	2205      	movs	r2, #5
 8003b78:	2300      	movs	r3, #0
 8003b7a:	e9c0 3200 	strd	r3, r2, [r0]
 8003b7e:	f44f 72fa 	mov.w	r2, #500	; 0x1f4
 8003b82:	6083      	str	r3, [r0, #8]
 8003b84:	e9c0 2303 	strd	r2, r3, [r0, #12]
 8003b88:	6143      	str	r3, [r0, #20]
 8003b8a:	4b09      	ldr	r3, [pc, #36]	; (8003bb0 <LedBlink::LedBlink()+0x3c>)
 8003b8c:	4d09      	ldr	r5, [pc, #36]	; (8003bb4 <LedBlink::LedBlink()+0x40>)
 8003b8e:	4604      	mov	r4, r0
 8003b90:	6018      	str	r0, [r3, #0]
 8003b92:	f240 6004 	movw	r0, #1540	; 0x604
 8003b96:	f000 fcdd 	bl	8004554 <rcu_periph_clock_enable>
 8003b9a:	4628      	mov	r0, r5
 8003b9c:	2301      	movs	r3, #1
 8003b9e:	2203      	movs	r2, #3
 8003ba0:	2110      	movs	r1, #16
 8003ba2:	f000 fc39 	bl	8004418 <gpio_init>
 8003ba6:	2301      	movs	r3, #1
 8003ba8:	4620      	mov	r0, r4
 8003baa:	616b      	str	r3, [r5, #20]
 8003bac:	bd38      	pop	{r3, r4, r5, pc}
 8003bae:	bf00      	nop
 8003bb0:	200039ac 	andcs	r3, r0, ip, lsr #19
 8003bb4:	40011000 	andmi	r1, r1, r0

08003bb8 <LedBlink::SetMode(ledblink::Mode)>:
 8003bb8:	6843      	ldr	r3, [r0, #4]
 8003bba:	428b      	cmp	r3, r1
 8003bbc:	d02f      	beq.n	8003c1e <LedBlink::SetMode(ledblink::Mode)+0x66>
 8003bbe:	6041      	str	r1, [r0, #4]
 8003bc0:	2904      	cmp	r1, #4
 8003bc2:	d822      	bhi.n	8003c0a <LedBlink::SetMode(ledblink::Mode)+0x52>
 8003bc4:	e8df f001 	tbb	[pc, r1]
 8003bc8:	18120321 	ldmdane	r2, {r0, r5, r8, r9}
 8003bcc:	23ff001d 	mvnscs	r0, #29
 8003bd0:	6003      	str	r3, [r0, #0]
 8003bd2:	2300      	movs	r3, #0
 8003bd4:	2201      	movs	r2, #1
 8003bd6:	60c3      	str	r3, [r0, #12]
 8003bd8:	f103 4380 	add.w	r3, r3, #1073741824	; 0x40000000
 8003bdc:	f503 3388 	add.w	r3, r3, #69632	; 0x11000
 8003be0:	611a      	str	r2, [r3, #16]
 8003be2:	6880      	ldr	r0, [r0, #8]
 8003be4:	b1d8      	cbz	r0, 8003c1e <LedBlink::SetMode(ledblink::Mode)+0x66>
 8003be6:	6803      	ldr	r3, [r0, #0]
 8003be8:	689b      	ldr	r3, [r3, #8]
 8003bea:	4718      	bx	r3
 8003bec:	2301      	movs	r3, #1
 8003bee:	6003      	str	r3, [r0, #0]
 8003bf0:	f44f 737a 	mov.w	r3, #1000	; 0x3e8
 8003bf4:	60c3      	str	r3, [r0, #12]
 8003bf6:	e7f4      	b.n	8003be2 <LedBlink::SetMode(ledblink::Mode)+0x2a>
 8003bf8:	2303      	movs	r3, #3
 8003bfa:	6003      	str	r3, [r0, #0]
 8003bfc:	f240 134d 	movw	r3, #333	; 0x14d
 8003c00:	e7f8      	b.n	8003bf4 <LedBlink::SetMode(ledblink::Mode)+0x3c>
 8003c02:	2305      	movs	r3, #5
 8003c04:	6003      	str	r3, [r0, #0]
 8003c06:	23c8      	movs	r3, #200	; 0xc8
 8003c08:	e7f4      	b.n	8003bf4 <LedBlink::SetMode(ledblink::Mode)+0x3c>
 8003c0a:	2300      	movs	r3, #0
 8003c0c:	2201      	movs	r2, #1
 8003c0e:	6003      	str	r3, [r0, #0]
 8003c10:	60c3      	str	r3, [r0, #12]
 8003c12:	f103 4380 	add.w	r3, r3, #1073741824	; 0x40000000
 8003c16:	f503 3388 	add.w	r3, r3, #69632	; 0x11000
 8003c1a:	615a      	str	r2, [r3, #20]
 8003c1c:	e7e1      	b.n	8003be2 <LedBlink::SetMode(ledblink::Mode)+0x2a>
 8003c1e:	4770      	bx	lr

08003c20 <Hardware::Hardware()>:
 8003c20:	b570      	push	{r4, r5, r6, lr}
 8003c22:	2400      	movs	r4, #0
 8003c24:	4b24      	ldr	r3, [pc, #144]	; (8003cb8 <Hardware::Hardware()+0x98>)
 8003c26:	b090      	sub	sp, #64	; 0x40
 8003c28:	7004      	strb	r4, [r0, #0]
 8003c2a:	6018      	str	r0, [r3, #0]
 8003c2c:	4605      	mov	r5, r0
 8003c2e:	f7fc fc81 	bl	8000534 <console_init>
 8003c32:	f000 fa11 	bl	8004058 <systick_config>
 8003c36:	f001 fb0b 	bl	8005250 <udelay_init()>
 8003c3a:	f001 fabb 	bl	80051b4 <micros_init()>
 8003c3e:	f240 701b 	movw	r0, #1819	; 0x71b
 8003c42:	f000 fc87 	bl	8004554 <rcu_periph_clock_enable>
 8003c46:	f240 701c 	movw	r0, #1820	; 0x71c
 8003c4a:	f000 fc83 	bl	8004554 <rcu_periph_clock_enable>
 8003c4e:	4e1b      	ldr	r6, [pc, #108]	; (8003cbc <Hardware::Hardware()+0x9c>)
 8003c50:	f000 fc78 	bl	8004544 <pmu_backup_write_enable>
 8003c54:	4621      	mov	r1, r4
 8003c56:	2002      	movs	r0, #2
 8003c58:	f000 faa2 	bl	80041a0 <bkp_data_write>
 8003c5c:	f240 7004 	movw	r0, #1796	; 0x704
 8003c60:	f000 fc78 	bl	8004554 <rcu_periph_clock_enable>
 8003c64:	4630      	mov	r0, r6
 8003c66:	f000 fdd9 	bl	800481c <timer_deinit>
 8003c6a:	2377      	movs	r3, #119	; 0x77
 8003c6c:	f8ad 300c 	strh.w	r3, [sp, #12]
 8003c70:	f04f 33ff 	mov.w	r3, #4294967295	; 0xffffffff
 8003c74:	a903      	add	r1, sp, #12
 8003c76:	4630      	mov	r0, r6
 8003c78:	9305      	str	r3, [sp, #20]
 8003c7a:	f000 fe75 	bl	8004968 <timer_init>
 8003c7e:	4630      	mov	r0, r6
 8003c80:	f000 feca 	bl	8004a18 <timer_enable>
 8003c84:	f000 ffde 	bl	8004c44 <gd32_adc_init()>
 8003c88:	220a      	movs	r2, #10
 8003c8a:	2309      	movs	r3, #9
 8003c8c:	e9cd 230a 	strd	r2, r3, [sp, #40]	; 0x28
 8003c90:	237a      	movs	r3, #122	; 0x7a
 8003c92:	a807      	add	r0, sp, #28
 8003c94:	930c      	str	r3, [sp, #48]	; 0x30
 8003c96:	e9cd 4408 	strd	r4, r4, [sp, #32]
 8003c9a:	9407      	str	r4, [sp, #28]
 8003c9c:	940f      	str	r4, [sp, #60]	; 0x3c
 8003c9e:	f000 f901 	bl	8003ea4 <mktime>
 8003ca2:	4621      	mov	r1, r4
 8003ca4:	e9cd 0401 	strd	r0, r4, [sp, #4]
 8003ca8:	a801      	add	r0, sp, #4
 8003caa:	f000 f971 	bl	8003f90 <settimeofday>
 8003cae:	f001 f823 	bl	8004cf8 <gd32_i2c_begin>
 8003cb2:	4628      	mov	r0, r5
 8003cb4:	b010      	add	sp, #64	; 0x40
 8003cb6:	bd70      	pop	{r4, r5, r6, pc}
 8003cb8:	200039b0 			; <UNDEFINED> instruction: 0x200039b0
 8003cbc:	40001000 	andmi	r1, r0, r0

08003cc0 <Hardware::Reboot()>:
 8003cc0:	b508      	push	{r3, lr}
 8003cc2:	2300      	movs	r3, #0
 8003cc4:	4604      	mov	r4, r0
 8003cc6:	7003      	strb	r3, [r0, #0]
 8003cc8:	2104      	movs	r1, #4
 8003cca:	f64f 70ff 	movw	r0, #65535	; 0xffff
 8003cce:	f000 fb79 	bl	80043c4 <fwdgt_config>
 8003cd2:	4620      	mov	r0, r4
 8003cd4:	f7fc fdc5 	bl	8000862 <Hardware::RebootHandler()>
 8003cd8:	2102      	movs	r1, #2
 8003cda:	f64f 70ff 	movw	r0, #65535	; 0xffff
 8003cde:	f000 fb71 	bl	80043c4 <fwdgt_config>
 8003ce2:	2801      	cmp	r0, #1
 8003ce4:	bf0c      	ite	eq
 8003ce6:	2301      	moveq	r3, #1
 8003ce8:	2300      	movne	r3, #0
 8003cea:	7023      	strb	r3, [r4, #0]
 8003cec:	d101      	bne.n	8003cf2 <Hardware::Reboot()+0x32>
 8003cee:	f000 fb59 	bl	80043a4 <fwdgt_enable>
 8003cf2:	2208      	movs	r2, #8
 8003cf4:	4b0d      	ldr	r3, [pc, #52]	; (8003d2c <Hardware::Reboot()+0x6c>)
 8003cf6:	2501      	movs	r5, #1
 8003cf8:	681b      	ldr	r3, [r3, #0]
 8003cfa:	480d      	ldr	r0, [pc, #52]	; (8003d30 <Hardware::Reboot()+0x70>)
 8003cfc:	601a      	str	r2, [r3, #0]
 8003cfe:	227d      	movs	r2, #125	; 0x7d
 8003d00:	490c      	ldr	r1, [pc, #48]	; (8003d34 <Hardware::Reboot()+0x74>)
 8003d02:	60da      	str	r2, [r3, #12]
 8003d04:	68dc      	ldr	r4, [r3, #12]
 8003d06:	b904      	cbnz	r4, 8003d0a <Hardware::Reboot()+0x4a>
 8003d08:	e7fe      	b.n	8003d08 <Hardware::Reboot()+0x48>
 8003d0a:	6802      	ldr	r2, [r0, #0]
 8003d0c:	695e      	ldr	r6, [r3, #20]
 8003d0e:	1b92      	subs	r2, r2, r6
 8003d10:	4294      	cmp	r4, r2
 8003d12:	d8f8      	bhi.n	8003d06 <Hardware::Reboot()+0x46>
 8003d14:	6802      	ldr	r2, [r0, #0]
 8003d16:	615a      	str	r2, [r3, #20]
 8003d18:	691a      	ldr	r2, [r3, #16]
 8003d1a:	2a01      	cmp	r2, #1
 8003d1c:	f082 0401 	eor.w	r4, r2, #1
 8003d20:	611c      	str	r4, [r3, #16]
 8003d22:	bf14      	ite	ne
 8003d24:	610d      	strne	r5, [r1, #16]
 8003d26:	614a      	streq	r2, [r1, #20]
 8003d28:	e7ec      	b.n	8003d04 <Hardware::Reboot()+0x44>
 8003d2a:	bf00      	nop
 8003d2c:	200039ac 	andcs	r3, r0, ip, lsr #19
 8003d30:	200039c4 	andcs	r3, r0, r4, asr #19
 8003d34:	40011000 	andmi	r1, r1, r0

08003d38 <operator delete(void*)>:
 8003d38:	f000 b834 	b.w	8003da4 <free>

08003d3c <operator delete[](void*)>:
 8003d3c:	f000 b832 	b.w	8003da4 <free>

08003d40 <operator new(unsigned int)>:
 8003d40:	f000 b802 	b.w	8003d48 <malloc>

08003d44 <operator new[](unsigned int)>:
 8003d44:	f000 b800 	b.w	8003d48 <malloc>

08003d48 <malloc>:
 8003d48:	b510      	push	{r4, lr}
 8003d4a:	b1d8      	cbz	r0, 8003d84 <malloc+0x3c>
 8003d4c:	4a11      	ldr	r2, [pc, #68]	; (8003d94 <malloc+0x4c>)
 8003d4e:	6811      	ldr	r1, [r2, #0]
 8003d50:	b971      	cbnz	r1, 8003d70 <malloc+0x28>
 8003d52:	4911      	ldr	r1, [pc, #68]	; (8003d98 <malloc+0x50>)
 8003d54:	f100 021b 	add.w	r2, r0, #27
 8003d58:	680b      	ldr	r3, [r1, #0]
 8003d5a:	4c10      	ldr	r4, [pc, #64]	; (8003d9c <malloc+0x54>)
 8003d5c:	f022 020f 	bic.w	r2, r2, #15
 8003d60:	441a      	add	r2, r3
 8003d62:	42a2      	cmp	r2, r4
 8003d64:	d80f      	bhi.n	8003d86 <malloc+0x3e>
 8003d66:	600a      	str	r2, [r1, #0]
 8003d68:	4a0d      	ldr	r2, [pc, #52]	; (8003da0 <malloc+0x58>)
 8003d6a:	e9c3 2000 	strd	r2, r0, [r3]
 8003d6e:	e005      	b.n	8003d7c <malloc+0x34>
 8003d70:	4288      	cmp	r0, r1
 8003d72:	d90a      	bls.n	8003d8a <malloc+0x42>
 8003d74:	3208      	adds	r2, #8
 8003d76:	e7ea      	b.n	8003d4e <malloc+0x6>
 8003d78:	6899      	ldr	r1, [r3, #8]
 8003d7a:	6051      	str	r1, [r2, #4]
 8003d7c:	2200      	movs	r2, #0
 8003d7e:	f103 000c 	add.w	r0, r3, #12
 8003d82:	609a      	str	r2, [r3, #8]
 8003d84:	bd10      	pop	{r4, pc}
 8003d86:	2000      	movs	r0, #0
 8003d88:	e7fc      	b.n	8003d84 <malloc+0x3c>
 8003d8a:	6853      	ldr	r3, [r2, #4]
 8003d8c:	2b00      	cmp	r3, #0
 8003d8e:	d1f3      	bne.n	8003d78 <malloc+0x30>
 8003d90:	4608      	mov	r0, r1
 8003d92:	e7de      	b.n	8003d52 <malloc+0xa>
 8003d94:	2000000c 	andcs	r0, r0, ip
 8003d98:	20000008 	andcs	r0, r0, r8
 8003d9c:	2001fc00 	andcs	pc, r1, r0, lsl #24
 8003da0:	424c4d43 	submi	r4, ip, #4288	; 0x10c0

08003da4 <free>:
 8003da4:	b138      	cbz	r0, 8003db6 <free+0x12>
 8003da6:	f850 2c0c 	ldr.w	r2, [r0, #-12]
 8003daa:	4b09      	ldr	r3, [pc, #36]	; (8003dd0 <free+0x2c>)
 8003dac:	429a      	cmp	r2, r3
 8003dae:	d102      	bne.n	8003db6 <free+0x12>
 8003db0:	4b08      	ldr	r3, [pc, #32]	; (8003dd4 <free+0x30>)
 8003db2:	681a      	ldr	r2, [r3, #0]
 8003db4:	b902      	cbnz	r2, 8003db8 <free+0x14>
 8003db6:	4770      	bx	lr
 8003db8:	f850 1c08 	ldr.w	r1, [r0, #-8]
 8003dbc:	4291      	cmp	r1, r2
 8003dbe:	d104      	bne.n	8003dca <free+0x26>
 8003dc0:	685a      	ldr	r2, [r3, #4]
 8003dc2:	380c      	subs	r0, #12
 8003dc4:	6082      	str	r2, [r0, #8]
 8003dc6:	6058      	str	r0, [r3, #4]
 8003dc8:	4770      	bx	lr
 8003dca:	3308      	adds	r3, #8
 8003dcc:	e7f1      	b.n	8003db2 <free+0xe>
 8003dce:	bf00      	nop
 8003dd0:	424c4d43 	submi	r4, ip, #4288	; 0x10c0
 8003dd4:	2000000c 	andcs	r0, r0, ip

08003dd8 <memmove>:
 8003dd8:	4288      	cmp	r0, r1
 8003dda:	b510      	push	{r4, lr}
 8003ddc:	eb01 0302 	add.w	r3, r1, r2
 8003de0:	d208      	bcs.n	8003df4 <memmove+0x1c>
 8003de2:	1e42      	subs	r2, r0, #1
 8003de4:	4299      	cmp	r1, r3
 8003de6:	d100      	bne.n	8003dea <memmove+0x12>
 8003de8:	bd10      	pop	{r4, pc}
 8003dea:	f811 4b01 	ldrb.w	r4, [r1], #1
 8003dee:	f802 4f01 	strb.w	r4, [r2, #1]!
 8003df2:	e7f7      	b.n	8003de4 <memmove+0xc>
 8003df4:	4601      	mov	r1, r0
 8003df6:	4402      	add	r2, r0
 8003df8:	428a      	cmp	r2, r1
 8003dfa:	d0f5      	beq.n	8003de8 <memmove+0x10>
 8003dfc:	f813 4d01 	ldrb.w	r4, [r3, #-1]!
 8003e00:	f802 4d01 	strb.w	r4, [r2, #-1]!
 8003e04:	e7f8      	b.n	8003df8 <memmove+0x20>

08003e06 <memset>:
 8003e06:	b5f0      	push	{r4, r5, r6, r7, lr}
 8003e08:	b1c2      	cbz	r2, 8003e3c <memset+0x36>
 8003e0a:	4603      	mov	r3, r0
 8003e0c:	b2c9      	uxtb	r1, r1
 8003e0e:	075c      	lsls	r4, r3, #29
 8003e10:	d110      	bne.n	8003e34 <memset+0x2e>
 8003e12:	ea41 2401 	orr.w	r4, r1, r1, lsl #8
 8003e16:	ea44 4704 	orr.w	r7, r4, r4, lsl #16
 8003e1a:	463d      	mov	r5, r7
 8003e1c:	461e      	mov	r6, r3
 8003e1e:	f022 0407 	bic.w	r4, r2, #7
 8003e22:	441c      	add	r4, r3
 8003e24:	42a6      	cmp	r6, r4
 8003e26:	d10a      	bne.n	8003e3e <memset+0x38>
 8003e28:	4413      	add	r3, r2
 8003e2a:	429c      	cmp	r4, r3
 8003e2c:	d006      	beq.n	8003e3c <memset+0x36>
 8003e2e:	f804 1b01 	strb.w	r1, [r4], #1
 8003e32:	e7fa      	b.n	8003e2a <memset+0x24>
 8003e34:	3a01      	subs	r2, #1
 8003e36:	f803 1b01 	strb.w	r1, [r3], #1
 8003e3a:	d1e8      	bne.n	8003e0e <memset+0x8>
 8003e3c:	bdf0      	pop	{r4, r5, r6, r7, pc}
 8003e3e:	f846 7b08 	str.w	r7, [r6], #8
 8003e42:	f846 5c04 	str.w	r5, [r6, #-4]
 8003e46:	e7ed      	b.n	8003e24 <memset+0x1e>

08003e48 <puts>:
 8003e48:	b508      	push	{r3, lr}
 8003e4a:	f7ff fdff 	bl	8003a4c <console_puts>
 8003e4e:	200a      	movs	r0, #10
 8003e50:	f7ff fdfa 	bl	8003a48 <console_putc>
 8003e54:	2001      	movs	r0, #1
 8003e56:	bd08      	pop	{r3, pc}

08003e58 <isleapyear>:
 8003e58:	2264      	movs	r2, #100	; 0x64
 8003e5a:	fb90 f3f2 	sdiv	r3, r0, r2
 8003e5e:	fb02 0313 	mls	r3, r2, r3, r0
 8003e62:	b94b      	cbnz	r3, 8003e78 <isleapyear+0x20>
 8003e64:	f44f 73c8 	mov.w	r3, #400	; 0x190
 8003e68:	fb90 f2f3 	sdiv	r2, r0, r3
 8003e6c:	fb03 0012 	mls	r0, r3, r2, r0
 8003e70:	fab0 f080 	clz	r0, r0
 8003e74:	0940      	lsrs	r0, r0, #5
 8003e76:	4770      	bx	lr
 8003e78:	f010 0f03 	tst.w	r0, #3
 8003e7c:	bf0c      	ite	eq
 8003e7e:	2001      	moveq	r0, #1
 8003e80:	2000      	movne	r0, #0
 8003e82:	4770      	bx	lr

08003e84 <getdaysofmonth>:
 8003e84:	b510      	push	{r4, lr}
 8003e86:	4604      	mov	r4, r0
 8003e88:	2c01      	cmp	r4, #1
 8003e8a:	4608      	mov	r0, r1
 8003e8c:	d102      	bne.n	8003e94 <getdaysofmonth+0x10>
 8003e8e:	f7ff ffe3 	bl	8003e58 <isleapyear>
 8003e92:	b918      	cbnz	r0, 8003e9c <getdaysofmonth+0x18>
 8003e94:	4b02      	ldr	r3, [pc, #8]	; (8003ea0 <getdaysofmonth+0x1c>)
 8003e96:	f853 0024 	ldr.w	r0, [r3, r4, lsl #2]
 8003e9a:	bd10      	pop	{r4, pc}
 8003e9c:	201d      	movs	r0, #29
 8003e9e:	e7fc      	b.n	8003e9a <getdaysofmonth+0x16>
 8003ea0:	080069b4 	stmdaeq	r0, {r2, r4, r5, r7, r8, fp, sp, lr}

08003ea4 <mktime>:
 8003ea4:	e92d 41f0 	stmdb	sp!, {r4, r5, r6, r7, r8, lr}
 8003ea8:	4604      	mov	r4, r0
 8003eaa:	2800      	cmp	r0, #0
 8003eac:	d043      	beq.n	8003f36 <mktime+0x92>
 8003eae:	6941      	ldr	r1, [r0, #20]
 8003eb0:	f1a1 0346 	sub.w	r3, r1, #70	; 0x46
 8003eb4:	2b45      	cmp	r3, #69	; 0x45
 8003eb6:	d83e      	bhi.n	8003f36 <mktime+0x92>
 8003eb8:	2600      	movs	r6, #0
 8003eba:	f240 75b2 	movw	r5, #1970	; 0x7b2
 8003ebe:	f240 186d 	movw	r8, #365	; 0x16d
 8003ec2:	f201 776b 	addw	r7, r1, #1899	; 0x76b
 8003ec6:	42af      	cmp	r7, r5
 8003ec8:	da24      	bge.n	8003f14 <mktime+0x70>
 8003eca:	6927      	ldr	r7, [r4, #16]
 8003ecc:	2f0b      	cmp	r7, #11
 8003ece:	d832      	bhi.n	8003f36 <mktime+0x92>
 8003ed0:	2500      	movs	r5, #0
 8003ed2:	42af      	cmp	r7, r5
 8003ed4:	d129      	bne.n	8003f2a <mktime+0x86>
 8003ed6:	68e5      	ldr	r5, [r4, #12]
 8003ed8:	2d00      	cmp	r5, #0
 8003eda:	dd2c      	ble.n	8003f36 <mktime+0x92>
 8003edc:	4638      	mov	r0, r7
 8003ede:	f7ff ffd1 	bl	8003e84 <getdaysofmonth>
 8003ee2:	4285      	cmp	r5, r0
 8003ee4:	dc27      	bgt.n	8003f36 <mktime+0x92>
 8003ee6:	2318      	movs	r3, #24
 8003ee8:	3d01      	subs	r5, #1
 8003eea:	4435      	add	r5, r6
 8003eec:	435d      	muls	r5, r3
 8003eee:	68a3      	ldr	r3, [r4, #8]
 8003ef0:	2b17      	cmp	r3, #23
 8003ef2:	d820      	bhi.n	8003f36 <mktime+0x92>
 8003ef4:	213c      	movs	r1, #60	; 0x3c
 8003ef6:	442b      	add	r3, r5
 8003ef8:	fb01 f203 	mul.w	r2, r1, r3
 8003efc:	6863      	ldr	r3, [r4, #4]
 8003efe:	2b3b      	cmp	r3, #59	; 0x3b
 8003f00:	d819      	bhi.n	8003f36 <mktime+0x92>
 8003f02:	6820      	ldr	r0, [r4, #0]
 8003f04:	4413      	add	r3, r2
 8003f06:	283b      	cmp	r0, #59	; 0x3b
 8003f08:	fb01 f303 	mul.w	r3, r1, r3
 8003f0c:	d813      	bhi.n	8003f36 <mktime+0x92>
 8003f0e:	4418      	add	r0, r3
 8003f10:	e8bd 81f0 	ldmia.w	sp!, {r4, r5, r6, r7, r8, pc}
 8003f14:	4628      	mov	r0, r5
 8003f16:	f7ff ff9f 	bl	8003e58 <isleapyear>
 8003f1a:	2800      	cmp	r0, #0
 8003f1c:	bf14      	ite	ne
 8003f1e:	f44f 73b7 	movne.w	r3, #366	; 0x16e
 8003f22:	4643      	moveq	r3, r8
 8003f24:	3501      	adds	r5, #1
 8003f26:	441e      	add	r6, r3
 8003f28:	e7cd      	b.n	8003ec6 <mktime+0x22>
 8003f2a:	4628      	mov	r0, r5
 8003f2c:	f7ff ffaa 	bl	8003e84 <getdaysofmonth>
 8003f30:	3501      	adds	r5, #1
 8003f32:	4406      	add	r6, r0
 8003f34:	e7cd      	b.n	8003ed2 <mktime+0x2e>
 8003f36:	f04f 30ff 	mov.w	r0, #4294967295	; 0xffffffff
 8003f3a:	e7e9      	b.n	8003f10 <mktime+0x6c>

08003f3c <gettimeofday>:
 8003f3c:	b538      	push	{r3, r4, r5, lr}
 8003f3e:	4b10      	ldr	r3, [pc, #64]	; (8003f80 <gettimeofday+0x44>)
 8003f40:	4a10      	ldr	r2, [pc, #64]	; (8003f84 <gettimeofday+0x48>)
 8003f42:	681b      	ldr	r3, [r3, #0]
 8003f44:	6814      	ldr	r4, [r2, #0]
 8003f46:	6013      	str	r3, [r2, #0]
 8003f48:	f44f 727a 	mov.w	r2, #1000	; 0x3e8
 8003f4c:	429c      	cmp	r4, r3
 8003f4e:	bf2c      	ite	cs
 8003f50:	1ae4      	subcs	r4, r4, r3
 8003f52:	1b1c      	subcc	r4, r3, r4
 8003f54:	4354      	muls	r4, r2
 8003f56:	4b0c      	ldr	r3, [pc, #48]	; (8003f88 <gettimeofday+0x4c>)
 8003f58:	4605      	mov	r5, r0
 8003f5a:	e9d3 2100 	ldrd	r2, r1, [r3]
 8003f5e:	18a4      	adds	r4, r4, r2
 8003f60:	f141 0100 	adc.w	r1, r1, #0
 8003f64:	e9c3 4100 	strd	r4, r1, [r3]
 8003f68:	4620      	mov	r0, r4
 8003f6a:	2300      	movs	r3, #0
 8003f6c:	4a07      	ldr	r2, [pc, #28]	; (8003f8c <gettimeofday+0x50>)
 8003f6e:	f7fc fc1f 	bl	80007b0 <__aeabi_uldivmod>
 8003f72:	4b06      	ldr	r3, [pc, #24]	; (8003f8c <gettimeofday+0x50>)
 8003f74:	6028      	str	r0, [r5, #0]
 8003f76:	fb03 4410 	mls	r4, r3, r0, r4
 8003f7a:	2000      	movs	r0, #0
 8003f7c:	606c      	str	r4, [r5, #4]
 8003f7e:	bd38      	pop	{r3, r4, r5, pc}
 8003f80:	200039c4 	andcs	r3, r0, r4, asr #19
 8003f84:	200039c0 	andcs	r3, r0, r0, asr #19
 8003f88:	200039b8 			; <UNDEFINED> instruction: 0x200039b8
 8003f8c:	000f4240 	andeq	r4, pc, r0, asr #4

08003f90 <settimeofday>:
 8003f90:	4b07      	ldr	r3, [pc, #28]	; (8003fb0 <settimeofday+0x20>)
 8003f92:	b510      	push	{r4, lr}
 8003f94:	681a      	ldr	r2, [r3, #0]
 8003f96:	4b07      	ldr	r3, [pc, #28]	; (8003fb4 <settimeofday+0x24>)
 8003f98:	6804      	ldr	r4, [r0, #0]
 8003f9a:	601a      	str	r2, [r3, #0]
 8003f9c:	6843      	ldr	r3, [r0, #4]
 8003f9e:	4806      	ldr	r0, [pc, #24]	; (8003fb8 <settimeofday+0x28>)
 8003fa0:	17da      	asrs	r2, r3, #31
 8003fa2:	fbc4 3200 	smlal	r3, r2, r4, r0
 8003fa6:	4905      	ldr	r1, [pc, #20]	; (8003fbc <settimeofday+0x2c>)
 8003fa8:	2000      	movs	r0, #0
 8003faa:	e9c1 3200 	strd	r3, r2, [r1]
 8003fae:	bd10      	pop	{r4, pc}
 8003fb0:	200039c4 	andcs	r3, r0, r4, asr #19
 8003fb4:	200039c0 	andcs	r3, r0, r0, asr #19
 8003fb8:	000f4240 	andeq	r4, pc, r0, asr #4
 8003fbc:	200039b8 			; <UNDEFINED> instruction: 0x200039b8

08003fc0 <time>:
 8003fc0:	b513      	push	{r0, r1, r4, lr}
 8003fc2:	4604      	mov	r4, r0
 8003fc4:	2100      	movs	r1, #0
 8003fc6:	4668      	mov	r0, sp
 8003fc8:	f7ff ffb8 	bl	8003f3c <gettimeofday>
 8003fcc:	9800      	ldr	r0, [sp, #0]
 8003fce:	b104      	cbz	r4, 8003fd2 <time+0x12>
 8003fd0:	6020      	str	r0, [r4, #0]
 8003fd2:	b002      	add	sp, #8
 8003fd4:	bd10      	pop	{r4, pc}
	...

08003fd8 <uart0_init>:
 8003fd8:	2301      	movs	r3, #1
 8003fda:	b507      	push	{r0, r1, r2, lr}
 8003fdc:	2208      	movs	r2, #8
 8003fde:	9300      	str	r3, [sp, #0]
 8003fe0:	f44f 31e1 	mov.w	r1, #115200	; 0x1c200
 8003fe4:	2300      	movs	r3, #0
 8003fe6:	4803      	ldr	r0, [pc, #12]	; (8003ff4 <uart0_init+0x1c>)
 8003fe8:	f000 ffd2 	bl	8004f90 <gd32_uart_begin>
 8003fec:	b003      	add	sp, #12
 8003fee:	f85d fb04 	ldr.w	pc, [sp], #4
 8003ff2:	bf00      	nop
 8003ff4:	40013800 	andmi	r3, r1, r0, lsl #16

08003ff8 <uart0_putc>:
 8003ff8:	280a      	cmp	r0, #10
 8003ffa:	b538      	push	{r3, r4, r5, lr}
 8003ffc:	4604      	mov	r4, r0
 8003ffe:	d10a      	bne.n	8004016 <uart0_putc+0x1e>
 8004000:	4d0b      	ldr	r5, [pc, #44]	; (8004030 <uart0_putc+0x38>)
 8004002:	2107      	movs	r1, #7
 8004004:	4628      	mov	r0, r5
 8004006:	f000 fdf7 	bl	8004bf8 <usart_flag_get>
 800400a:	2800      	cmp	r0, #0
 800400c:	d0f9      	beq.n	8004002 <uart0_putc+0xa>
 800400e:	220d      	movs	r2, #13
 8004010:	4b08      	ldr	r3, [pc, #32]	; (8004034 <uart0_putc+0x3c>)
 8004012:	f8c3 2804 	str.w	r2, [r3, #2052]	; 0x804
 8004016:	4d06      	ldr	r5, [pc, #24]	; (8004030 <uart0_putc+0x38>)
 8004018:	2107      	movs	r1, #7
 800401a:	4628      	mov	r0, r5
 800401c:	f000 fdec 	bl	8004bf8 <usart_flag_get>
 8004020:	2800      	cmp	r0, #0
 8004022:	d0f9      	beq.n	8004018 <uart0_putc+0x20>
 8004024:	4b03      	ldr	r3, [pc, #12]	; (8004034 <uart0_putc+0x3c>)
 8004026:	b2e4      	uxtb	r4, r4
 8004028:	f8c3 4804 	str.w	r4, [r3, #2052]	; 0x804
 800402c:	bd38      	pop	{r3, r4, r5, pc}
 800402e:	bf00      	nop
 8004030:	40013800 	andmi	r3, r1, r0, lsl #16
 8004034:	40013000 	andmi	r3, r1, r0

08004038 <uart0_puts>:
 8004038:	b510      	push	{r4, lr}
 800403a:	1e44      	subs	r4, r0, #1
 800403c:	f814 3f01 	ldrb.w	r3, [r4, #1]!
 8004040:	b903      	cbnz	r3, 8004044 <uart0_puts+0xc>
 8004042:	bd10      	pop	{r4, pc}
 8004044:	2b0a      	cmp	r3, #10
 8004046:	d102      	bne.n	800404e <uart0_puts+0x16>
 8004048:	200d      	movs	r0, #13
 800404a:	f7ff ffd5 	bl	8003ff8 <uart0_putc>
 800404e:	7820      	ldrb	r0, [r4, #0]
 8004050:	f7ff ffd2 	bl	8003ff8 <uart0_putc>
 8004054:	e7f2      	b.n	800403c <uart0_puts+0x4>
	...

08004058 <systick_config>:
 8004058:	f44f 727a 	mov.w	r2, #1000	; 0x3e8
 800405c:	4b0b      	ldr	r3, [pc, #44]	; (800408c <systick_config+0x34>)
 800405e:	681b      	ldr	r3, [r3, #0]
 8004060:	fbb3 f3f2 	udiv	r3, r3, r2
 8004064:	3b01      	subs	r3, #1
 8004066:	f1b3 7f80 	cmp.w	r3, #16777216	; 0x1000000
 800406a:	d20d      	bcs.n	8004088 <systick_config+0x30>
 800406c:	f04f 22e0 	mov.w	r2, #3758153728	; 0xe000e000
 8004070:	21f0      	movs	r1, #240	; 0xf0
 8004072:	6153      	str	r3, [r2, #20]
 8004074:	4b06      	ldr	r3, [pc, #24]	; (8004090 <systick_config+0x38>)
 8004076:	2007      	movs	r0, #7
 8004078:	f883 1023 	strb.w	r1, [r3, #35]	; 0x23
 800407c:	2100      	movs	r1, #0
 800407e:	6191      	str	r1, [r2, #24]
 8004080:	6110      	str	r0, [r2, #16]
 8004082:	f883 1023 	strb.w	r1, [r3, #35]	; 0x23
 8004086:	4770      	bx	lr
 8004088:	e7fe      	b.n	8004088 <systick_config+0x30>
 800408a:	bf00      	nop
 800408c:	2000006c 	andcs	r0, r0, ip, rrx
 8004090:	e000ed00 	and	lr, r0, r0, lsl #26

08004094 <SysTick_Handler>:
 8004094:	4a02      	ldr	r2, [pc, #8]	; (80040a0 <SysTick_Handler+0xc>)
 8004096:	6813      	ldr	r3, [r2, #0]
 8004098:	3301      	adds	r3, #1
 800409a:	6013      	str	r3, [r2, #0]
 800409c:	4770      	bx	lr
 800409e:	bf00      	nop
 80040a0:	200039c4 	andcs	r3, r0, r4, asr #19

080040a4 <SystemInit>:
 80040a4:	4b3a      	ldr	r3, [pc, #232]	; (8004190 <SystemInit+0xec>)
 80040a6:	681a      	ldr	r2, [r3, #0]
 80040a8:	f042 0201 	orr.w	r2, r2, #1
 80040ac:	601a      	str	r2, [r3, #0]
 80040ae:	6859      	ldr	r1, [r3, #4]
 80040b0:	4a38      	ldr	r2, [pc, #224]	; (8004194 <SystemInit+0xf0>)
 80040b2:	400a      	ands	r2, r1
 80040b4:	605a      	str	r2, [r3, #4]
 80040b6:	681a      	ldr	r2, [r3, #0]
 80040b8:	f44f 017f 	mov.w	r1, #16711680	; 0xff0000
 80040bc:	f022 7284 	bic.w	r2, r2, #17301504	; 0x1080000
 80040c0:	f422 3280 	bic.w	r2, r2, #65536	; 0x10000
 80040c4:	601a      	str	r2, [r3, #0]
 80040c6:	681a      	ldr	r2, [r3, #0]
 80040c8:	f422 2280 	bic.w	r2, r2, #262144	; 0x40000
 80040cc:	601a      	str	r2, [r3, #0]
 80040ce:	685a      	ldr	r2, [r3, #4]
 80040d0:	f022 5203 	bic.w	r2, r2, #549453824	; 0x20c00000
 80040d4:	f422 127c 	bic.w	r2, r2, #4128768	; 0x3f0000
 80040d8:	605a      	str	r2, [r3, #4]
 80040da:	681a      	ldr	r2, [r3, #0]
 80040dc:	f022 52a0 	bic.w	r2, r2, #335544320	; 0x14000000
 80040e0:	601a      	str	r2, [r3, #0]
 80040e2:	2200      	movs	r2, #0
 80040e4:	62da      	str	r2, [r3, #44]	; 0x2c
 80040e6:	6099      	str	r1, [r3, #8]
 80040e8:	f8c3 2080 	str.w	r2, [r3, #128]	; 0x80
 80040ec:	f8d3 2090 	ldr.w	r2, [r3, #144]	; 0x90
 80040f0:	f022 5280 	bic.w	r2, r2, #268435456	; 0x10000000
 80040f4:	f8c3 2090 	str.w	r2, [r3, #144]	; 0x90
 80040f8:	f44f 0280 	mov.w	r2, #4194304	; 0x400000
 80040fc:	f8c3 2094 	str.w	r2, [r3, #148]	; 0x94
 8004100:	4a25      	ldr	r2, [pc, #148]	; (8004198 <SystemInit+0xf4>)
 8004102:	f8c3 2098 	str.w	r2, [r3, #152]	; 0x98
 8004106:	681a      	ldr	r2, [r3, #0]
 8004108:	f442 3280 	orr.w	r2, r2, #65536	; 0x10000
 800410c:	601a      	str	r2, [r3, #0]
 800410e:	f64f 72ff 	movw	r2, #65535	; 0xffff
 8004112:	6819      	ldr	r1, [r3, #0]
 8004114:	0389      	lsls	r1, r1, #14
 8004116:	d401      	bmi.n	800411c <SystemInit+0x78>
 8004118:	3a01      	subs	r2, #1
 800411a:	d1fa      	bne.n	8004112 <SystemInit+0x6e>
 800411c:	681a      	ldr	r2, [r3, #0]
 800411e:	0392      	lsls	r2, r2, #14
 8004120:	d400      	bmi.n	8004124 <SystemInit+0x80>
 8004122:	e7fe      	b.n	8004122 <SystemInit+0x7e>
 8004124:	685a      	ldr	r2, [r3, #4]
 8004126:	605a      	str	r2, [r3, #4]
 8004128:	685a      	ldr	r2, [r3, #4]
 800412a:	605a      	str	r2, [r3, #4]
 800412c:	685a      	ldr	r2, [r3, #4]
 800412e:	f442 6280 	orr.w	r2, r2, #1024	; 0x400
 8004132:	605a      	str	r2, [r3, #4]
 8004134:	685a      	ldr	r2, [r3, #4]
 8004136:	f022 5200 	bic.w	r2, r2, #536870912	; 0x20000000
 800413a:	f422 127c 	bic.w	r2, r2, #4128768	; 0x3f0000
 800413e:	605a      	str	r2, [r3, #4]
 8004140:	685a      	ldr	r2, [r3, #4]
 8004142:	f442 1204 	orr.w	r2, r2, #2162688	; 0x210000
 8004146:	605a      	str	r2, [r3, #4]
 8004148:	6ad9      	ldr	r1, [r3, #44]	; 0x2c
 800414a:	4a14      	ldr	r2, [pc, #80]	; (800419c <SystemInit+0xf8>)
 800414c:	400a      	ands	r2, r1
 800414e:	62da      	str	r2, [r3, #44]	; 0x2c
 8004150:	6ada      	ldr	r2, [r3, #44]	; 0x2c
 8004152:	f442 3285 	orr.w	r2, r2, #68096	; 0x10a00
 8004156:	f042 0244 	orr.w	r2, r2, #68	; 0x44
 800415a:	62da      	str	r2, [r3, #44]	; 0x2c
 800415c:	681a      	ldr	r2, [r3, #0]
 800415e:	f042 6280 	orr.w	r2, r2, #67108864	; 0x4000000
 8004162:	601a      	str	r2, [r3, #0]
 8004164:	681a      	ldr	r2, [r3, #0]
 8004166:	0110      	lsls	r0, r2, #4
 8004168:	d5fc      	bpl.n	8004164 <SystemInit+0xc0>
 800416a:	681a      	ldr	r2, [r3, #0]
 800416c:	f042 7280 	orr.w	r2, r2, #16777216	; 0x1000000
 8004170:	601a      	str	r2, [r3, #0]
 8004172:	681a      	ldr	r2, [r3, #0]
 8004174:	0191      	lsls	r1, r2, #6
 8004176:	d5fc      	bpl.n	8004172 <SystemInit+0xce>
 8004178:	685a      	ldr	r2, [r3, #4]
 800417a:	f022 0203 	bic.w	r2, r2, #3
 800417e:	605a      	str	r2, [r3, #4]
 8004180:	685a      	ldr	r2, [r3, #4]
 8004182:	f042 0202 	orr.w	r2, r2, #2
 8004186:	605a      	str	r2, [r3, #4]
 8004188:	685a      	ldr	r2, [r3, #4]
 800418a:	0712      	lsls	r2, r2, #28
 800418c:	d5fc      	bpl.n	8004188 <SystemInit+0xe4>
 800418e:	4770      	bx	lr
 8004190:	40021000 	andmi	r1, r2, r0
 8004194:	e0ff000c 	rscs	r0, pc, ip
 8004198:	20003010 	andcs	r3, r0, r0, lsl r0
 800419c:	fffef000 			; <UNDEFINED> instruction: 0xfffef000

080041a0 <bkp_data_write>:
 80041a0:	f1a0 030b 	sub.w	r3, r0, #11
 80041a4:	2b1f      	cmp	r3, #31
 80041a6:	d804      	bhi.n	80041b2 <bkp_data_write+0x12>
 80041a8:	4b07      	ldr	r3, [pc, #28]	; (80041c8 <bkp_data_write+0x28>)
 80041aa:	4403      	add	r3, r0
 80041ac:	009b      	lsls	r3, r3, #2
 80041ae:	8019      	strh	r1, [r3, #0]
 80041b0:	4770      	bx	lr
 80041b2:	1e43      	subs	r3, r0, #1
 80041b4:	2b09      	cmp	r3, #9
 80041b6:	bf9f      	itttt	ls
 80041b8:	f100 5080 	addls.w	r0, r0, #268435456	; 0x10000000
 80041bc:	f500 50d8 	addls.w	r0, r0, #6912	; 0x1b00
 80041c0:	0080      	lslls	r0, r0, #2
 80041c2:	8001      	strhls	r1, [r0, #0]
 80041c4:	4770      	bx	lr
 80041c6:	bf00      	nop
 80041c8:	10001b05 	andne	r1, r0, r5, lsl #22

080041cc <bkp_data_read>:
 80041cc:	f1a0 030b 	sub.w	r3, r0, #11
 80041d0:	2b1f      	cmp	r3, #31
 80041d2:	d805      	bhi.n	80041e0 <bkp_data_read+0x14>
 80041d4:	4b08      	ldr	r3, [pc, #32]	; (80041f8 <bkp_data_read+0x2c>)
 80041d6:	4403      	add	r3, r0
 80041d8:	009b      	lsls	r3, r3, #2
 80041da:	8818      	ldrh	r0, [r3, #0]
 80041dc:	b280      	uxth	r0, r0
 80041de:	4770      	bx	lr
 80041e0:	1e43      	subs	r3, r0, #1
 80041e2:	2b09      	cmp	r3, #9
 80041e4:	d806      	bhi.n	80041f4 <bkp_data_read+0x28>
 80041e6:	f100 5080 	add.w	r0, r0, #268435456	; 0x10000000
 80041ea:	f500 50d8 	add.w	r0, r0, #6912	; 0x1b00
 80041ee:	0080      	lsls	r0, r0, #2
 80041f0:	8800      	ldrh	r0, [r0, #0]
 80041f2:	e7f3      	b.n	80041dc <bkp_data_read+0x10>
 80041f4:	2000      	movs	r0, #0
 80041f6:	4770      	bx	lr
 80041f8:	10001b05 	andne	r1, r0, r5, lsl #22

080041fc <fmc_bank0_unlock>:
 80041fc:	4b04      	ldr	r3, [pc, #16]	; (8004210 <fmc_bank0_unlock+0x14>)
 80041fe:	691a      	ldr	r2, [r3, #16]
 8004200:	0612      	lsls	r2, r2, #24
 8004202:	bf41      	itttt	mi
 8004204:	4a03      	ldrmi	r2, [pc, #12]	; (8004214 <fmc_bank0_unlock+0x18>)
 8004206:	605a      	strmi	r2, [r3, #4]
 8004208:	f102 3288 	addmi.w	r2, r2, #2290649224	; 0x88888888
 800420c:	605a      	strmi	r2, [r3, #4]
 800420e:	4770      	bx	lr
 8004210:	40022000 	andmi	r2, r2, r0
 8004214:	45670123 	strbmi	r0, [r7, #-291]!	; 0xfffffedd

08004218 <fmc_bank0_lock>:
 8004218:	4a02      	ldr	r2, [pc, #8]	; (8004224 <fmc_bank0_lock+0xc>)
 800421a:	6913      	ldr	r3, [r2, #16]
 800421c:	f043 0380 	orr.w	r3, r3, #128	; 0x80
 8004220:	6113      	str	r3, [r2, #16]
 8004222:	4770      	bx	lr
 8004224:	40022000 	andmi	r2, r2, r0

08004228 <fmc_bank0_state_get>:
 8004228:	4b07      	ldr	r3, [pc, #28]	; (8004248 <fmc_bank0_state_get+0x20>)
 800422a:	68da      	ldr	r2, [r3, #12]
 800422c:	07d1      	lsls	r1, r2, #31
 800422e:	d407      	bmi.n	8004240 <fmc_bank0_state_get+0x18>
 8004230:	68da      	ldr	r2, [r3, #12]
 8004232:	06d2      	lsls	r2, r2, #27
 8004234:	d406      	bmi.n	8004244 <fmc_bank0_state_get+0x1c>
 8004236:	68d8      	ldr	r0, [r3, #12]
 8004238:	f3c0 0080 	ubfx	r0, r0, #2, #1
 800423c:	0040      	lsls	r0, r0, #1
 800423e:	4770      	bx	lr
 8004240:	2001      	movs	r0, #1
 8004242:	4770      	bx	lr
 8004244:	2003      	movs	r0, #3
 8004246:	4770      	bx	lr
 8004248:	40022000 	andmi	r2, r2, r0

0800424c <fmc_bank1_state_get>:
 800424c:	4b07      	ldr	r3, [pc, #28]	; (800426c <fmc_bank1_state_get+0x20>)
 800424e:	6cda      	ldr	r2, [r3, #76]	; 0x4c
 8004250:	07d1      	lsls	r1, r2, #31
 8004252:	d407      	bmi.n	8004264 <fmc_bank1_state_get+0x18>
 8004254:	6cda      	ldr	r2, [r3, #76]	; 0x4c
 8004256:	06d2      	lsls	r2, r2, #27
 8004258:	d406      	bmi.n	8004268 <fmc_bank1_state_get+0x1c>
 800425a:	6cd8      	ldr	r0, [r3, #76]	; 0x4c
 800425c:	f3c0 0080 	ubfx	r0, r0, #2, #1
 8004260:	0040      	lsls	r0, r0, #1
 8004262:	4770      	bx	lr
 8004264:	2001      	movs	r0, #1
 8004266:	4770      	bx	lr
 8004268:	2003      	movs	r0, #3
 800426a:	4770      	bx	lr
 800426c:	40022000 	andmi	r2, r2, r0

08004270 <fmc_bank0_ready_wait>:
 8004270:	b510      	push	{r4, lr}
 8004272:	4604      	mov	r4, r0
 8004274:	f7ff ffd8 	bl	8004228 <fmc_bank0_state_get>
 8004278:	2801      	cmp	r0, #1
 800427a:	f104 34ff 	add.w	r4, r4, #4294967295	; 0xffffffff
 800427e:	d102      	bne.n	8004286 <fmc_bank0_ready_wait+0x16>
 8004280:	2c00      	cmp	r4, #0
 8004282:	d1f7      	bne.n	8004274 <fmc_bank0_ready_wait+0x4>
 8004284:	2004      	movs	r0, #4
 8004286:	bd10      	pop	{r4, pc}

08004288 <fmc_bank1_ready_wait>:
 8004288:	b510      	push	{r4, lr}
 800428a:	4604      	mov	r4, r0
 800428c:	f7ff ffde 	bl	800424c <fmc_bank1_state_get>
 8004290:	2801      	cmp	r0, #1
 8004292:	f104 34ff 	add.w	r4, r4, #4294967295	; 0xffffffff
 8004296:	d102      	bne.n	800429e <fmc_bank1_ready_wait+0x16>
 8004298:	2c00      	cmp	r4, #0
 800429a:	d1f7      	bne.n	800428c <fmc_bank1_ready_wait+0x4>
 800429c:	2004      	movs	r0, #4
 800429e:	bd10      	pop	{r4, pc}

080042a0 <fmc_page_erase>:
 80042a0:	b538      	push	{r3, r4, r5, lr}
 80042a2:	4b1f      	ldr	r3, [pc, #124]	; (8004320 <fmc_page_erase+0x80>)
 80042a4:	4605      	mov	r5, r0
 80042a6:	f8b3 30e0 	ldrh.w	r3, [r3, #224]	; 0xe0
 80042aa:	f5b3 7f00 	cmp.w	r3, #512	; 0x200
 80042ae:	d934      	bls.n	800431a <fmc_page_erase+0x7a>
 80042b0:	4b1c      	ldr	r3, [pc, #112]	; (8004324 <fmc_page_erase+0x84>)
 80042b2:	f44f 2070 	mov.w	r0, #983040	; 0xf0000
 80042b6:	429d      	cmp	r5, r3
 80042b8:	d215      	bcs.n	80042e6 <fmc_page_erase+0x46>
 80042ba:	f7ff ffd9 	bl	8004270 <fmc_bank0_ready_wait>
 80042be:	bb58      	cbnz	r0, 8004318 <fmc_page_erase+0x78>
 80042c0:	4c19      	ldr	r4, [pc, #100]	; (8004328 <fmc_page_erase+0x88>)
 80042c2:	f44f 2070 	mov.w	r0, #983040	; 0xf0000
 80042c6:	6923      	ldr	r3, [r4, #16]
 80042c8:	f043 0302 	orr.w	r3, r3, #2
 80042cc:	6123      	str	r3, [r4, #16]
 80042ce:	6165      	str	r5, [r4, #20]
 80042d0:	6923      	ldr	r3, [r4, #16]
 80042d2:	f043 0340 	orr.w	r3, r3, #64	; 0x40
 80042d6:	6123      	str	r3, [r4, #16]
 80042d8:	f7ff ffca 	bl	8004270 <fmc_bank0_ready_wait>
 80042dc:	6923      	ldr	r3, [r4, #16]
 80042de:	f023 0302 	bic.w	r3, r3, #2
 80042e2:	6123      	str	r3, [r4, #16]
 80042e4:	e018      	b.n	8004318 <fmc_page_erase+0x78>
 80042e6:	f7ff ffcf 	bl	8004288 <fmc_bank1_ready_wait>
 80042ea:	b9a8      	cbnz	r0, 8004318 <fmc_page_erase+0x78>
 80042ec:	4c0e      	ldr	r4, [pc, #56]	; (8004328 <fmc_page_erase+0x88>)
 80042ee:	f44f 2070 	mov.w	r0, #983040	; 0xf0000
 80042f2:	6d23      	ldr	r3, [r4, #80]	; 0x50
 80042f4:	f043 0302 	orr.w	r3, r3, #2
 80042f8:	6523      	str	r3, [r4, #80]	; 0x50
 80042fa:	6565      	str	r5, [r4, #84]	; 0x54
 80042fc:	69e3      	ldr	r3, [r4, #28]
 80042fe:	079b      	lsls	r3, r3, #30
 8004300:	bf48      	it	mi
 8004302:	6165      	strmi	r5, [r4, #20]
 8004304:	6d23      	ldr	r3, [r4, #80]	; 0x50
 8004306:	f043 0340 	orr.w	r3, r3, #64	; 0x40
 800430a:	6523      	str	r3, [r4, #80]	; 0x50
 800430c:	f7ff ffbc 	bl	8004288 <fmc_bank1_ready_wait>
 8004310:	6d23      	ldr	r3, [r4, #80]	; 0x50
 8004312:	f023 0302 	bic.w	r3, r3, #2
 8004316:	6523      	str	r3, [r4, #80]	; 0x50
 8004318:	bd38      	pop	{r3, r4, r5, pc}
 800431a:	f44f 2070 	mov.w	r0, #983040	; 0xf0000
 800431e:	e7cc      	b.n	80042ba <fmc_page_erase+0x1a>
 8004320:	1ffff700 	svcne	0x00fff700
 8004324:	0807ffff 	stmdaeq	r7, {r0, r1, r2, r3, r4, r5, r6, r7, r8, r9, sl, fp, ip, sp, lr, pc}
 8004328:	40022000 	andmi	r2, r2, r0

0800432c <fmc_word_program>:
 800432c:	4b1a      	ldr	r3, [pc, #104]	; (8004398 <fmc_word_program+0x6c>)
 800432e:	b570      	push	{r4, r5, r6, lr}
 8004330:	f8b3 30e0 	ldrh.w	r3, [r3, #224]	; 0xe0
 8004334:	4604      	mov	r4, r0
 8004336:	f5b3 7f00 	cmp.w	r3, #512	; 0x200
 800433a:	460d      	mov	r5, r1
 800433c:	d928      	bls.n	8004390 <fmc_word_program+0x64>
 800433e:	4b17      	ldr	r3, [pc, #92]	; (800439c <fmc_word_program+0x70>)
 8004340:	f44f 2070 	mov.w	r0, #983040	; 0xf0000
 8004344:	429c      	cmp	r4, r3
 8004346:	d211      	bcs.n	800436c <fmc_word_program+0x40>
 8004348:	f7ff ff92 	bl	8004270 <fmc_bank0_ready_wait>
 800434c:	b9f8      	cbnz	r0, 800438e <fmc_word_program+0x62>
 800434e:	4e14      	ldr	r6, [pc, #80]	; (80043a0 <fmc_word_program+0x74>)
 8004350:	f44f 2070 	mov.w	r0, #983040	; 0xf0000
 8004354:	6933      	ldr	r3, [r6, #16]
 8004356:	f043 0301 	orr.w	r3, r3, #1
 800435a:	6133      	str	r3, [r6, #16]
 800435c:	6025      	str	r5, [r4, #0]
 800435e:	f7ff ff87 	bl	8004270 <fmc_bank0_ready_wait>
 8004362:	6933      	ldr	r3, [r6, #16]
 8004364:	f023 0301 	bic.w	r3, r3, #1
 8004368:	6133      	str	r3, [r6, #16]
 800436a:	e010      	b.n	800438e <fmc_word_program+0x62>
 800436c:	f7ff ff8c 	bl	8004288 <fmc_bank1_ready_wait>
 8004370:	b968      	cbnz	r0, 800438e <fmc_word_program+0x62>
 8004372:	4e0b      	ldr	r6, [pc, #44]	; (80043a0 <fmc_word_program+0x74>)
 8004374:	f44f 2070 	mov.w	r0, #983040	; 0xf0000
 8004378:	6d33      	ldr	r3, [r6, #80]	; 0x50
 800437a:	f043 0301 	orr.w	r3, r3, #1
 800437e:	6533      	str	r3, [r6, #80]	; 0x50
 8004380:	6025      	str	r5, [r4, #0]
 8004382:	f7ff ff81 	bl	8004288 <fmc_bank1_ready_wait>
 8004386:	6d33      	ldr	r3, [r6, #80]	; 0x50
 8004388:	f023 0301 	bic.w	r3, r3, #1
 800438c:	6533      	str	r3, [r6, #80]	; 0x50
 800438e:	bd70      	pop	{r4, r5, r6, pc}
 8004390:	f44f 2070 	mov.w	r0, #983040	; 0xf0000
 8004394:	e7d8      	b.n	8004348 <fmc_word_program+0x1c>
 8004396:	bf00      	nop
 8004398:	1ffff700 	svcne	0x00fff700
 800439c:	0807ffff 	stmdaeq	r7, {r0, r1, r2, r3, r4, r5, r6, r7, r8, r9, sl, fp, ip, sp, lr, pc}
 80043a0:	40022000 	andmi	r2, r2, r0

080043a4 <fwdgt_enable>:
 80043a4:	f64c 42cc 	movw	r2, #52428	; 0xcccc
 80043a8:	4b01      	ldr	r3, [pc, #4]	; (80043b0 <fwdgt_enable+0xc>)
 80043aa:	601a      	str	r2, [r3, #0]
 80043ac:	4770      	bx	lr
 80043ae:	bf00      	nop
 80043b0:	40003000 	andmi	r3, r0, r0

080043b4 <fwdgt_counter_reload>:
 80043b4:	f64a 22aa 	movw	r2, #43690	; 0xaaaa
 80043b8:	4b01      	ldr	r3, [pc, #4]	; (80043c0 <fwdgt_counter_reload+0xc>)
 80043ba:	601a      	str	r2, [r3, #0]
 80043bc:	4770      	bx	lr
 80043be:	bf00      	nop
 80043c0:	40003000 	andmi	r3, r0, r0

080043c4 <fwdgt_config>:
 80043c4:	f245 5355 	movw	r3, #21845	; 0x5555
 80043c8:	4a11      	ldr	r2, [pc, #68]	; (8004410 <fwdgt_config+0x4c>)
 80043ca:	b510      	push	{r4, lr}
 80043cc:	4c11      	ldr	r4, [pc, #68]	; (8004414 <fwdgt_config+0x50>)
 80043ce:	6013      	str	r3, [r2, #0]
 80043d0:	68d3      	ldr	r3, [r2, #12]
 80043d2:	3c01      	subs	r4, #1
 80043d4:	f003 0301 	and.w	r3, r3, #1
 80043d8:	d013      	beq.n	8004402 <fwdgt_config+0x3e>
 80043da:	2b00      	cmp	r3, #0
 80043dc:	d1f8      	bne.n	80043d0 <fwdgt_config+0xc>
 80043de:	6051      	str	r1, [r2, #4]
 80043e0:	490c      	ldr	r1, [pc, #48]	; (8004414 <fwdgt_config+0x50>)
 80043e2:	4a0b      	ldr	r2, [pc, #44]	; (8004410 <fwdgt_config+0x4c>)
 80043e4:	68d3      	ldr	r3, [r2, #12]
 80043e6:	3901      	subs	r1, #1
 80043e8:	f003 0302 	and.w	r3, r3, #2
 80043ec:	d00d      	beq.n	800440a <fwdgt_config+0x46>
 80043ee:	2b00      	cmp	r3, #0
 80043f0:	d1f8      	bne.n	80043e4 <fwdgt_config+0x20>
 80043f2:	f64a 23aa 	movw	r3, #43690	; 0xaaaa
 80043f6:	f3c0 000b 	ubfx	r0, r0, #0, #12
 80043fa:	6090      	str	r0, [r2, #8]
 80043fc:	2001      	movs	r0, #1
 80043fe:	6013      	str	r3, [r2, #0]
 8004400:	e002      	b.n	8004408 <fwdgt_config+0x44>
 8004402:	2b00      	cmp	r3, #0
 8004404:	d0eb      	beq.n	80043de <fwdgt_config+0x1a>
 8004406:	2000      	movs	r0, #0
 8004408:	bd10      	pop	{r4, pc}
 800440a:	2b00      	cmp	r3, #0
 800440c:	d1fb      	bne.n	8004406 <fwdgt_config+0x42>
 800440e:	e7f0      	b.n	80043f2 <fwdgt_config+0x2e>
 8004410:	40003000 	andmi	r3, r0, r0
 8004414:	000fffff 	strdeq	pc, [pc], -pc	; <UNPREDICTABLE>

08004418 <gpio_init>:
 8004418:	e92d 41f0 	stmdb	sp!, {r4, r5, r6, r7, r8, lr}
 800441c:	f04f 0c0f 	mov.w	ip, #15
 8004420:	06cf      	lsls	r7, r1, #27
 8004422:	f04f 0400 	mov.w	r4, #0
 8004426:	f04f 0701 	mov.w	r7, #1
 800442a:	f001 050f 	and.w	r5, r1, #15
 800442e:	bf48      	it	mi
 8004430:	4315      	orrmi	r5, r2
 8004432:	fa23 f204 	lsr.w	r2, r3, r4
 8004436:	07d6      	lsls	r6, r2, #31
 8004438:	d510      	bpl.n	800445c <gpio_init+0x44>
 800443a:	00a2      	lsls	r2, r4, #2
 800443c:	6806      	ldr	r6, [r0, #0]
 800443e:	fa0c fe02 	lsl.w	lr, ip, r2
 8004442:	ea26 060e 	bic.w	r6, r6, lr
 8004446:	fa05 f202 	lsl.w	r2, r5, r2
 800444a:	2928      	cmp	r1, #40	; 0x28
 800444c:	ea42 0206 	orr.w	r2, r2, r6
 8004450:	d128      	bne.n	80044a4 <gpio_init+0x8c>
 8004452:	fa07 f604 	lsl.w	r6, r7, r4
 8004456:	401e      	ands	r6, r3
 8004458:	6146      	str	r6, [r0, #20]
 800445a:	6002      	str	r2, [r0, #0]
 800445c:	3401      	adds	r4, #1
 800445e:	2c08      	cmp	r4, #8
 8004460:	d1e7      	bne.n	8004432 <gpio_init+0x1a>
 8004462:	2600      	movs	r6, #0
 8004464:	f04f 0c0f 	mov.w	ip, #15
 8004468:	2701      	movs	r7, #1
 800446a:	f106 0208 	add.w	r2, r6, #8
 800446e:	fa23 f402 	lsr.w	r4, r3, r2
 8004472:	07e4      	lsls	r4, r4, #31
 8004474:	d511      	bpl.n	800449a <gpio_init+0x82>
 8004476:	00b4      	lsls	r4, r6, #2
 8004478:	f8d0 e004 	ldr.w	lr, [r0, #4]
 800447c:	fa0c f804 	lsl.w	r8, ip, r4
 8004480:	ea2e 0e08 	bic.w	lr, lr, r8
 8004484:	fa05 f404 	lsl.w	r4, r5, r4
 8004488:	2928      	cmp	r1, #40	; 0x28
 800448a:	ea44 040e 	orr.w	r4, r4, lr
 800448e:	d110      	bne.n	80044b2 <gpio_init+0x9a>
 8004490:	fa07 f202 	lsl.w	r2, r7, r2
 8004494:	401a      	ands	r2, r3
 8004496:	6142      	str	r2, [r0, #20]
 8004498:	6044      	str	r4, [r0, #4]
 800449a:	3601      	adds	r6, #1
 800449c:	2e08      	cmp	r6, #8
 800449e:	d1e4      	bne.n	800446a <gpio_init+0x52>
 80044a0:	e8bd 81f0 	ldmia.w	sp!, {r4, r5, r6, r7, r8, pc}
 80044a4:	2948      	cmp	r1, #72	; 0x48
 80044a6:	bf02      	ittt	eq
 80044a8:	fa07 f604 	lsleq.w	r6, r7, r4
 80044ac:	401e      	andeq	r6, r3
 80044ae:	6106      	streq	r6, [r0, #16]
 80044b0:	e7d3      	b.n	800445a <gpio_init+0x42>
 80044b2:	2948      	cmp	r1, #72	; 0x48
 80044b4:	bf02      	ittt	eq
 80044b6:	fa07 f202 	lsleq.w	r2, r7, r2
 80044ba:	401a      	andeq	r2, r3
 80044bc:	6102      	streq	r2, [r0, #16]
 80044be:	e7eb      	b.n	8004498 <gpio_init+0x80>

080044c0 <gpio_input_bit_get>:
 80044c0:	6883      	ldr	r3, [r0, #8]
 80044c2:	420b      	tst	r3, r1
 80044c4:	bf14      	ite	ne
 80044c6:	2001      	movne	r0, #1
 80044c8:	2000      	moveq	r0, #0
 80044ca:	4770      	bx	lr

080044cc <gpio_pin_remap_config>:
 80044cc:	2800      	cmp	r0, #0
 80044ce:	4a16      	ldr	r2, [pc, #88]	; (8004528 <gpio_pin_remap_config+0x5c>)
 80044d0:	b530      	push	{r4, r5, lr}
 80044d2:	f400 1540 	and.w	r5, r0, #3145728	; 0x300000
 80044d6:	bfb4      	ite	lt
 80044d8:	69d3      	ldrlt	r3, [r2, #28]
 80044da:	6853      	ldrge	r3, [r2, #4]
 80044dc:	f5b5 1f40 	cmp.w	r5, #3145728	; 0x300000
 80044e0:	b284      	uxth	r4, r0
 80044e2:	d110      	bne.n	8004506 <gpio_pin_remap_config+0x3a>
 80044e4:	6855      	ldr	r5, [r2, #4]
 80044e6:	f023 6370 	bic.w	r3, r3, #251658240	; 0xf000000
 80044ea:	f025 6570 	bic.w	r5, r5, #251658240	; 0xf000000
 80044ee:	6055      	str	r5, [r2, #4]
 80044f0:	b119      	cbz	r1, 80044fa <gpio_pin_remap_config+0x2e>
 80044f2:	0d42      	lsrs	r2, r0, #21
 80044f4:	0112      	lsls	r2, r2, #4
 80044f6:	4094      	lsls	r4, r2
 80044f8:	4323      	orrs	r3, r4
 80044fa:	4a0b      	ldr	r2, [pc, #44]	; (8004528 <gpio_pin_remap_config+0x5c>)
 80044fc:	2800      	cmp	r0, #0
 80044fe:	bfb4      	ite	lt
 8004500:	61d3      	strlt	r3, [r2, #28]
 8004502:	6053      	strge	r3, [r2, #4]
 8004504:	bd30      	pop	{r4, r5, pc}
 8004506:	02c2      	lsls	r2, r0, #11
 8004508:	bf4d      	iteet	mi
 800450a:	2203      	movmi	r2, #3
 800450c:	0d42      	lsrpl	r2, r0, #21
 800450e:	0112      	lslpl	r2, r2, #4
 8004510:	f3c0 4503 	ubfxmi	r5, r0, #16, #4
 8004514:	bf4c      	ite	mi
 8004516:	40aa      	lslmi	r2, r5
 8004518:	fa04 f202 	lslpl.w	r2, r4, r2
 800451c:	ea23 0302 	bic.w	r3, r3, r2
 8004520:	f043 6370 	orr.w	r3, r3, #251658240	; 0xf000000
 8004524:	e7e4      	b.n	80044f0 <gpio_pin_remap_config+0x24>
 8004526:	bf00      	nop
 8004528:	40010000 	andmi	r0, r1, r0

0800452c <gpio_ethernet_phy_select>:
 800452c:	4b04      	ldr	r3, [pc, #16]	; (8004540 <gpio_ethernet_phy_select+0x14>)
 800452e:	685a      	ldr	r2, [r3, #4]
 8004530:	f422 0200 	bic.w	r2, r2, #8388608	; 0x800000
 8004534:	605a      	str	r2, [r3, #4]
 8004536:	685a      	ldr	r2, [r3, #4]
 8004538:	4302      	orrs	r2, r0
 800453a:	605a      	str	r2, [r3, #4]
 800453c:	4770      	bx	lr
 800453e:	bf00      	nop
 8004540:	40010000 	andmi	r0, r1, r0

08004544 <pmu_backup_write_enable>:
 8004544:	4a02      	ldr	r2, [pc, #8]	; (8004550 <pmu_backup_write_enable+0xc>)
 8004546:	6813      	ldr	r3, [r2, #0]
 8004548:	f443 7380 	orr.w	r3, r3, #256	; 0x100
 800454c:	6013      	str	r3, [r2, #0]
 800454e:	4770      	bx	lr
 8004550:	40007000 	andmi	r7, r0, r0

08004554 <rcu_periph_clock_enable>:
 8004554:	2201      	movs	r2, #1
 8004556:	0983      	lsrs	r3, r0, #6
 8004558:	f103 4380 	add.w	r3, r3, #1073741824	; 0x40000000
 800455c:	f503 3304 	add.w	r3, r3, #135168	; 0x21000
 8004560:	6819      	ldr	r1, [r3, #0]
 8004562:	f000 001f 	and.w	r0, r0, #31
 8004566:	4082      	lsls	r2, r0
 8004568:	430a      	orrs	r2, r1
 800456a:	601a      	str	r2, [r3, #0]
 800456c:	4770      	bx	lr

0800456e <rcu_periph_clock_disable>:
 800456e:	2101      	movs	r1, #1
 8004570:	0983      	lsrs	r3, r0, #6
 8004572:	f103 4380 	add.w	r3, r3, #1073741824	; 0x40000000
 8004576:	f503 3304 	add.w	r3, r3, #135168	; 0x21000
 800457a:	681a      	ldr	r2, [r3, #0]
 800457c:	f000 001f 	and.w	r0, r0, #31
 8004580:	4081      	lsls	r1, r0
 8004582:	ea22 0201 	bic.w	r2, r2, r1
 8004586:	601a      	str	r2, [r3, #0]
 8004588:	4770      	bx	lr

0800458a <rcu_periph_reset_enable>:
 800458a:	f7ff bfe3 	b.w	8004554 <rcu_periph_clock_enable>

0800458e <rcu_periph_reset_disable>:
 800458e:	f7ff bfee 	b.w	800456e <rcu_periph_clock_disable>
	...

08004594 <rcu_ckout0_config>:
 8004594:	4a06      	ldr	r2, [pc, #24]	; (80045b0 <rcu_ckout0_config+0x1c>)
 8004596:	6853      	ldr	r3, [r2, #4]
 8004598:	f023 6370 	bic.w	r3, r3, #251658240	; 0xf000000
 800459c:	4303      	orrs	r3, r0
 800459e:	6053      	str	r3, [r2, #4]
 80045a0:	f8d2 3080 	ldr.w	r3, [r2, #128]	; 0x80
 80045a4:	f023 033f 	bic.w	r3, r3, #63	; 0x3f
 80045a8:	430b      	orrs	r3, r1
 80045aa:	f8c2 3080 	str.w	r3, [r2, #128]	; 0x80
 80045ae:	4770      	bx	lr
 80045b0:	40021000 	andmi	r1, r2, r0

080045b4 <rcu_pll2_config>:
 80045b4:	4b04      	ldr	r3, [pc, #16]	; (80045c8 <rcu_pll2_config+0x14>)
 80045b6:	6ada      	ldr	r2, [r3, #44]	; 0x2c
 80045b8:	f422 4270 	bic.w	r2, r2, #61440	; 0xf000
 80045bc:	62da      	str	r2, [r3, #44]	; 0x2c
 80045be:	6ada      	ldr	r2, [r3, #44]	; 0x2c
 80045c0:	4302      	orrs	r2, r0
 80045c2:	62da      	str	r2, [r3, #44]	; 0x2c
 80045c4:	4770      	bx	lr
 80045c6:	bf00      	nop
 80045c8:	40021000 	andmi	r1, r2, r0

080045cc <rcu_adc_clock_config>:
 80045cc:	490c      	ldr	r1, [pc, #48]	; (8004600 <rcu_adc_clock_config+0x34>)
 80045ce:	2805      	cmp	r0, #5
 80045d0:	684b      	ldr	r3, [r1, #4]
 80045d2:	f023 5380 	bic.w	r3, r3, #268435456	; 0x10000000
 80045d6:	f423 4340 	bic.w	r3, r3, #49152	; 0xc000
 80045da:	d006      	beq.n	80045ea <rcu_adc_clock_config+0x1e>
 80045dc:	d803      	bhi.n	80045e6 <rcu_adc_clock_config+0x1a>
 80045de:	2804      	cmp	r0, #4
 80045e0:	d10a      	bne.n	80045f8 <rcu_adc_clock_config+0x2c>
 80045e2:	604b      	str	r3, [r1, #4]
 80045e4:	4770      	bx	lr
 80045e6:	2807      	cmp	r0, #7
 80045e8:	d1fb      	bne.n	80045e2 <rcu_adc_clock_config+0x16>
 80045ea:	4a06      	ldr	r2, [pc, #24]	; (8004604 <rcu_adc_clock_config+0x38>)
 80045ec:	ea02 3280 	and.w	r2, r2, r0, lsl #14
 80045f0:	4313      	orrs	r3, r2
 80045f2:	f043 5380 	orr.w	r3, r3, #268435456	; 0x10000000
 80045f6:	e7f4      	b.n	80045e2 <rcu_adc_clock_config+0x16>
 80045f8:	ea43 3380 	orr.w	r3, r3, r0, lsl #14
 80045fc:	e7f1      	b.n	80045e2 <rcu_adc_clock_config+0x16>
 80045fe:	bf00      	nop
 8004600:	40021000 	andmi	r1, r2, r0
 8004604:	fffec000 			; <UNDEFINED> instruction: 0xfffec000

08004608 <rcu_flag_get>:
 8004608:	0983      	lsrs	r3, r0, #6
 800460a:	f103 4380 	add.w	r3, r3, #1073741824	; 0x40000000
 800460e:	f503 3304 	add.w	r3, r3, #135168	; 0x21000
 8004612:	681a      	ldr	r2, [r3, #0]
 8004614:	2301      	movs	r3, #1
 8004616:	f000 001f 	and.w	r0, r0, #31
 800461a:	4083      	lsls	r3, r0
 800461c:	4213      	tst	r3, r2
 800461e:	bf14      	ite	ne
 8004620:	2001      	movne	r0, #1
 8004622:	2000      	moveq	r0, #0
 8004624:	4770      	bx	lr
	...

08004628 <rcu_osci_stab_wait>:
 8004628:	281c      	cmp	r0, #28
 800462a:	b508      	push	{r3, lr}
 800462c:	d056      	beq.n	80046dc <rcu_osci_stab_wait+0xb4>
 800462e:	d812      	bhi.n	8004656 <rcu_osci_stab_wait+0x2e>
 8004630:	2818      	cmp	r0, #24
 8004632:	d04a      	beq.n	80046ca <rcu_osci_stab_wait+0xa2>
 8004634:	d804      	bhi.n	8004640 <rcu_osci_stab_wait+0x18>
 8004636:	b398      	cbz	r0, 80046a0 <rcu_osci_stab_wait+0x78>
 8004638:	2810      	cmp	r0, #16
 800463a:	d022      	beq.n	8004682 <rcu_osci_stab_wait+0x5a>
 800463c:	2000      	movs	r0, #0
 800463e:	bd08      	pop	{r3, pc}
 8004640:	281a      	cmp	r0, #26
 8004642:	d1fb      	bne.n	800463c <rcu_osci_stab_wait+0x14>
 8004644:	492f      	ldr	r1, [pc, #188]	; (8004704 <rcu_osci_stab_wait+0xdc>)
 8004646:	201b      	movs	r0, #27
 8004648:	f7ff ffde 	bl	8004608 <rcu_flag_get>
 800464c:	b908      	cbnz	r0, 8004652 <rcu_osci_stab_wait+0x2a>
 800464e:	3901      	subs	r1, #1
 8004650:	d1f9      	bne.n	8004646 <rcu_osci_stab_wait+0x1e>
 8004652:	201b      	movs	r0, #27
 8004654:	e01e      	b.n	8004694 <rcu_osci_stab_wait+0x6c>
 8004656:	f5b0 6f10 	cmp.w	r0, #2304	; 0x900
 800465a:	d02b      	beq.n	80046b4 <rcu_osci_stab_wait+0x8c>
 800465c:	f242 431c 	movw	r3, #9244	; 0x241c
 8004660:	4298      	cmp	r0, r3
 8004662:	d044      	beq.n	80046ee <rcu_osci_stab_wait+0xc6>
 8004664:	f5b0 6f00 	cmp.w	r0, #2048	; 0x800
 8004668:	d1e8      	bne.n	800463c <rcu_osci_stab_wait+0x14>
 800466a:	f06f 417c 	mvn.w	r1, #4227858432	; 0xfc000000
 800466e:	f640 0001 	movw	r0, #2049	; 0x801
 8004672:	f7ff ffc9 	bl	8004608 <rcu_flag_get>
 8004676:	b908      	cbnz	r0, 800467c <rcu_osci_stab_wait+0x54>
 8004678:	3901      	subs	r1, #1
 800467a:	d1f8      	bne.n	800466e <rcu_osci_stab_wait+0x46>
 800467c:	f640 0001 	movw	r0, #2049	; 0x801
 8004680:	e008      	b.n	8004694 <rcu_osci_stab_wait+0x6c>
 8004682:	f64f 71ff 	movw	r1, #65535	; 0xffff
 8004686:	2011      	movs	r0, #17
 8004688:	f7ff ffbe 	bl	8004608 <rcu_flag_get>
 800468c:	b908      	cbnz	r0, 8004692 <rcu_osci_stab_wait+0x6a>
 800468e:	3901      	subs	r1, #1
 8004690:	d1f9      	bne.n	8004686 <rcu_osci_stab_wait+0x5e>
 8004692:	2011      	movs	r0, #17
 8004694:	f7ff ffb8 	bl	8004608 <rcu_flag_get>
 8004698:	3800      	subs	r0, #0
 800469a:	bf18      	it	ne
 800469c:	2001      	movne	r0, #1
 800469e:	e7ce      	b.n	800463e <rcu_osci_stab_wait+0x16>
 80046a0:	f44f 61a0 	mov.w	r1, #1280	; 0x500
 80046a4:	2001      	movs	r0, #1
 80046a6:	f7ff ffaf 	bl	8004608 <rcu_flag_get>
 80046aa:	b908      	cbnz	r0, 80046b0 <rcu_osci_stab_wait+0x88>
 80046ac:	3901      	subs	r1, #1
 80046ae:	d1f9      	bne.n	80046a4 <rcu_osci_stab_wait+0x7c>
 80046b0:	2001      	movs	r0, #1
 80046b2:	e7ef      	b.n	8004694 <rcu_osci_stab_wait+0x6c>
 80046b4:	4913      	ldr	r1, [pc, #76]	; (8004704 <rcu_osci_stab_wait+0xdc>)
 80046b6:	f640 1001 	movw	r0, #2305	; 0x901
 80046ba:	f7ff ffa5 	bl	8004608 <rcu_flag_get>
 80046be:	b908      	cbnz	r0, 80046c4 <rcu_osci_stab_wait+0x9c>
 80046c0:	3901      	subs	r1, #1
 80046c2:	d1f8      	bne.n	80046b6 <rcu_osci_stab_wait+0x8e>
 80046c4:	f640 1001 	movw	r0, #2305	; 0x901
 80046c8:	e7e4      	b.n	8004694 <rcu_osci_stab_wait+0x6c>
 80046ca:	490e      	ldr	r1, [pc, #56]	; (8004704 <rcu_osci_stab_wait+0xdc>)
 80046cc:	2019      	movs	r0, #25
 80046ce:	f7ff ff9b 	bl	8004608 <rcu_flag_get>
 80046d2:	b908      	cbnz	r0, 80046d8 <rcu_osci_stab_wait+0xb0>
 80046d4:	3901      	subs	r1, #1
 80046d6:	d1f9      	bne.n	80046cc <rcu_osci_stab_wait+0xa4>
 80046d8:	2019      	movs	r0, #25
 80046da:	e7db      	b.n	8004694 <rcu_osci_stab_wait+0x6c>
 80046dc:	4909      	ldr	r1, [pc, #36]	; (8004704 <rcu_osci_stab_wait+0xdc>)
 80046de:	201d      	movs	r0, #29
 80046e0:	f7ff ff92 	bl	8004608 <rcu_flag_get>
 80046e4:	b908      	cbnz	r0, 80046ea <rcu_osci_stab_wait+0xc2>
 80046e6:	3901      	subs	r1, #1
 80046e8:	d1f9      	bne.n	80046de <rcu_osci_stab_wait+0xb6>
 80046ea:	201d      	movs	r0, #29
 80046ec:	e7d2      	b.n	8004694 <rcu_osci_stab_wait+0x6c>
 80046ee:	4905      	ldr	r1, [pc, #20]	; (8004704 <rcu_osci_stab_wait+0xdc>)
 80046f0:	f242 401d 	movw	r0, #9245	; 0x241d
 80046f4:	f7ff ff88 	bl	8004608 <rcu_flag_get>
 80046f8:	b908      	cbnz	r0, 80046fe <rcu_osci_stab_wait+0xd6>
 80046fa:	3901      	subs	r1, #1
 80046fc:	d1f8      	bne.n	80046f0 <rcu_osci_stab_wait+0xc8>
 80046fe:	f242 401d 	movw	r0, #9245	; 0x241d
 8004702:	e7c7      	b.n	8004694 <rcu_osci_stab_wait+0x6c>
 8004704:	000fffff 	strdeq	pc, [pc], -pc	; <UNPREDICTABLE>

08004708 <rcu_osci_on>:
 8004708:	f7ff bf24 	b.w	8004554 <rcu_periph_clock_enable>

0800470c <rcu_clock_freq_get>:
 800470c:	4b3e      	ldr	r3, [pc, #248]	; (8004808 <rcu_clock_freq_get+0xfc>)
 800470e:	b5f0      	push	{r4, r5, r6, r7, lr}
 8004710:	4604      	mov	r4, r0
 8004712:	461f      	mov	r7, r3
 8004714:	b089      	sub	sp, #36	; 0x24
 8004716:	ad04      	add	r5, sp, #16
 8004718:	f103 0610 	add.w	r6, r3, #16
 800471c:	462a      	mov	r2, r5
 800471e:	6818      	ldr	r0, [r3, #0]
 8004720:	6859      	ldr	r1, [r3, #4]
 8004722:	3308      	adds	r3, #8
 8004724:	c203      	stmia	r2!, {r0, r1}
 8004726:	42b3      	cmp	r3, r6
 8004728:	4615      	mov	r5, r2
 800472a:	d1f7      	bne.n	800471c <rcu_clock_freq_get+0x10>
 800472c:	466b      	mov	r3, sp
 800472e:	6938      	ldr	r0, [r7, #16]
 8004730:	6871      	ldr	r1, [r6, #4]
 8004732:	4a36      	ldr	r2, [pc, #216]	; (800480c <rcu_clock_freq_get+0x100>)
 8004734:	c303      	stmia	r3!, {r0, r1}
 8004736:	c303      	stmia	r3!, {r0, r1}
 8004738:	6853      	ldr	r3, [r2, #4]
 800473a:	f3c3 0381 	ubfx	r3, r3, #2, #2
 800473e:	2b01      	cmp	r3, #1
 8004740:	d053      	beq.n	80047ea <rcu_clock_freq_get+0xde>
 8004742:	2b02      	cmp	r3, #2
 8004744:	d153      	bne.n	80047ee <rcu_clock_freq_get+0xe2>
 8004746:	6853      	ldr	r3, [r2, #4]
 8004748:	03dd      	lsls	r5, r3, #15
 800474a:	d523      	bpl.n	8004794 <rcu_clock_freq_get+0x88>
 800474c:	6ad3      	ldr	r3, [r2, #44]	; 0x2c
 800474e:	f413 3f80 	tst.w	r3, #65536	; 0x10000
 8004752:	4b2f      	ldr	r3, [pc, #188]	; (8004810 <rcu_clock_freq_get+0x104>)
 8004754:	d00e      	beq.n	8004774 <rcu_clock_freq_get+0x68>
 8004756:	6ad1      	ldr	r1, [r2, #44]	; 0x2c
 8004758:	6ad0      	ldr	r0, [r2, #44]	; 0x2c
 800475a:	f3c1 1103 	ubfx	r1, r1, #4, #4
 800475e:	f3c0 2003 	ubfx	r0, r0, #8, #4
 8004762:	3101      	adds	r1, #1
 8004764:	280f      	cmp	r0, #15
 8004766:	f100 0502 	add.w	r5, r0, #2
 800476a:	fbb3 f3f1 	udiv	r3, r3, r1
 800476e:	bf08      	it	eq
 8004770:	2514      	moveq	r5, #20
 8004772:	436b      	muls	r3, r5
 8004774:	6ad1      	ldr	r1, [r2, #44]	; 0x2c
 8004776:	f001 010f 	and.w	r1, r1, #15
 800477a:	3101      	adds	r1, #1
 800477c:	fbb3 f3f1 	udiv	r3, r3, r1
 8004780:	6851      	ldr	r1, [r2, #4]
 8004782:	6850      	ldr	r0, [r2, #4]
 8004784:	f3c1 4183 	ubfx	r1, r1, #18, #4
 8004788:	0080      	lsls	r0, r0, #2
 800478a:	d505      	bpl.n	8004798 <rcu_clock_freq_get+0x8c>
 800478c:	f041 0110 	orr.w	r1, r1, #16
 8004790:	3101      	adds	r1, #1
 8004792:	e027      	b.n	80047e4 <rcu_clock_freq_get+0xd8>
 8004794:	4b1f      	ldr	r3, [pc, #124]	; (8004814 <rcu_clock_freq_get+0x108>)
 8004796:	e7f3      	b.n	8004780 <rcu_clock_freq_get+0x74>
 8004798:	290d      	cmp	r1, #13
 800479a:	d120      	bne.n	80047de <rcu_clock_freq_get+0xd2>
 800479c:	2006      	movs	r0, #6
 800479e:	0859      	lsrs	r1, r3, #1
 80047a0:	fb00 1003 	mla	r0, r0, r3, r1
 80047a4:	6853      	ldr	r3, [r2, #4]
 80047a6:	6851      	ldr	r1, [r2, #4]
 80047a8:	f3c3 1303 	ubfx	r3, r3, #4, #4
 80047ac:	6852      	ldr	r2, [r2, #4]
 80047ae:	3320      	adds	r3, #32
 80047b0:	446b      	add	r3, sp
 80047b2:	f3c1 2102 	ubfx	r1, r1, #8, #3
 80047b6:	f3c2 22c2 	ubfx	r2, r2, #11, #3
 80047ba:	f813 3c10 	ldrb.w	r3, [r3, #-16]
 80047be:	3120      	adds	r1, #32
 80047c0:	3220      	adds	r2, #32
 80047c2:	4469      	add	r1, sp
 80047c4:	446a      	add	r2, sp
 80047c6:	f811 1c20 	ldrb.w	r1, [r1, #-32]
 80047ca:	f812 2c18 	ldrb.w	r2, [r2, #-24]
 80047ce:	fa20 f303 	lsr.w	r3, r0, r3
 80047d2:	2c03      	cmp	r4, #3
 80047d4:	d816      	bhi.n	8004804 <rcu_clock_freq_get+0xf8>
 80047d6:	e8df f004 	tbb	[pc, r4]
 80047da:	120f0c0d 	andne	r0, pc, #3328	; 0xd00
 80047de:	290f      	cmp	r1, #15
 80047e0:	d0d6      	beq.n	8004790 <rcu_clock_freq_get+0x84>
 80047e2:	3102      	adds	r1, #2
 80047e4:	fb03 f001 	mul.w	r0, r3, r1
 80047e8:	e7dc      	b.n	80047a4 <rcu_clock_freq_get+0x98>
 80047ea:	4809      	ldr	r0, [pc, #36]	; (8004810 <rcu_clock_freq_get+0x104>)
 80047ec:	e7da      	b.n	80047a4 <rcu_clock_freq_get+0x98>
 80047ee:	480a      	ldr	r0, [pc, #40]	; (8004818 <rcu_clock_freq_get+0x10c>)
 80047f0:	e7d8      	b.n	80047a4 <rcu_clock_freq_get+0x98>
 80047f2:	4618      	mov	r0, r3
 80047f4:	b009      	add	sp, #36	; 0x24
 80047f6:	bdf0      	pop	{r4, r5, r6, r7, pc}
 80047f8:	fa23 f001 	lsr.w	r0, r3, r1
 80047fc:	e7fa      	b.n	80047f4 <rcu_clock_freq_get+0xe8>
 80047fe:	fa23 f002 	lsr.w	r0, r3, r2
 8004802:	e7f7      	b.n	80047f4 <rcu_clock_freq_get+0xe8>
 8004804:	2000      	movs	r0, #0
 8004806:	e7f5      	b.n	80047f4 <rcu_clock_freq_get+0xe8>
 8004808:	08005ed0 	stmdaeq	r0, {r4, r6, r7, r9, sl, fp, ip, lr}
 800480c:	40021000 	andmi	r1, r2, r0
 8004810:	017d7840 	cmneq	sp, r0, asr #16
 8004814:	003d0900 	eorseq	r0, sp, r0, lsl #18
 8004818:	007a1200 	rsbseq	r1, sl, r0, lsl #4

0800481c <timer_deinit>:
 800481c:	b508      	push	{r3, lr}
 800481e:	4b4e      	ldr	r3, [pc, #312]	; (8004958 <timer_deinit+0x13c>)
 8004820:	4298      	cmp	r0, r3
 8004822:	f000 8092 	beq.w	800494a <timer_deinit+0x12e>
 8004826:	d822      	bhi.n	800486e <timer_deinit+0x52>
 8004828:	f5a3 5380 	sub.w	r3, r3, #4096	; 0x1000
 800482c:	4298      	cmp	r0, r3
 800482e:	d062      	beq.n	80048f6 <timer_deinit+0xda>
 8004830:	d80b      	bhi.n	800484a <timer_deinit+0x2e>
 8004832:	f5a3 6300 	sub.w	r3, r3, #2048	; 0x800
 8004836:	4298      	cmp	r0, r3
 8004838:	d04f      	beq.n	80048da <timer_deinit+0xbe>
 800483a:	f503 6380 	add.w	r3, r3, #1024	; 0x400
 800483e:	4298      	cmp	r0, r3
 8004840:	d052      	beq.n	80048e8 <timer_deinit+0xcc>
 8004842:	f1b0 4f80 	cmp.w	r0, #1073741824	; 0x40000000
 8004846:	d041      	beq.n	80048cc <timer_deinit+0xb0>
 8004848:	bd08      	pop	{r3, pc}
 800484a:	4b44      	ldr	r3, [pc, #272]	; (800495c <timer_deinit+0x140>)
 800484c:	4298      	cmp	r0, r3
 800484e:	d059      	beq.n	8004904 <timer_deinit+0xe8>
 8004850:	f503 6380 	add.w	r3, r3, #1024	; 0x400
 8004854:	4298      	cmp	r0, r3
 8004856:	d071      	beq.n	800493c <timer_deinit+0x120>
 8004858:	f5a3 6300 	sub.w	r3, r3, #2048	; 0x800
 800485c:	4298      	cmp	r0, r3
 800485e:	d1f3      	bne.n	8004848 <timer_deinit+0x2c>
 8004860:	f240 4004 	movw	r0, #1028	; 0x404
 8004864:	f7ff fe91 	bl	800458a <rcu_periph_reset_enable>
 8004868:	f240 4004 	movw	r0, #1028	; 0x404
 800486c:	e02a      	b.n	80048c4 <timer_deinit+0xa8>
 800486e:	4b3c      	ldr	r3, [pc, #240]	; (8004960 <timer_deinit+0x144>)
 8004870:	4298      	cmp	r0, r3
 8004872:	d055      	beq.n	8004920 <timer_deinit+0x104>
 8004874:	d812      	bhi.n	800489c <timer_deinit+0x80>
 8004876:	f5a3 5300 	sub.w	r3, r3, #8192	; 0x2000
 800487a:	4298      	cmp	r0, r3
 800487c:	d01c      	beq.n	80048b8 <timer_deinit+0x9c>
 800487e:	f503 6300 	add.w	r3, r3, #2048	; 0x800
 8004882:	4298      	cmp	r0, r3
 8004884:	d045      	beq.n	8004912 <timer_deinit+0xf6>
 8004886:	f5a3 338a 	sub.w	r3, r3, #70656	; 0x11400
 800488a:	4298      	cmp	r0, r3
 800488c:	d1dc      	bne.n	8004848 <timer_deinit+0x2c>
 800488e:	f44f 6081 	mov.w	r0, #1032	; 0x408
 8004892:	f7ff fe7a 	bl	800458a <rcu_periph_reset_enable>
 8004896:	f44f 6081 	mov.w	r0, #1032	; 0x408
 800489a:	e013      	b.n	80048c4 <timer_deinit+0xa8>
 800489c:	4b31      	ldr	r3, [pc, #196]	; (8004964 <timer_deinit+0x148>)
 800489e:	4298      	cmp	r0, r3
 80048a0:	d045      	beq.n	800492e <timer_deinit+0x112>
 80048a2:	f503 6380 	add.w	r3, r3, #1024	; 0x400
 80048a6:	4298      	cmp	r0, r3
 80048a8:	d1ce      	bne.n	8004848 <timer_deinit+0x2c>
 80048aa:	f240 3015 	movw	r0, #789	; 0x315
 80048ae:	f7ff fe6c 	bl	800458a <rcu_periph_reset_enable>
 80048b2:	f240 3015 	movw	r0, #789	; 0x315
 80048b6:	e005      	b.n	80048c4 <timer_deinit+0xa8>
 80048b8:	f240 300b 	movw	r0, #779	; 0x30b
 80048bc:	f7ff fe65 	bl	800458a <rcu_periph_reset_enable>
 80048c0:	f240 300b 	movw	r0, #779	; 0x30b
 80048c4:	e8bd 4008 	ldmia.w	sp!, {r3, lr}
 80048c8:	f7ff be61 	b.w	800458e <rcu_periph_reset_disable>
 80048cc:	f44f 6080 	mov.w	r0, #1024	; 0x400
 80048d0:	f7ff fe5b 	bl	800458a <rcu_periph_reset_enable>
 80048d4:	f44f 6080 	mov.w	r0, #1024	; 0x400
 80048d8:	e7f4      	b.n	80048c4 <timer_deinit+0xa8>
 80048da:	f240 4001 	movw	r0, #1025	; 0x401
 80048de:	f7ff fe54 	bl	800458a <rcu_periph_reset_enable>
 80048e2:	f240 4001 	movw	r0, #1025	; 0x401
 80048e6:	e7ed      	b.n	80048c4 <timer_deinit+0xa8>
 80048e8:	f240 4002 	movw	r0, #1026	; 0x402
 80048ec:	f7ff fe4d 	bl	800458a <rcu_periph_reset_enable>
 80048f0:	f240 4002 	movw	r0, #1026	; 0x402
 80048f4:	e7e6      	b.n	80048c4 <timer_deinit+0xa8>
 80048f6:	f240 4003 	movw	r0, #1027	; 0x403
 80048fa:	f7ff fe46 	bl	800458a <rcu_periph_reset_enable>
 80048fe:	f240 4003 	movw	r0, #1027	; 0x403
 8004902:	e7df      	b.n	80048c4 <timer_deinit+0xa8>
 8004904:	f240 4005 	movw	r0, #1029	; 0x405
 8004908:	f7ff fe3f 	bl	800458a <rcu_periph_reset_enable>
 800490c:	f240 4005 	movw	r0, #1029	; 0x405
 8004910:	e7d8      	b.n	80048c4 <timer_deinit+0xa8>
 8004912:	f240 300d 	movw	r0, #781	; 0x30d
 8004916:	f7ff fe38 	bl	800458a <rcu_periph_reset_enable>
 800491a:	f240 300d 	movw	r0, #781	; 0x30d
 800491e:	e7d1      	b.n	80048c4 <timer_deinit+0xa8>
 8004920:	f240 3013 	movw	r0, #787	; 0x313
 8004924:	f7ff fe31 	bl	800458a <rcu_periph_reset_enable>
 8004928:	f240 3013 	movw	r0, #787	; 0x313
 800492c:	e7ca      	b.n	80048c4 <timer_deinit+0xa8>
 800492e:	f44f 7045 	mov.w	r0, #788	; 0x314
 8004932:	f7ff fe2a 	bl	800458a <rcu_periph_reset_enable>
 8004936:	f44f 7045 	mov.w	r0, #788	; 0x314
 800493a:	e7c3      	b.n	80048c4 <timer_deinit+0xa8>
 800493c:	f240 4006 	movw	r0, #1030	; 0x406
 8004940:	f7ff fe23 	bl	800458a <rcu_periph_reset_enable>
 8004944:	f240 4006 	movw	r0, #1030	; 0x406
 8004948:	e7bc      	b.n	80048c4 <timer_deinit+0xa8>
 800494a:	f240 4007 	movw	r0, #1031	; 0x407
 800494e:	f7ff fe1c 	bl	800458a <rcu_periph_reset_enable>
 8004952:	f240 4007 	movw	r0, #1031	; 0x407
 8004956:	e7b5      	b.n	80048c4 <timer_deinit+0xa8>
 8004958:	40001c00 	andmi	r1, r0, r0, lsl #24
 800495c:	40001400 	andmi	r1, r0, r0, lsl #8
 8004960:	40014c00 	andmi	r4, r1, r0, lsl #24
 8004964:	40015000 	andmi	r5, r1, r0

08004968 <timer_init>:
 8004968:	880b      	ldrh	r3, [r1, #0]
 800496a:	6283      	str	r3, [r0, #40]	; 0x28
 800496c:	4b26      	ldr	r3, [pc, #152]	; (8004a08 <timer_init+0xa0>)
 800496e:	4298      	cmp	r0, r3
 8004970:	d018      	beq.n	80049a4 <timer_init+0x3c>
 8004972:	f420 6240 	bic.w	r2, r0, #3072	; 0xc00
 8004976:	f1b2 4f80 	cmp.w	r2, #1073741824	; 0x40000000
 800497a:	f420 6380 	bic.w	r3, r0, #1024	; 0x400
 800497e:	d011      	beq.n	80049a4 <timer_init+0x3c>
 8004980:	4a22      	ldr	r2, [pc, #136]	; (8004a0c <timer_init+0xa4>)
 8004982:	4290      	cmp	r0, r2
 8004984:	d00e      	beq.n	80049a4 <timer_init+0x3c>
 8004986:	f502 52c0 	add.w	r2, r2, #6144	; 0x1800
 800498a:	4290      	cmp	r0, r2
 800498c:	d00a      	beq.n	80049a4 <timer_init+0x3c>
 800498e:	f502 6280 	add.w	r2, r2, #1024	; 0x400
 8004992:	4293      	cmp	r3, r2
 8004994:	d006      	beq.n	80049a4 <timer_init+0x3c>
 8004996:	f5a2 329c 	sub.w	r2, r2, #79872	; 0x13800
 800499a:	4293      	cmp	r3, r2
 800499c:	d002      	beq.n	80049a4 <timer_init+0x3c>
 800499e:	4b1c      	ldr	r3, [pc, #112]	; (8004a10 <timer_init+0xa8>)
 80049a0:	4298      	cmp	r0, r3
 80049a2:	d10f      	bne.n	80049c4 <timer_init+0x5c>
 80049a4:	6803      	ldr	r3, [r0, #0]
 80049a6:	f023 0370 	bic.w	r3, r3, #112	; 0x70
 80049aa:	6003      	str	r3, [r0, #0]
 80049ac:	884b      	ldrh	r3, [r1, #2]
 80049ae:	6802      	ldr	r2, [r0, #0]
 80049b0:	f003 0360 	and.w	r3, r3, #96	; 0x60
 80049b4:	4313      	orrs	r3, r2
 80049b6:	6003      	str	r3, [r0, #0]
 80049b8:	888b      	ldrh	r3, [r1, #4]
 80049ba:	6802      	ldr	r2, [r0, #0]
 80049bc:	f003 0310 	and.w	r3, r3, #16
 80049c0:	4313      	orrs	r3, r2
 80049c2:	6003      	str	r3, [r0, #0]
 80049c4:	688b      	ldr	r3, [r1, #8]
 80049c6:	62c3      	str	r3, [r0, #44]	; 0x2c
 80049c8:	4b12      	ldr	r3, [pc, #72]	; (8004a14 <timer_init+0xac>)
 80049ca:	4298      	cmp	r0, r3
 80049cc:	d003      	beq.n	80049d6 <timer_init+0x6e>
 80049ce:	f503 6380 	add.w	r3, r3, #1024	; 0x400
 80049d2:	4298      	cmp	r0, r3
 80049d4:	d104      	bne.n	80049e0 <timer_init+0x78>
 80049d6:	6943      	ldr	r3, [r0, #20]
 80049d8:	f043 0301 	orr.w	r3, r3, #1
 80049dc:	6143      	str	r3, [r0, #20]
 80049de:	4770      	bx	lr
 80049e0:	6803      	ldr	r3, [r0, #0]
 80049e2:	f423 7340 	bic.w	r3, r3, #768	; 0x300
 80049e6:	6003      	str	r3, [r0, #0]
 80049e8:	898b      	ldrh	r3, [r1, #12]
 80049ea:	6802      	ldr	r2, [r0, #0]
 80049ec:	f403 7340 	and.w	r3, r3, #768	; 0x300
 80049f0:	4313      	orrs	r3, r2
 80049f2:	6003      	str	r3, [r0, #0]
 80049f4:	4b04      	ldr	r3, [pc, #16]	; (8004a08 <timer_init+0xa0>)
 80049f6:	4298      	cmp	r0, r3
 80049f8:	d002      	beq.n	8004a00 <timer_init+0x98>
 80049fa:	4b04      	ldr	r3, [pc, #16]	; (8004a0c <timer_init+0xa4>)
 80049fc:	4298      	cmp	r0, r3
 80049fe:	d1ea      	bne.n	80049d6 <timer_init+0x6e>
 8004a00:	7b8b      	ldrb	r3, [r1, #14]
 8004a02:	6303      	str	r3, [r0, #48]	; 0x30
 8004a04:	e7e7      	b.n	80049d6 <timer_init+0x6e>
 8004a06:	bf00      	nop
 8004a08:	40012c00 	andmi	r2, r1, r0, lsl #24
 8004a0c:	40013400 	andmi	r3, r1, r0, lsl #8
 8004a10:	40002000 	andmi	r2, r0, r0
 8004a14:	40001000 	andmi	r1, r0, r0

08004a18 <timer_enable>:
 8004a18:	6803      	ldr	r3, [r0, #0]
 8004a1a:	f043 0301 	orr.w	r3, r3, #1
 8004a1e:	6003      	str	r3, [r0, #0]
 8004a20:	4770      	bx	lr

08004a22 <timer_input_trigger_source_select>:
 8004a22:	6883      	ldr	r3, [r0, #8]
 8004a24:	f023 0370 	bic.w	r3, r3, #112	; 0x70
 8004a28:	6083      	str	r3, [r0, #8]
 8004a2a:	6883      	ldr	r3, [r0, #8]
 8004a2c:	430b      	orrs	r3, r1
 8004a2e:	6083      	str	r3, [r0, #8]
 8004a30:	4770      	bx	lr

08004a32 <timer_master_output_trigger_source_select>:
 8004a32:	6843      	ldr	r3, [r0, #4]
 8004a34:	f023 0370 	bic.w	r3, r3, #112	; 0x70
 8004a38:	6043      	str	r3, [r0, #4]
 8004a3a:	6843      	ldr	r3, [r0, #4]
 8004a3c:	430b      	orrs	r3, r1
 8004a3e:	6043      	str	r3, [r0, #4]
 8004a40:	4770      	bx	lr

08004a42 <timer_slave_mode_select>:
 8004a42:	6883      	ldr	r3, [r0, #8]
 8004a44:	f023 0307 	bic.w	r3, r3, #7
 8004a48:	6083      	str	r3, [r0, #8]
 8004a4a:	6883      	ldr	r3, [r0, #8]
 8004a4c:	430b      	orrs	r3, r1
 8004a4e:	6083      	str	r3, [r0, #8]
 8004a50:	4770      	bx	lr

08004a52 <timer_master_slave_mode_config>:
 8004a52:	2980      	cmp	r1, #128	; 0x80
 8004a54:	d104      	bne.n	8004a60 <timer_master_slave_mode_config+0xe>
 8004a56:	6883      	ldr	r3, [r0, #8]
 8004a58:	f043 0380 	orr.w	r3, r3, #128	; 0x80
 8004a5c:	6083      	str	r3, [r0, #8]
 8004a5e:	4770      	bx	lr
 8004a60:	2900      	cmp	r1, #0
 8004a62:	d1fc      	bne.n	8004a5e <timer_master_slave_mode_config+0xc>
 8004a64:	6883      	ldr	r3, [r0, #8]
 8004a66:	f023 0380 	bic.w	r3, r3, #128	; 0x80
 8004a6a:	e7f7      	b.n	8004a5c <timer_master_slave_mode_config+0xa>

08004a6c <usart_deinit>:
 8004a6c:	b508      	push	{r3, lr}
 8004a6e:	4b2d      	ldr	r3, [pc, #180]	; (8004b24 <usart_deinit+0xb8>)
 8004a70:	4298      	cmp	r0, r3
 8004a72:	d050      	beq.n	8004b16 <usart_deinit+0xaa>
 8004a74:	d817      	bhi.n	8004aa6 <usart_deinit+0x3a>
 8004a76:	f5a3 5330 	sub.w	r3, r3, #11264	; 0x2c00
 8004a7a:	4298      	cmp	r0, r3
 8004a7c:	d044      	beq.n	8004b08 <usart_deinit+0x9c>
 8004a7e:	d808      	bhi.n	8004a92 <usart_deinit+0x26>
 8004a80:	f5a3 6300 	sub.w	r3, r3, #2048	; 0x800
 8004a84:	4298      	cmp	r0, r3
 8004a86:	d02a      	beq.n	8004ade <usart_deinit+0x72>
 8004a88:	f503 6380 	add.w	r3, r3, #1024	; 0x400
 8004a8c:	4298      	cmp	r0, r3
 8004a8e:	d02d      	beq.n	8004aec <usart_deinit+0x80>
 8004a90:	bd08      	pop	{r3, pc}
 8004a92:	4b25      	ldr	r3, [pc, #148]	; (8004b28 <usart_deinit+0xbc>)
 8004a94:	4298      	cmp	r0, r3
 8004a96:	d1fb      	bne.n	8004a90 <usart_deinit+0x24>
 8004a98:	f240 4014 	movw	r0, #1044	; 0x414
 8004a9c:	f7ff fd75 	bl	800458a <rcu_periph_reset_enable>
 8004aa0:	f240 4014 	movw	r0, #1044	; 0x414
 8004aa4:	e017      	b.n	8004ad6 <usart_deinit+0x6a>
 8004aa6:	4b21      	ldr	r3, [pc, #132]	; (8004b2c <usart_deinit+0xc0>)
 8004aa8:	4298      	cmp	r0, r3
 8004aaa:	d00e      	beq.n	8004aca <usart_deinit+0x5e>
 8004aac:	f503 5360 	add.w	r3, r3, #14336	; 0x3800
 8004ab0:	4298      	cmp	r0, r3
 8004ab2:	d022      	beq.n	8004afa <usart_deinit+0x8e>
 8004ab4:	f5a3 4374 	sub.w	r3, r3, #62464	; 0xf400
 8004ab8:	4298      	cmp	r0, r3
 8004aba:	d1e9      	bne.n	8004a90 <usart_deinit+0x24>
 8004abc:	f641 601f 	movw	r0, #7711	; 0x1e1f
 8004ac0:	f7ff fd63 	bl	800458a <rcu_periph_reset_enable>
 8004ac4:	f641 601f 	movw	r0, #7711	; 0x1e1f
 8004ac8:	e005      	b.n	8004ad6 <usart_deinit+0x6a>
 8004aca:	f240 300e 	movw	r0, #782	; 0x30e
 8004ace:	f7ff fd5c 	bl	800458a <rcu_periph_reset_enable>
 8004ad2:	f240 300e 	movw	r0, #782	; 0x30e
 8004ad6:	e8bd 4008 	ldmia.w	sp!, {r3, lr}
 8004ada:	f7ff bd58 	b.w	800458e <rcu_periph_reset_disable>
 8004ade:	f240 4011 	movw	r0, #1041	; 0x411
 8004ae2:	f7ff fd52 	bl	800458a <rcu_periph_reset_enable>
 8004ae6:	f240 4011 	movw	r0, #1041	; 0x411
 8004aea:	e7f4      	b.n	8004ad6 <usart_deinit+0x6a>
 8004aec:	f240 4012 	movw	r0, #1042	; 0x412
 8004af0:	f7ff fd4b 	bl	800458a <rcu_periph_reset_enable>
 8004af4:	f240 4012 	movw	r0, #1042	; 0x412
 8004af8:	e7ed      	b.n	8004ad6 <usart_deinit+0x6a>
 8004afa:	f641 5018 	movw	r0, #7448	; 0x1d18
 8004afe:	f7ff fd44 	bl	800458a <rcu_periph_reset_enable>
 8004b02:	f641 5018 	movw	r0, #7448	; 0x1d18
 8004b06:	e7e6      	b.n	8004ad6 <usart_deinit+0x6a>
 8004b08:	f240 4013 	movw	r0, #1043	; 0x413
 8004b0c:	f7ff fd3d 	bl	800458a <rcu_periph_reset_enable>
 8004b10:	f240 4013 	movw	r0, #1043	; 0x413
 8004b14:	e7df      	b.n	8004ad6 <usart_deinit+0x6a>
 8004b16:	f641 601e 	movw	r0, #7710	; 0x1e1e
 8004b1a:	f7ff fd36 	bl	800458a <rcu_periph_reset_enable>
 8004b1e:	f641 601e 	movw	r0, #7710	; 0x1e1e
 8004b22:	e7d8      	b.n	8004ad6 <usart_deinit+0x6a>
 8004b24:	40007800 	andmi	r7, r0, r0, lsl #16
 8004b28:	40005000 	andmi	r5, r0, r0
 8004b2c:	40013800 	andmi	r3, r1, r0, lsl #16

08004b30 <usart_baudrate_set>:
 8004b30:	b538      	push	{r3, r4, r5, lr}
 8004b32:	4b16      	ldr	r3, [pc, #88]	; (8004b8c <usart_baudrate_set+0x5c>)
 8004b34:	4604      	mov	r4, r0
 8004b36:	4298      	cmp	r0, r3
 8004b38:	460d      	mov	r5, r1
 8004b3a:	d025      	beq.n	8004b88 <usart_baudrate_set+0x58>
 8004b3c:	d816      	bhi.n	8004b6c <usart_baudrate_set+0x3c>
 8004b3e:	f5a3 5330 	sub.w	r3, r3, #11264	; 0x2c00
 8004b42:	4298      	cmp	r0, r3
 8004b44:	d020      	beq.n	8004b88 <usart_baudrate_set+0x58>
 8004b46:	d80f      	bhi.n	8004b68 <usart_baudrate_set+0x38>
 8004b48:	f5a3 6300 	sub.w	r3, r3, #2048	; 0x800
 8004b4c:	4298      	cmp	r0, r3
 8004b4e:	d01b      	beq.n	8004b88 <usart_baudrate_set+0x58>
 8004b50:	f503 6380 	add.w	r3, r3, #1024	; 0x400
 8004b54:	429c      	cmp	r4, r3
 8004b56:	d017      	beq.n	8004b88 <usart_baudrate_set+0x58>
 8004b58:	2000      	movs	r0, #0
 8004b5a:	eb00 0155 	add.w	r1, r0, r5, lsr #1
 8004b5e:	fbb1 f1f5 	udiv	r1, r1, r5
 8004b62:	b289      	uxth	r1, r1
 8004b64:	60a1      	str	r1, [r4, #8]
 8004b66:	bd38      	pop	{r3, r4, r5, pc}
 8004b68:	4b09      	ldr	r3, [pc, #36]	; (8004b90 <usart_baudrate_set+0x60>)
 8004b6a:	e7f3      	b.n	8004b54 <usart_baudrate_set+0x24>
 8004b6c:	4b09      	ldr	r3, [pc, #36]	; (8004b94 <usart_baudrate_set+0x64>)
 8004b6e:	4298      	cmp	r0, r3
 8004b70:	d006      	beq.n	8004b80 <usart_baudrate_set+0x50>
 8004b72:	f503 5360 	add.w	r3, r3, #14336	; 0x3800
 8004b76:	4298      	cmp	r0, r3
 8004b78:	d002      	beq.n	8004b80 <usart_baudrate_set+0x50>
 8004b7a:	f5a3 4374 	sub.w	r3, r3, #62464	; 0xf400
 8004b7e:	e7e9      	b.n	8004b54 <usart_baudrate_set+0x24>
 8004b80:	2003      	movs	r0, #3
 8004b82:	f7ff fdc3 	bl	800470c <rcu_clock_freq_get>
 8004b86:	e7e8      	b.n	8004b5a <usart_baudrate_set+0x2a>
 8004b88:	2002      	movs	r0, #2
 8004b8a:	e7fa      	b.n	8004b82 <usart_baudrate_set+0x52>
 8004b8c:	40007800 	andmi	r7, r0, r0, lsl #16
 8004b90:	40005000 	andmi	r5, r0, r0
 8004b94:	40013800 	andmi	r3, r1, r0, lsl #16

08004b98 <usart_parity_config>:
 8004b98:	68c3      	ldr	r3, [r0, #12]
 8004b9a:	f423 63c0 	bic.w	r3, r3, #1536	; 0x600
 8004b9e:	60c3      	str	r3, [r0, #12]
 8004ba0:	68c3      	ldr	r3, [r0, #12]
 8004ba2:	430b      	orrs	r3, r1
 8004ba4:	60c3      	str	r3, [r0, #12]
 8004ba6:	4770      	bx	lr

08004ba8 <usart_word_length_set>:
 8004ba8:	68c3      	ldr	r3, [r0, #12]
 8004baa:	f423 5380 	bic.w	r3, r3, #4096	; 0x1000
 8004bae:	60c3      	str	r3, [r0, #12]
 8004bb0:	68c3      	ldr	r3, [r0, #12]
 8004bb2:	430b      	orrs	r3, r1
 8004bb4:	60c3      	str	r3, [r0, #12]
 8004bb6:	4770      	bx	lr

08004bb8 <usart_stop_bit_set>:
 8004bb8:	6903      	ldr	r3, [r0, #16]
 8004bba:	f423 5340 	bic.w	r3, r3, #12288	; 0x3000
 8004bbe:	6103      	str	r3, [r0, #16]
 8004bc0:	6903      	ldr	r3, [r0, #16]
 8004bc2:	430b      	orrs	r3, r1
 8004bc4:	6103      	str	r3, [r0, #16]
 8004bc6:	4770      	bx	lr

08004bc8 <usart_transmit_config>:
 8004bc8:	68c3      	ldr	r3, [r0, #12]
 8004bca:	f023 0308 	bic.w	r3, r3, #8
 8004bce:	430b      	orrs	r3, r1
 8004bd0:	60c3      	str	r3, [r0, #12]
 8004bd2:	4770      	bx	lr

08004bd4 <usart_receive_config>:
 8004bd4:	68c3      	ldr	r3, [r0, #12]
 8004bd6:	f023 0304 	bic.w	r3, r3, #4
 8004bda:	430b      	orrs	r3, r1
 8004bdc:	60c3      	str	r3, [r0, #12]
 8004bde:	4770      	bx	lr

08004be0 <usart_hardware_flow_rts_config>:
 8004be0:	6943      	ldr	r3, [r0, #20]
 8004be2:	f423 7380 	bic.w	r3, r3, #256	; 0x100
 8004be6:	430b      	orrs	r3, r1
 8004be8:	6143      	str	r3, [r0, #20]
 8004bea:	4770      	bx	lr

08004bec <usart_hardware_flow_cts_config>:
 8004bec:	6943      	ldr	r3, [r0, #20]
 8004bee:	f423 7300 	bic.w	r3, r3, #512	; 0x200
 8004bf2:	430b      	orrs	r3, r1
 8004bf4:	6143      	str	r3, [r0, #20]
 8004bf6:	4770      	bx	lr

08004bf8 <usart_flag_get>:
 8004bf8:	098b      	lsrs	r3, r1, #6
 8004bfa:	581a      	ldr	r2, [r3, r0]
 8004bfc:	2301      	movs	r3, #1
 8004bfe:	f001 011f 	and.w	r1, r1, #31
 8004c02:	408b      	lsls	r3, r1
 8004c04:	4213      	tst	r3, r2
 8004c06:	bf14      	ite	ne
 8004c08:	2001      	movne	r0, #1
 8004c0a:	2000      	moveq	r0, #0
 8004c0c:	4770      	bx	lr
	...

08004c10 <emac_eth_recv>:
 8004c10:	b538      	push	{r3, r4, r5, lr}
 8004c12:	4605      	mov	r5, r0
 8004c14:	f001 f85e 	bl	8005cd4 <enet_rxframe_size_get>
 8004c18:	4604      	mov	r4, r0
 8004c1a:	b138      	cbz	r0, 8004c2c <emac_eth_recv+0x1c>
 8004c1c:	4b05      	ldr	r3, [pc, #20]	; (8004c34 <emac_eth_recv+0x24>)
 8004c1e:	2105      	movs	r1, #5
 8004c20:	6818      	ldr	r0, [r3, #0]
 8004c22:	f001 f806 	bl	8005c32 <enet_desc_information_get>
 8004c26:	6028      	str	r0, [r5, #0]
 8004c28:	4620      	mov	r0, r4
 8004c2a:	bd38      	pop	{r3, r4, r5, pc}
 8004c2c:	f04f 30ff 	mov.w	r0, #4294967295	; 0xffffffff
 8004c30:	e7fb      	b.n	8004c2a <emac_eth_recv+0x1a>
 8004c32:	bf00      	nop
 8004c34:	200039d4 	ldrdcs	r3, [r0], -r4

08004c38 <emac_free_pkt>:
 8004c38:	2100      	movs	r1, #0
 8004c3a:	4608      	mov	r0, r1
 8004c3c:	f000 bd34 	b.w	80056a8 <enet_frame_receive>

08004c40 <emac_eth_send>:
 8004c40:	f000 bd72 	b.w	8005728 <enet_frame_transmit>

08004c44 <gd32_adc_init()>:
 8004c44:	b510      	push	{r4, lr}
 8004c46:	f240 6009 	movw	r0, #1545	; 0x609
 8004c4a:	4c21      	ldr	r4, [pc, #132]	; (8004cd0 <gd32_adc_init()+0x8c>)
 8004c4c:	f7ff fc82 	bl	8004554 <rcu_periph_clock_enable>
 8004c50:	2005      	movs	r0, #5
 8004c52:	f7ff fcbb 	bl	80045cc <rcu_adc_clock_config>
 8004c56:	4620      	mov	r0, r4
 8004c58:	2201      	movs	r2, #1
 8004c5a:	f44f 7180 	mov.w	r1, #256	; 0x100
 8004c5e:	f000 fbe7 	bl	8005430 <adc_special_function_config>
 8004c62:	f44f 42e0 	mov.w	r2, #28672	; 0x7000
 8004c66:	4620      	mov	r0, r4
 8004c68:	2102      	movs	r1, #2
 8004c6a:	f000 fc80 	bl	800556e <adc_external_trigger_source_config>
 8004c6e:	2100      	movs	r1, #0
 8004c70:	4620      	mov	r0, r4
 8004c72:	f000 fc05 	bl	8005480 <adc_data_alignment_config>
 8004c76:	2000      	movs	r0, #0
 8004c78:	f000 fbca 	bl	8005410 <adc_mode_config>
 8004c7c:	2202      	movs	r2, #2
 8004c7e:	4620      	mov	r0, r4
 8004c80:	4611      	mov	r1, r2
 8004c82:	f000 fc29 	bl	80054d8 <adc_channel_length_config>
 8004c86:	4620      	mov	r0, r4
 8004c88:	2307      	movs	r3, #7
 8004c8a:	2210      	movs	r2, #16
 8004c8c:	2100      	movs	r1, #0
 8004c8e:	f000 fc40 	bl	8005512 <adc_inserted_channel_config>
 8004c92:	2307      	movs	r3, #7
 8004c94:	4620      	mov	r0, r4
 8004c96:	2211      	movs	r2, #17
 8004c98:	2101      	movs	r1, #1
 8004c9a:	f000 fc3a 	bl	8005512 <adc_inserted_channel_config>
 8004c9e:	2201      	movs	r2, #1
 8004ca0:	2102      	movs	r1, #2
 8004ca2:	4620      	mov	r0, r4
 8004ca4:	f000 fc74 	bl	8005590 <adc_external_trigger_config>
 8004ca8:	f000 fc0c 	bl	80054c4 <adc_tempsensor_vrefint_enable>
 8004cac:	4620      	mov	r0, r4
 8004cae:	f000 fbf0 	bl	8005492 <adc_enable>
 8004cb2:	2100      	movs	r1, #0
 8004cb4:	f44f 707a 	mov.w	r0, #1000	; 0x3e8
 8004cb8:	f000 fade 	bl	8005278 <udelay(unsigned int, unsigned int)>
 8004cbc:	4620      	mov	r0, r4
 8004cbe:	f000 fbf0 	bl	80054a2 <adc_calibration_enable>
 8004cc2:	4620      	mov	r0, r4
 8004cc4:	e8bd 4010 	ldmia.w	sp!, {r4, lr}
 8004cc8:	2102      	movs	r1, #2
 8004cca:	f000 bc7c 	b.w	80055c6 <adc_software_trigger_enable>
 8004cce:	bf00      	nop
 8004cd0:	40012400 	andmi	r2, r1, r0, lsl #8

08004cd4 <_stop() [clone .isra.0]>:
 8004cd4:	b508      	push	{r3, lr}
 8004cd6:	4806      	ldr	r0, [pc, #24]	; (8004cf0 <_stop() [clone .isra.0]+0x1c>)
 8004cd8:	f001 f8c0 	bl	8005e5c <i2c_stop_on_bus>
 8004cdc:	f640 73ff 	movw	r3, #4095	; 0xfff
 8004ce0:	4904      	ldr	r1, [pc, #16]	; (8004cf4 <_stop() [clone .isra.0]+0x20>)
 8004ce2:	f8d1 2400 	ldr.w	r2, [r1, #1024]	; 0x400
 8004ce6:	0592      	lsls	r2, r2, #22
 8004ce8:	d501      	bpl.n	8004cee <_stop() [clone .isra.0]+0x1a>
 8004cea:	3b01      	subs	r3, #1
 8004cec:	d1f9      	bne.n	8004ce2 <_stop() [clone .isra.0]+0xe>
 8004cee:	bd08      	pop	{r3, pc}
 8004cf0:	40005400 	andmi	r5, r0, r0, lsl #8
 8004cf4:	40005000 	andmi	r5, r0, r0

08004cf8 <gd32_i2c_begin>:
 8004cf8:	b510      	push	{r4, lr}
 8004cfa:	f240 7015 	movw	r0, #1813	; 0x715
 8004cfe:	f7ff fc29 	bl	8004554 <rcu_periph_clock_enable>
 8004d02:	4c15      	ldr	r4, [pc, #84]	; (8004d58 <gd32_i2c_begin+0x60>)
 8004d04:	f240 6003 	movw	r0, #1539	; 0x603
 8004d08:	f7ff fc24 	bl	8004554 <rcu_periph_clock_enable>
 8004d0c:	f240 6003 	movw	r0, #1539	; 0x603
 8004d10:	f7ff fc20 	bl	8004554 <rcu_periph_clock_enable>
 8004d14:	4620      	mov	r0, r4
 8004d16:	f44f 7380 	mov.w	r3, #256	; 0x100
 8004d1a:	2203      	movs	r2, #3
 8004d1c:	211c      	movs	r1, #28
 8004d1e:	f7ff fb7b 	bl	8004418 <gpio_init>
 8004d22:	f44f 7300 	mov.w	r3, #512	; 0x200
 8004d26:	2203      	movs	r2, #3
 8004d28:	4620      	mov	r0, r4
 8004d2a:	211c      	movs	r1, #28
 8004d2c:	f7ff fb74 	bl	8004418 <gpio_init>
 8004d30:	f5a4 4438 	sub.w	r4, r4, #47104	; 0xb800
 8004d34:	2101      	movs	r1, #1
 8004d36:	2002      	movs	r0, #2
 8004d38:	f7ff fbc8 	bl	80044cc <gpio_pin_remap_config>
 8004d3c:	4620      	mov	r0, r4
 8004d3e:	4907      	ldr	r1, [pc, #28]	; (8004d5c <gd32_i2c_begin+0x64>)
 8004d40:	2200      	movs	r2, #0
 8004d42:	f001 f805 	bl	8005d50 <i2c_clock_config>
 8004d46:	4620      	mov	r0, r4
 8004d48:	f001 f87e 	bl	8005e48 <i2c_enable>
 8004d4c:	4620      	mov	r0, r4
 8004d4e:	e8bd 4010 	ldmia.w	sp!, {r4, lr}
 8004d52:	2101      	movs	r1, #1
 8004d54:	f001 b85e 	b.w	8005e14 <i2c_ack_config>
 8004d58:	40010c00 	andmi	r0, r1, r0, lsl #24
 8004d5c:	00061a80 	andeq	r1, r6, r0, lsl #21

08004d60 <gd32_i2c_set_baudrate>:
 8004d60:	4601      	mov	r1, r0
 8004d62:	2200      	movs	r2, #0
 8004d64:	4801      	ldr	r0, [pc, #4]	; (8004d6c <gd32_i2c_set_baudrate+0xc>)
 8004d66:	f000 bff3 	b.w	8005d50 <i2c_clock_config>
 8004d6a:	bf00      	nop
 8004d6c:	40005400 	andmi	r5, r0, r0, lsl #8

08004d70 <gd32_i2c_set_address>:
 8004d70:	4b01      	ldr	r3, [pc, #4]	; (8004d78 <gd32_i2c_set_address+0x8>)
 8004d72:	0040      	lsls	r0, r0, #1
 8004d74:	7018      	strb	r0, [r3, #0]
 8004d76:	4770      	bx	lr
 8004d78:	200039c8 	andcs	r3, r0, r8, asr #19

08004d7c <gd32_i2c_write>:
 8004d7c:	b5f8      	push	{r3, r4, r5, r6, r7, lr}
 8004d7e:	4604      	mov	r4, r0
 8004d80:	460f      	mov	r7, r1
 8004d82:	f640 75ff 	movw	r5, #4095	; 0xfff
 8004d86:	4e2e      	ldr	r6, [pc, #184]	; (8004e40 <gd32_i2c_write+0xc4>)
 8004d88:	f240 6101 	movw	r1, #1537	; 0x601
 8004d8c:	4630      	mov	r0, r6
 8004d8e:	f001 f86f 	bl	8005e70 <i2c_flag_get>
 8004d92:	b9b0      	cbnz	r0, 8004dc2 <gd32_i2c_write+0x46>
 8004d94:	482a      	ldr	r0, [pc, #168]	; (8004e40 <gd32_i2c_write+0xc4>)
 8004d96:	f001 f85c 	bl	8005e52 <i2c_start_on_bus>
 8004d9a:	f640 75ff 	movw	r5, #4095	; 0xfff
 8004d9e:	4e28      	ldr	r6, [pc, #160]	; (8004e40 <gd32_i2c_write+0xc4>)
 8004da0:	f44f 61a0 	mov.w	r1, #1280	; 0x500
 8004da4:	4630      	mov	r0, r6
 8004da6:	f001 f863 	bl	8005e70 <i2c_flag_get>
 8004daa:	b190      	cbz	r0, 8004dd2 <gd32_i2c_write+0x56>
 8004dac:	4b25      	ldr	r3, [pc, #148]	; (8004e44 <gd32_i2c_write+0xc8>)
 8004dae:	f06f 0201 	mvn.w	r2, #1
 8004db2:	7819      	ldrb	r1, [r3, #0]
 8004db4:	4822      	ldr	r0, [pc, #136]	; (8004e40 <gd32_i2c_write+0xc4>)
 8004db6:	f001 f83f 	bl	8005e38 <i2c_master_addressing>
 8004dba:	f640 75ff 	movw	r5, #4095	; 0xfff
 8004dbe:	4e20      	ldr	r6, [pc, #128]	; (8004e40 <gd32_i2c_write+0xc4>)
 8004dc0:	e00c      	b.n	8004ddc <gd32_i2c_write+0x60>
 8004dc2:	3d01      	subs	r5, #1
 8004dc4:	d1e0      	bne.n	8004d88 <gd32_i2c_write+0xc>
 8004dc6:	f7ff ff85 	bl	8004cd4 <_stop() [clone .isra.0]>
 8004dca:	f04f 30ff 	mov.w	r0, #4294967295	; 0xffffffff
 8004dce:	4240      	negs	r0, r0
 8004dd0:	bdf8      	pop	{r3, r4, r5, r6, r7, pc}
 8004dd2:	3d01      	subs	r5, #1
 8004dd4:	d1e4      	bne.n	8004da0 <gd32_i2c_write+0x24>
 8004dd6:	e7f6      	b.n	8004dc6 <gd32_i2c_write+0x4a>
 8004dd8:	3d01      	subs	r5, #1
 8004dda:	d0f4      	beq.n	8004dc6 <gd32_i2c_write+0x4a>
 8004ddc:	f240 5101 	movw	r1, #1281	; 0x501
 8004de0:	4630      	mov	r0, r6
 8004de2:	f001 f845 	bl	8005e70 <i2c_flag_get>
 8004de6:	2800      	cmp	r0, #0
 8004de8:	d0f6      	beq.n	8004dd8 <gd32_i2c_write+0x5c>
 8004dea:	f240 5101 	movw	r1, #1281	; 0x501
 8004dee:	4814      	ldr	r0, [pc, #80]	; (8004e40 <gd32_i2c_write+0xc4>)
 8004df0:	f001 f849 	bl	8005e86 <i2c_flag_clear>
 8004df4:	f640 75ff 	movw	r5, #4095	; 0xfff
 8004df8:	4e11      	ldr	r6, [pc, #68]	; (8004e40 <gd32_i2c_write+0xc4>)
 8004dfa:	f240 5107 	movw	r1, #1287	; 0x507
 8004dfe:	4630      	mov	r0, r6
 8004e00:	f001 f836 	bl	8005e70 <i2c_flag_get>
 8004e04:	2801      	cmp	r0, #1
 8004e06:	d107      	bne.n	8004e18 <gd32_i2c_write+0x9c>
 8004e08:	4e0d      	ldr	r6, [pc, #52]	; (8004e40 <gd32_i2c_write+0xc4>)
 8004e0a:	4427      	add	r7, r4
 8004e0c:	42a7      	cmp	r7, r4
 8004e0e:	d106      	bne.n	8004e1e <gd32_i2c_write+0xa2>
 8004e10:	f7ff ff60 	bl	8004cd4 <_stop() [clone .isra.0]>
 8004e14:	2000      	movs	r0, #0
 8004e16:	e7da      	b.n	8004dce <gd32_i2c_write+0x52>
 8004e18:	3d01      	subs	r5, #1
 8004e1a:	d1ee      	bne.n	8004dfa <gd32_i2c_write+0x7e>
 8004e1c:	e7d3      	b.n	8004dc6 <gd32_i2c_write+0x4a>
 8004e1e:	4630      	mov	r0, r6
 8004e20:	f814 1b01 	ldrb.w	r1, [r4], #1
 8004e24:	f001 f81f 	bl	8005e66 <i2c_data_transmit>
 8004e28:	f640 75ff 	movw	r5, #4095	; 0xfff
 8004e2c:	f240 5102 	movw	r1, #1282	; 0x502
 8004e30:	4630      	mov	r0, r6
 8004e32:	f001 f81d 	bl	8005e70 <i2c_flag_get>
 8004e36:	2800      	cmp	r0, #0
 8004e38:	d1e8      	bne.n	8004e0c <gd32_i2c_write+0x90>
 8004e3a:	3d01      	subs	r5, #1
 8004e3c:	d1f6      	bne.n	8004e2c <gd32_i2c_write+0xb0>
 8004e3e:	e7c2      	b.n	8004dc6 <gd32_i2c_write+0x4a>
 8004e40:	40005400 	andmi	r5, r0, r0, lsl #8
 8004e44:	200039c8 	andcs	r3, r0, r8, asr #19

08004e48 <gd32_i2c_read>:
 8004e48:	e92d 43f8 	stmdb	sp!, {r3, r4, r5, r6, r7, r8, r9, lr}
 8004e4c:	4680      	mov	r8, r0
 8004e4e:	460c      	mov	r4, r1
 8004e50:	f640 76ff 	movw	r6, #4095	; 0xfff
 8004e54:	4f4b      	ldr	r7, [pc, #300]	; (8004f84 <gd32_i2c_read+0x13c>)
 8004e56:	f240 6101 	movw	r1, #1537	; 0x601
 8004e5a:	4638      	mov	r0, r7
 8004e5c:	f001 f808 	bl	8005e70 <i2c_flag_get>
 8004e60:	4605      	mov	r5, r0
 8004e62:	bb08      	cbnz	r0, 8004ea8 <gd32_i2c_read+0x60>
 8004e64:	2c02      	cmp	r4, #2
 8004e66:	d103      	bne.n	8004e70 <gd32_i2c_read+0x28>
 8004e68:	4601      	mov	r1, r0
 8004e6a:	4846      	ldr	r0, [pc, #280]	; (8004f84 <gd32_i2c_read+0x13c>)
 8004e6c:	f000 ffdb 	bl	8005e26 <i2c_ackpos_config>
 8004e70:	4844      	ldr	r0, [pc, #272]	; (8004f84 <gd32_i2c_read+0x13c>)
 8004e72:	f000 ffee 	bl	8005e52 <i2c_start_on_bus>
 8004e76:	f640 76ff 	movw	r6, #4095	; 0xfff
 8004e7a:	4f42      	ldr	r7, [pc, #264]	; (8004f84 <gd32_i2c_read+0x13c>)
 8004e7c:	f44f 61a0 	mov.w	r1, #1280	; 0x500
 8004e80:	4638      	mov	r0, r7
 8004e82:	f000 fff5 	bl	8005e70 <i2c_flag_get>
 8004e86:	b1a8      	cbz	r0, 8004eb4 <gd32_i2c_read+0x6c>
 8004e88:	4b3f      	ldr	r3, [pc, #252]	; (8004f88 <gd32_i2c_read+0x140>)
 8004e8a:	2201      	movs	r2, #1
 8004e8c:	7819      	ldrb	r1, [r3, #0]
 8004e8e:	483d      	ldr	r0, [pc, #244]	; (8004f84 <gd32_i2c_read+0x13c>)
 8004e90:	f000 ffd2 	bl	8005e38 <i2c_master_addressing>
 8004e94:	2c02      	cmp	r4, #2
 8004e96:	d803      	bhi.n	8004ea0 <gd32_i2c_read+0x58>
 8004e98:	2100      	movs	r1, #0
 8004e9a:	483a      	ldr	r0, [pc, #232]	; (8004f84 <gd32_i2c_read+0x13c>)
 8004e9c:	f000 ffba 	bl	8005e14 <i2c_ack_config>
 8004ea0:	f640 76ff 	movw	r6, #4095	; 0xfff
 8004ea4:	4f37      	ldr	r7, [pc, #220]	; (8004f84 <gd32_i2c_read+0x13c>)
 8004ea6:	e00a      	b.n	8004ebe <gd32_i2c_read+0x76>
 8004ea8:	3e01      	subs	r6, #1
 8004eaa:	d1d4      	bne.n	8004e56 <gd32_i2c_read+0xe>
 8004eac:	f7ff ff12 	bl	8004cd4 <_stop() [clone .isra.0]>
 8004eb0:	2504      	movs	r5, #4
 8004eb2:	e04d      	b.n	8004f50 <gd32_i2c_read+0x108>
 8004eb4:	3e01      	subs	r6, #1
 8004eb6:	d1e1      	bne.n	8004e7c <gd32_i2c_read+0x34>
 8004eb8:	e7f8      	b.n	8004eac <gd32_i2c_read+0x64>
 8004eba:	3e01      	subs	r6, #1
 8004ebc:	d0f6      	beq.n	8004eac <gd32_i2c_read+0x64>
 8004ebe:	f240 5101 	movw	r1, #1281	; 0x501
 8004ec2:	4638      	mov	r0, r7
 8004ec4:	f000 ffd4 	bl	8005e70 <i2c_flag_get>
 8004ec8:	2800      	cmp	r0, #0
 8004eca:	d0f6      	beq.n	8004eba <gd32_i2c_read+0x72>
 8004ecc:	f240 5101 	movw	r1, #1281	; 0x501
 8004ed0:	482c      	ldr	r0, [pc, #176]	; (8004f84 <gd32_i2c_read+0x13c>)
 8004ed2:	f000 ffd8 	bl	8005e86 <i2c_flag_clear>
 8004ed6:	2c01      	cmp	r4, #1
 8004ed8:	d102      	bne.n	8004ee0 <gd32_i2c_read+0x98>
 8004eda:	482a      	ldr	r0, [pc, #168]	; (8004f84 <gd32_i2c_read+0x13c>)
 8004edc:	f000 ffbe 	bl	8005e5c <i2c_stop_on_bus>
 8004ee0:	f640 77ff 	movw	r7, #4095	; 0xfff
 8004ee4:	4e27      	ldr	r6, [pc, #156]	; (8004f84 <gd32_i2c_read+0x13c>)
 8004ee6:	e022      	b.n	8004f2e <gd32_i2c_read+0xe6>
 8004ee8:	2c03      	cmp	r4, #3
 8004eea:	d134      	bne.n	8004f56 <gd32_i2c_read+0x10e>
 8004eec:	f640 79ff 	movw	r9, #4095	; 0xfff
 8004ef0:	e002      	b.n	8004ef8 <gd32_i2c_read+0xb0>
 8004ef2:	f1b9 0901 	subs.w	r9, r9, #1
 8004ef6:	d0d9      	beq.n	8004eac <gd32_i2c_read+0x64>
 8004ef8:	f240 5102 	movw	r1, #1282	; 0x502
 8004efc:	4630      	mov	r0, r6
 8004efe:	f000 ffb7 	bl	8005e70 <i2c_flag_get>
 8004f02:	2800      	cmp	r0, #0
 8004f04:	d0f5      	beq.n	8004ef2 <gd32_i2c_read+0xaa>
 8004f06:	2100      	movs	r1, #0
 8004f08:	4630      	mov	r0, r6
 8004f0a:	f000 ff83 	bl	8005e14 <i2c_ack_config>
 8004f0e:	f240 5106 	movw	r1, #1286	; 0x506
 8004f12:	4630      	mov	r0, r6
 8004f14:	f000 ffac 	bl	8005e70 <i2c_flag_get>
 8004f18:	b138      	cbz	r0, 8004f2a <gd32_i2c_read+0xe2>
 8004f1a:	4630      	mov	r0, r6
 8004f1c:	f000 ffa5 	bl	8005e6a <i2c_data_receive>
 8004f20:	f640 77ff 	movw	r7, #4095	; 0xfff
 8004f24:	f808 0b01 	strb.w	r0, [r8], #1
 8004f28:	3c01      	subs	r4, #1
 8004f2a:	3f01      	subs	r7, #1
 8004f2c:	d0be      	beq.n	8004eac <gd32_i2c_read+0x64>
 8004f2e:	2c00      	cmp	r4, #0
 8004f30:	d1da      	bne.n	8004ee8 <gd32_i2c_read+0xa0>
 8004f32:	f640 73ff 	movw	r3, #4095	; 0xfff
 8004f36:	4915      	ldr	r1, [pc, #84]	; (8004f8c <gd32_i2c_read+0x144>)
 8004f38:	f8d1 2400 	ldr.w	r2, [r1, #1024]	; 0x400
 8004f3c:	0592      	lsls	r2, r2, #22
 8004f3e:	d41d      	bmi.n	8004f7c <gd32_i2c_read+0x134>
 8004f40:	2101      	movs	r1, #1
 8004f42:	4810      	ldr	r0, [pc, #64]	; (8004f84 <gd32_i2c_read+0x13c>)
 8004f44:	f000 ff66 	bl	8005e14 <i2c_ack_config>
 8004f48:	2101      	movs	r1, #1
 8004f4a:	480e      	ldr	r0, [pc, #56]	; (8004f84 <gd32_i2c_read+0x13c>)
 8004f4c:	f000 ff6b 	bl	8005e26 <i2c_ackpos_config>
 8004f50:	4628      	mov	r0, r5
 8004f52:	e8bd 83f8 	ldmia.w	sp!, {r3, r4, r5, r6, r7, r8, r9, pc}
 8004f56:	2c02      	cmp	r4, #2
 8004f58:	d1d9      	bne.n	8004f0e <gd32_i2c_read+0xc6>
 8004f5a:	f640 79ff 	movw	r9, #4095	; 0xfff
 8004f5e:	e002      	b.n	8004f66 <gd32_i2c_read+0x11e>
 8004f60:	f1b9 0901 	subs.w	r9, r9, #1
 8004f64:	d0a2      	beq.n	8004eac <gd32_i2c_read+0x64>
 8004f66:	f240 5102 	movw	r1, #1282	; 0x502
 8004f6a:	4630      	mov	r0, r6
 8004f6c:	f000 ff80 	bl	8005e70 <i2c_flag_get>
 8004f70:	2800      	cmp	r0, #0
 8004f72:	d0f5      	beq.n	8004f60 <gd32_i2c_read+0x118>
 8004f74:	4630      	mov	r0, r6
 8004f76:	f000 ff71 	bl	8005e5c <i2c_stop_on_bus>
 8004f7a:	e7c8      	b.n	8004f0e <gd32_i2c_read+0xc6>
 8004f7c:	3b01      	subs	r3, #1
 8004f7e:	d1db      	bne.n	8004f38 <gd32_i2c_read+0xf0>
 8004f80:	e796      	b.n	8004eb0 <gd32_i2c_read+0x68>
 8004f82:	bf00      	nop
 8004f84:	40005400 	andmi	r5, r0, r0, lsl #8
 8004f88:	200039c8 	andcs	r3, r0, r8, asr #19
 8004f8c:	40005000 	andmi	r5, r0, r0

08004f90 <gd32_uart_begin>:
 8004f90:	b5f8      	push	{r3, r4, r5, r6, r7, lr}
 8004f92:	461e      	mov	r6, r3
 8004f94:	4b80      	ldr	r3, [pc, #512]	; (8005198 <gd32_uart_begin+0x208>)
 8004f96:	4604      	mov	r4, r0
 8004f98:	4298      	cmp	r0, r3
 8004f9a:	460f      	mov	r7, r1
 8004f9c:	4615      	mov	r5, r2
 8004f9e:	d05b      	beq.n	8005058 <gd32_uart_begin+0xc8>
 8004fa0:	d80b      	bhi.n	8004fba <gd32_uart_begin+0x2a>
 8004fa2:	f5a3 5330 	sub.w	r3, r3, #11264	; 0x2c00
 8004fa6:	4298      	cmp	r0, r3
 8004fa8:	d045      	beq.n	8005036 <gd32_uart_begin+0xa6>
 8004faa:	d84b      	bhi.n	8005044 <gd32_uart_begin+0xb4>
 8004fac:	f5a3 6300 	sub.w	r3, r3, #2048	; 0x800
 8004fb0:	4298      	cmp	r0, r3
 8004fb2:	d039      	beq.n	8005028 <gd32_uart_begin+0x98>
 8004fb4:	f240 7012 	movw	r0, #1810	; 0x712
 8004fb8:	e038      	b.n	800502c <gd32_uart_begin+0x9c>
 8004fba:	4b78      	ldr	r3, [pc, #480]	; (800519c <gd32_uart_begin+0x20c>)
 8004fbc:	4298      	cmp	r0, r3
 8004fbe:	d006      	beq.n	8004fce <gd32_uart_begin+0x3e>
 8004fc0:	f503 5360 	add.w	r3, r3, #14336	; 0x3800
 8004fc4:	4298      	cmp	r0, r3
 8004fc6:	d044      	beq.n	8005052 <gd32_uart_begin+0xc2>
 8004fc8:	f641 201f 	movw	r0, #6687	; 0x1a1f
 8004fcc:	e046      	b.n	800505c <gd32_uart_begin+0xcc>
 8004fce:	f240 600e 	movw	r0, #1550	; 0x60e
 8004fd2:	f7ff fabf 	bl	8004554 <rcu_periph_clock_enable>
 8004fd6:	f240 6002 	movw	r0, #1538	; 0x602
 8004fda:	f7ff fabb 	bl	8004554 <rcu_periph_clock_enable>
 8004fde:	f44f 60c0 	mov.w	r0, #1536	; 0x600
 8004fe2:	f7ff fab7 	bl	8004554 <rcu_periph_clock_enable>
 8004fe6:	4b6c      	ldr	r3, [pc, #432]	; (8005198 <gd32_uart_begin+0x208>)
 8004fe8:	429c      	cmp	r4, r3
 8004fea:	f000 80c4 	beq.w	8005176 <gd32_uart_begin+0x1e6>
 8004fee:	d83a      	bhi.n	8005066 <gd32_uart_begin+0xd6>
 8004ff0:	f5a3 5330 	sub.w	r3, r3, #11264	; 0x2c00
 8004ff4:	429c      	cmp	r4, r3
 8004ff6:	f000 809d 	beq.w	8005134 <gd32_uart_begin+0x1a4>
 8004ffa:	f200 80a8 	bhi.w	800514e <gd32_uart_begin+0x1be>
 8004ffe:	f5a3 6300 	sub.w	r3, r3, #2048	; 0x800
 8005002:	429c      	cmp	r4, r3
 8005004:	d04d      	beq.n	80050a2 <gd32_uart_begin+0x112>
 8005006:	f44f 7380 	mov.w	r3, #256	; 0x100
 800500a:	2203      	movs	r2, #3
 800500c:	2118      	movs	r1, #24
 800500e:	4864      	ldr	r0, [pc, #400]	; (80051a0 <gd32_uart_begin+0x210>)
 8005010:	f7ff fa02 	bl	8004418 <gpio_init>
 8005014:	2104      	movs	r1, #4
 8005016:	4862      	ldr	r0, [pc, #392]	; (80051a0 <gd32_uart_begin+0x210>)
 8005018:	f44f 7300 	mov.w	r3, #512	; 0x200
 800501c:	2203      	movs	r2, #3
 800501e:	f7ff f9fb 	bl	8004418 <gpio_init>
 8005022:	2101      	movs	r1, #1
 8005024:	485f      	ldr	r0, [pc, #380]	; (80051a4 <gd32_uart_begin+0x214>)
 8005026:	e04a      	b.n	80050be <gd32_uart_begin+0x12e>
 8005028:	f240 7011 	movw	r0, #1809	; 0x711
 800502c:	f7ff fa92 	bl	8004554 <rcu_periph_clock_enable>
 8005030:	f240 6005 	movw	r0, #1541	; 0x605
 8005034:	e7d1      	b.n	8004fda <gd32_uart_begin+0x4a>
 8005036:	f240 7013 	movw	r0, #1811	; 0x713
 800503a:	f7ff fa8b 	bl	8004554 <rcu_periph_clock_enable>
 800503e:	f240 6004 	movw	r0, #1540	; 0x604
 8005042:	e7ca      	b.n	8004fda <gd32_uart_begin+0x4a>
 8005044:	f240 7014 	movw	r0, #1812	; 0x714
 8005048:	f7ff fa84 	bl	8004554 <rcu_periph_clock_enable>
 800504c:	f240 6004 	movw	r0, #1540	; 0x604
 8005050:	e7ec      	b.n	800502c <gd32_uart_begin+0x9c>
 8005052:	f641 1018 	movw	r0, #6424	; 0x1918
 8005056:	e7f0      	b.n	800503a <gd32_uart_begin+0xaa>
 8005058:	f641 201e 	movw	r0, #6686	; 0x1a1e
 800505c:	f7ff fa7a 	bl	8004554 <rcu_periph_clock_enable>
 8005060:	f240 6006 	movw	r0, #1542	; 0x606
 8005064:	e7b9      	b.n	8004fda <gd32_uart_begin+0x4a>
 8005066:	4b4d      	ldr	r3, [pc, #308]	; (800519c <gd32_uart_begin+0x20c>)
 8005068:	429c      	cmp	r4, r3
 800506a:	d00b      	beq.n	8005084 <gd32_uart_begin+0xf4>
 800506c:	f503 5360 	add.w	r3, r3, #14336	; 0x3800
 8005070:	429c      	cmp	r4, r3
 8005072:	d078      	beq.n	8005166 <gd32_uart_begin+0x1d6>
 8005074:	2302      	movs	r3, #2
 8005076:	2203      	movs	r2, #3
 8005078:	2118      	movs	r1, #24
 800507a:	484b      	ldr	r0, [pc, #300]	; (80051a8 <gd32_uart_begin+0x218>)
 800507c:	f7ff f9cc 	bl	8004418 <gpio_init>
 8005080:	2301      	movs	r3, #1
 8005082:	e080      	b.n	8005186 <gd32_uart_begin+0x1f6>
 8005084:	f44f 7300 	mov.w	r3, #512	; 0x200
 8005088:	2203      	movs	r2, #3
 800508a:	2118      	movs	r1, #24
 800508c:	4847      	ldr	r0, [pc, #284]	; (80051ac <gd32_uart_begin+0x21c>)
 800508e:	f7ff f9c3 	bl	8004418 <gpio_init>
 8005092:	f44f 6380 	mov.w	r3, #1024	; 0x400
 8005096:	2203      	movs	r2, #3
 8005098:	2104      	movs	r1, #4
 800509a:	4844      	ldr	r0, [pc, #272]	; (80051ac <gd32_uart_begin+0x21c>)
 800509c:	f7ff f9bc 	bl	8004418 <gpio_init>
 80050a0:	e00f      	b.n	80050c2 <gd32_uart_begin+0x132>
 80050a2:	2320      	movs	r3, #32
 80050a4:	2203      	movs	r2, #3
 80050a6:	2118      	movs	r1, #24
 80050a8:	483d      	ldr	r0, [pc, #244]	; (80051a0 <gd32_uart_begin+0x210>)
 80050aa:	f7ff f9b5 	bl	8004418 <gpio_init>
 80050ae:	2104      	movs	r1, #4
 80050b0:	483b      	ldr	r0, [pc, #236]	; (80051a0 <gd32_uart_begin+0x210>)
 80050b2:	2340      	movs	r3, #64	; 0x40
 80050b4:	2203      	movs	r2, #3
 80050b6:	f7ff f9af 	bl	8004418 <gpio_init>
 80050ba:	2101      	movs	r1, #1
 80050bc:	2008      	movs	r0, #8
 80050be:	f7ff fa05 	bl	80044cc <gpio_pin_remap_config>
 80050c2:	4620      	mov	r0, r4
 80050c4:	f7ff fcd2 	bl	8004a6c <usart_deinit>
 80050c8:	68e3      	ldr	r3, [r4, #12]
 80050ca:	4639      	mov	r1, r7
 80050cc:	f423 5300 	bic.w	r3, r3, #8192	; 0x2000
 80050d0:	4620      	mov	r0, r4
 80050d2:	60e3      	str	r3, [r4, #12]
 80050d4:	f7ff fd2c 	bl	8004b30 <usart_baudrate_set>
 80050d8:	f1a5 0309 	sub.w	r3, r5, #9
 80050dc:	4259      	negs	r1, r3
 80050de:	4159      	adcs	r1, r3
 80050e0:	4620      	mov	r0, r4
 80050e2:	0309      	lsls	r1, r1, #12
 80050e4:	f7ff fd60 	bl	8004ba8 <usart_word_length_set>
 80050e8:	9906      	ldr	r1, [sp, #24]
 80050ea:	4620      	mov	r0, r4
 80050ec:	1e8a      	subs	r2, r1, #2
 80050ee:	4251      	negs	r1, r2
 80050f0:	4151      	adcs	r1, r2
 80050f2:	0349      	lsls	r1, r1, #13
 80050f4:	f7ff fd60 	bl	8004bb8 <usart_stop_bit_set>
 80050f8:	2e01      	cmp	r6, #1
 80050fa:	d048      	beq.n	800518e <gd32_uart_begin+0x1fe>
 80050fc:	2e02      	cmp	r6, #2
 80050fe:	d149      	bne.n	8005194 <gd32_uart_begin+0x204>
 8005100:	f44f 6180 	mov.w	r1, #1024	; 0x400
 8005104:	4620      	mov	r0, r4
 8005106:	f7ff fd47 	bl	8004b98 <usart_parity_config>
 800510a:	2100      	movs	r1, #0
 800510c:	4620      	mov	r0, r4
 800510e:	f7ff fd67 	bl	8004be0 <usart_hardware_flow_rts_config>
 8005112:	2100      	movs	r1, #0
 8005114:	4620      	mov	r0, r4
 8005116:	f7ff fd69 	bl	8004bec <usart_hardware_flow_cts_config>
 800511a:	2104      	movs	r1, #4
 800511c:	4620      	mov	r0, r4
 800511e:	f7ff fd59 	bl	8004bd4 <usart_receive_config>
 8005122:	2108      	movs	r1, #8
 8005124:	4620      	mov	r0, r4
 8005126:	f7ff fd4f 	bl	8004bc8 <usart_transmit_config>
 800512a:	68e3      	ldr	r3, [r4, #12]
 800512c:	f443 5300 	orr.w	r3, r3, #8192	; 0x2000
 8005130:	60e3      	str	r3, [r4, #12]
 8005132:	bdf8      	pop	{r3, r4, r5, r6, r7, pc}
 8005134:	f44f 6380 	mov.w	r3, #1024	; 0x400
 8005138:	2203      	movs	r2, #3
 800513a:	2118      	movs	r1, #24
 800513c:	481c      	ldr	r0, [pc, #112]	; (80051b0 <gd32_uart_begin+0x220>)
 800513e:	f7ff f96b 	bl	8004418 <gpio_init>
 8005142:	f44f 6300 	mov.w	r3, #2048	; 0x800
 8005146:	2203      	movs	r2, #3
 8005148:	2104      	movs	r1, #4
 800514a:	4819      	ldr	r0, [pc, #100]	; (80051b0 <gd32_uart_begin+0x220>)
 800514c:	e7a6      	b.n	800509c <gd32_uart_begin+0x10c>
 800514e:	f44f 5380 	mov.w	r3, #4096	; 0x1000
 8005152:	2203      	movs	r2, #3
 8005154:	2118      	movs	r1, #24
 8005156:	4816      	ldr	r0, [pc, #88]	; (80051b0 <gd32_uart_begin+0x220>)
 8005158:	f7ff f95e 	bl	8004418 <gpio_init>
 800515c:	2304      	movs	r3, #4
 800515e:	2203      	movs	r2, #3
 8005160:	4619      	mov	r1, r3
 8005162:	480f      	ldr	r0, [pc, #60]	; (80051a0 <gd32_uart_begin+0x210>)
 8005164:	e79a      	b.n	800509c <gd32_uart_begin+0x10c>
 8005166:	2340      	movs	r3, #64	; 0x40
 8005168:	2203      	movs	r2, #3
 800516a:	2118      	movs	r1, #24
 800516c:	4810      	ldr	r0, [pc, #64]	; (80051b0 <gd32_uart_begin+0x220>)
 800516e:	f7ff f953 	bl	8004418 <gpio_init>
 8005172:	2380      	movs	r3, #128	; 0x80
 8005174:	e7e7      	b.n	8005146 <gd32_uart_begin+0x1b6>
 8005176:	f44f 7380 	mov.w	r3, #256	; 0x100
 800517a:	2203      	movs	r2, #3
 800517c:	2118      	movs	r1, #24
 800517e:	480a      	ldr	r0, [pc, #40]	; (80051a8 <gd32_uart_begin+0x218>)
 8005180:	f7ff f94a 	bl	8004418 <gpio_init>
 8005184:	2380      	movs	r3, #128	; 0x80
 8005186:	2203      	movs	r2, #3
 8005188:	2104      	movs	r1, #4
 800518a:	4807      	ldr	r0, [pc, #28]	; (80051a8 <gd32_uart_begin+0x218>)
 800518c:	e786      	b.n	800509c <gd32_uart_begin+0x10c>
 800518e:	f44f 61c0 	mov.w	r1, #1536	; 0x600
 8005192:	e7b7      	b.n	8005104 <gd32_uart_begin+0x174>
 8005194:	2100      	movs	r1, #0
 8005196:	e7b5      	b.n	8005104 <gd32_uart_begin+0x174>
 8005198:	40007800 	andmi	r7, r0, r0, lsl #16
 800519c:	40013800 	andmi	r3, r1, r0, lsl #16
 80051a0:	40011400 	andmi	r1, r1, r0, lsl #8
 80051a4:	00140030 	andseq	r0, r4, r0, lsr r0
 80051a8:	40011800 	andmi	r1, r1, r0, lsl #16
 80051ac:	40010800 	andmi	r0, r1, r0, lsl #16
 80051b0:	40011000 	andmi	r1, r1, r0

080051b4 <micros_init()>:
 80051b4:	b57f      	push	{r0, r1, r2, r3, r4, r5, r6, lr}
 80051b6:	2400      	movs	r4, #0
 80051b8:	f04f 36ff 	mov.w	r6, #4294967295	; 0xffffffff
 80051bc:	4d22      	ldr	r5, [pc, #136]	; (8005248 <micros_init()+0x94>)
 80051be:	f240 6013 	movw	r0, #1555	; 0x613
 80051c2:	f7ff f9c7 	bl	8004554 <rcu_periph_clock_enable>
 80051c6:	4628      	mov	r0, r5
 80051c8:	f7ff fb28 	bl	800481c <timer_deinit>
 80051cc:	4b1f      	ldr	r3, [pc, #124]	; (800524c <micros_init()+0x98>)
 80051ce:	4628      	mov	r0, r5
 80051d0:	f8c3 4c24 	str.w	r4, [r3, #3108]	; 0xc24
 80051d4:	4669      	mov	r1, sp
 80051d6:	9400      	str	r4, [sp, #0]
 80051d8:	f8ad 4004 	strh.w	r4, [sp, #4]
 80051dc:	9602      	str	r6, [sp, #8]
 80051de:	f8ad 400c 	strh.w	r4, [sp, #12]
 80051e2:	f7ff fbc1 	bl	8004968 <timer_init>
 80051e6:	4628      	mov	r0, r5
 80051e8:	4621      	mov	r1, r4
 80051ea:	f7ff fc32 	bl	8004a52 <timer_master_slave_mode_config>
 80051ee:	4628      	mov	r0, r5
 80051f0:	2107      	movs	r1, #7
 80051f2:	f7ff fc26 	bl	8004a42 <timer_slave_mode_select>
 80051f6:	2120      	movs	r1, #32
 80051f8:	4628      	mov	r0, r5
 80051fa:	f7ff fc12 	bl	8004a22 <timer_input_trigger_source_select>
 80051fe:	4628      	mov	r0, r5
 8005200:	f7ff fc0a 	bl	8004a18 <timer_enable>
 8005204:	f505 6580 	add.w	r5, r5, #1024	; 0x400
 8005208:	f240 6014 	movw	r0, #1556	; 0x614
 800520c:	f7ff f9a2 	bl	8004554 <rcu_periph_clock_enable>
 8005210:	4628      	mov	r0, r5
 8005212:	f7ff fb03 	bl	800481c <timer_deinit>
 8005216:	2377      	movs	r3, #119	; 0x77
 8005218:	626c      	str	r4, [r5, #36]	; 0x24
 800521a:	4669      	mov	r1, sp
 800521c:	4628      	mov	r0, r5
 800521e:	9300      	str	r3, [sp, #0]
 8005220:	f8ad 4004 	strh.w	r4, [sp, #4]
 8005224:	9602      	str	r6, [sp, #8]
 8005226:	f8ad 400c 	strh.w	r4, [sp, #12]
 800522a:	f7ff fb9d 	bl	8004968 <timer_init>
 800522e:	4621      	mov	r1, r4
 8005230:	4628      	mov	r0, r5
 8005232:	f7ff fc0e 	bl	8004a52 <timer_master_slave_mode_config>
 8005236:	2120      	movs	r1, #32
 8005238:	4628      	mov	r0, r5
 800523a:	f7ff fbfa 	bl	8004a32 <timer_master_output_trigger_source_select>
 800523e:	4628      	mov	r0, r5
 8005240:	f7ff fbea 	bl	8004a18 <timer_enable>
 8005244:	b004      	add	sp, #16
 8005246:	bd70      	pop	{r4, r5, r6, pc}
 8005248:	40014c00 	andmi	r4, r1, r0, lsl #24
 800524c:	40014000 	andmi	r4, r1, r0

08005250 <udelay_init()>:
 8005250:	4a07      	ldr	r2, [pc, #28]	; (8005270 <udelay_init()+0x20>)
 8005252:	f8d2 30fc 	ldr.w	r3, [r2, #252]	; 0xfc
 8005256:	f043 7380 	orr.w	r3, r3, #16777216	; 0x1000000
 800525a:	f8c2 30fc 	str.w	r3, [r2, #252]	; 0xfc
 800525e:	2200      	movs	r2, #0
 8005260:	4b04      	ldr	r3, [pc, #16]	; (8005274 <udelay_init()+0x24>)
 8005262:	605a      	str	r2, [r3, #4]
 8005264:	681a      	ldr	r2, [r3, #0]
 8005266:	f042 0201 	orr.w	r2, r2, #1
 800526a:	601a      	str	r2, [r3, #0]
 800526c:	4770      	bx	lr
 800526e:	bf00      	nop
 8005270:	e000ed00 	and	lr, r0, r0, lsl #26
 8005274:	e0001000 	and	r1, r0, r0

08005278 <udelay(unsigned int, unsigned int)>:
 8005278:	2378      	movs	r3, #120	; 0x78
 800527a:	b530      	push	{r4, r5, lr}
 800527c:	4358      	muls	r0, r3
 800527e:	b909      	cbnz	r1, 8005284 <udelay(unsigned int, unsigned int)+0xc>
 8005280:	4b08      	ldr	r3, [pc, #32]	; (80052a4 <udelay(unsigned int, unsigned int)+0x2c>)
 8005282:	6859      	ldr	r1, [r3, #4]
 8005284:	2300      	movs	r3, #0
 8005286:	4c07      	ldr	r4, [pc, #28]	; (80052a4 <udelay(unsigned int, unsigned int)+0x2c>)
 8005288:	6862      	ldr	r2, [r4, #4]
 800528a:	4291      	cmp	r1, r2
 800528c:	d0fc      	beq.n	8005288 <udelay(unsigned int, unsigned int)+0x10>
 800528e:	bf2a      	itet	cs
 8005290:	f102 35ff 	addcs.w	r5, r2, #4294967295	; 0xffffffff
 8005294:	189b      	addcc	r3, r3, r2
 8005296:	195b      	addcs	r3, r3, r5
 8005298:	1a5b      	subs	r3, r3, r1
 800529a:	4283      	cmp	r3, r0
 800529c:	d300      	bcc.n	80052a0 <udelay(unsigned int, unsigned int)+0x28>
 800529e:	bd30      	pop	{r4, r5, pc}
 80052a0:	4611      	mov	r1, r2
 80052a2:	e7f1      	b.n	8005288 <udelay(unsigned int, unsigned int)+0x10>
 80052a4:	e0001000 	and	r1, r0, r0

080052a8 <emac_start(unsigned char*)>:
 80052a8:	b538      	push	{r3, r4, r5, lr}
 80052aa:	4605      	mov	r5, r0
 80052ac:	f240 6002 	movw	r0, #1538	; 0x602
 80052b0:	f7ff f950 	bl	8004554 <rcu_periph_clock_enable>
 80052b4:	f240 6003 	movw	r0, #1539	; 0x603
 80052b8:	f7ff f94c 	bl	8004554 <rcu_periph_clock_enable>
 80052bc:	f240 6004 	movw	r0, #1540	; 0x604
 80052c0:	f7ff f948 	bl	8004554 <rcu_periph_clock_enable>
 80052c4:	f44f 60c0 	mov.w	r0, #1536	; 0x600
 80052c8:	f7ff f944 	bl	8004554 <rcu_periph_clock_enable>
 80052cc:	f44f 7380 	mov.w	r3, #256	; 0x100
 80052d0:	2203      	movs	r2, #3
 80052d2:	2118      	movs	r1, #24
 80052d4:	4841      	ldr	r0, [pc, #260]	; (80053dc <emac_start(unsigned char*)+0x134>)
 80052d6:	f7ff f89f 	bl	8004418 <gpio_init>
 80052da:	f44f 4000 	mov.w	r0, #32768	; 0x8000
 80052de:	f7ff f969 	bl	80045b4 <rcu_pll2_config>
 80052e2:	201c      	movs	r0, #28
 80052e4:	f7ff fa10 	bl	8004708 <rcu_osci_on>
 80052e8:	201c      	movs	r0, #28
 80052ea:	f7ff f99d 	bl	8004628 <rcu_osci_stab_wait>
 80052ee:	2100      	movs	r1, #0
 80052f0:	f04f 6030 	mov.w	r0, #184549376	; 0xb000000
 80052f4:	f7ff f94e 	bl	8004594 <rcu_ckout0_config>
 80052f8:	f44f 0000 	mov.w	r0, #8388608	; 0x800000
 80052fc:	f7ff f916 	bl	800452c <gpio_ethernet_phy_select>
 8005300:	2302      	movs	r3, #2
 8005302:	2203      	movs	r2, #3
 8005304:	2104      	movs	r1, #4
 8005306:	4835      	ldr	r0, [pc, #212]	; (80053dc <emac_start(unsigned char*)+0x134>)
 8005308:	f7ff f886 	bl	8004418 <gpio_init>
 800530c:	2304      	movs	r3, #4
 800530e:	2203      	movs	r2, #3
 8005310:	2118      	movs	r1, #24
 8005312:	4832      	ldr	r0, [pc, #200]	; (80053dc <emac_start(unsigned char*)+0x134>)
 8005314:	f7ff f880 	bl	8004418 <gpio_init>
 8005318:	2380      	movs	r3, #128	; 0x80
 800531a:	2203      	movs	r2, #3
 800531c:	2104      	movs	r1, #4
 800531e:	482f      	ldr	r0, [pc, #188]	; (80053dc <emac_start(unsigned char*)+0x134>)
 8005320:	f7ff f87a 	bl	8004418 <gpio_init>
 8005324:	2302      	movs	r3, #2
 8005326:	2203      	movs	r2, #3
 8005328:	2118      	movs	r1, #24
 800532a:	482d      	ldr	r0, [pc, #180]	; (80053e0 <emac_start(unsigned char*)+0x138>)
 800532c:	f7ff f874 	bl	8004418 <gpio_init>
 8005330:	2310      	movs	r3, #16
 8005332:	2203      	movs	r2, #3
 8005334:	2104      	movs	r1, #4
 8005336:	482a      	ldr	r0, [pc, #168]	; (80053e0 <emac_start(unsigned char*)+0x138>)
 8005338:	f7ff f86e 	bl	8004418 <gpio_init>
 800533c:	2320      	movs	r3, #32
 800533e:	2203      	movs	r2, #3
 8005340:	2104      	movs	r1, #4
 8005342:	4827      	ldr	r0, [pc, #156]	; (80053e0 <emac_start(unsigned char*)+0x138>)
 8005344:	f7ff f868 	bl	8004418 <gpio_init>
 8005348:	f44f 6300 	mov.w	r3, #2048	; 0x800
 800534c:	2203      	movs	r2, #3
 800534e:	2118      	movs	r1, #24
 8005350:	4824      	ldr	r0, [pc, #144]	; (80053e4 <emac_start(unsigned char*)+0x13c>)
 8005352:	f7ff f861 	bl	8004418 <gpio_init>
 8005356:	f44f 5380 	mov.w	r3, #4096	; 0x1000
 800535a:	2203      	movs	r2, #3
 800535c:	2118      	movs	r1, #24
 800535e:	4821      	ldr	r0, [pc, #132]	; (80053e4 <emac_start(unsigned char*)+0x13c>)
 8005360:	f7ff f85a 	bl	8004418 <gpio_init>
 8005364:	f44f 5300 	mov.w	r3, #8192	; 0x2000
 8005368:	2203      	movs	r2, #3
 800536a:	2118      	movs	r1, #24
 800536c:	481d      	ldr	r0, [pc, #116]	; (80053e4 <emac_start(unsigned char*)+0x13c>)
 800536e:	f7ff f853 	bl	8004418 <gpio_init>
 8005372:	f240 500e 	movw	r0, #1294	; 0x50e
 8005376:	f7ff f8ed 	bl	8004554 <rcu_periph_clock_enable>
 800537a:	f240 500f 	movw	r0, #1295	; 0x50f
 800537e:	f7ff f8e9 	bl	8004554 <rcu_periph_clock_enable>
 8005382:	f44f 60a2 	mov.w	r0, #1296	; 0x510
 8005386:	f7ff f8e5 	bl	8004554 <rcu_periph_clock_enable>
 800538a:	f000 fcd3 	bl	8005d34 <enet_deinit>
 800538e:	f000 f933 	bl	80055f8 <enet_software_reset>
 8005392:	4604      	mov	r4, r0
 8005394:	b138      	cbz	r0, 80053a6 <emac_start(unsigned char*)+0xfe>
 8005396:	f04f 4200 	mov.w	r2, #2147483648	; 0x80000000
 800539a:	f44f 6180 	mov.w	r1, #1024	; 0x400
 800539e:	2001      	movs	r0, #1
 80053a0:	f000 faaa 	bl	80058f8 <enet_init>
 80053a4:	4604      	mov	r4, r0
 80053a6:	4628      	mov	r0, r5
 80053a8:	f000 fd80 	bl	8005eac <mac_address_get(unsigned char*)>
 80053ac:	4629      	mov	r1, r5
 80053ae:	2000      	movs	r0, #0
 80053b0:	f000 fa02 	bl	80057b8 <enet_mac_address_set>
 80053b4:	f44f 00e0 	mov.w	r0, #7340032	; 0x700000
 80053b8:	f000 f932 	bl	8005620 <enet_descriptors_chain_init>
 80053bc:	f44f 2060 	mov.w	r0, #917504	; 0xe0000
 80053c0:	f000 f92e 	bl	8005620 <enet_descriptors_chain_init>
 80053c4:	f44f 0140 	mov.w	r1, #12582912	; 0xc00000
 80053c8:	4807      	ldr	r0, [pc, #28]	; (80053e8 <emac_start(unsigned char*)+0x140>)
 80053ca:	f000 f9ef 	bl	80057ac <enet_transmit_checksum_config>
 80053ce:	f000 fc29 	bl	8005c24 <enet_enable>
 80053d2:	fab4 f084 	clz	r0, r4
 80053d6:	0940      	lsrs	r0, r0, #5
 80053d8:	4240      	negs	r0, r0
 80053da:	bd38      	pop	{r3, r4, r5, pc}
 80053dc:	40010800 	andmi	r0, r1, r0, lsl #16
 80053e0:	40011000 	andmi	r1, r1, r0
 80053e4:	40010c00 	andmi	r0, r1, r0, lsl #24
 80053e8:	20004c14 	andcs	r4, r0, r4, lsl ip

080053ec <net::link_register_read()>:
 80053ec:	b507      	push	{r0, r1, r2, lr}
 80053ee:	2201      	movs	r2, #1
 80053f0:	f10d 0306 	add.w	r3, sp, #6
 80053f4:	4611      	mov	r1, r2
 80053f6:	2000      	movs	r0, #0
 80053f8:	f000 f9f6 	bl	80057e8 <enet_phy_write_read>
 80053fc:	f8bd 0006 	ldrh.w	r0, [sp, #6]
 8005400:	f080 0004 	eor.w	r0, r0, #4
 8005404:	f3c0 0080 	ubfx	r0, r0, #2, #1
 8005408:	b003      	add	sp, #12
 800540a:	f85d fb04 	ldr.w	pc, [sp], #4
	...

08005410 <adc_mode_config>:
 8005410:	4b06      	ldr	r3, [pc, #24]	; (800542c <adc_mode_config+0x1c>)
 8005412:	f8d3 2404 	ldr.w	r2, [r3, #1028]	; 0x404
 8005416:	f422 2270 	bic.w	r2, r2, #983040	; 0xf0000
 800541a:	f8c3 2404 	str.w	r2, [r3, #1028]	; 0x404
 800541e:	f8d3 2404 	ldr.w	r2, [r3, #1028]	; 0x404
 8005422:	4302      	orrs	r2, r0
 8005424:	f8c3 2404 	str.w	r2, [r3, #1028]	; 0x404
 8005428:	4770      	bx	lr
 800542a:	bf00      	nop
 800542c:	40012000 	andmi	r2, r1, r0

08005430 <adc_special_function_config>:
 8005430:	b510      	push	{r4, lr}
 8005432:	f401 7380 	and.w	r3, r1, #256	; 0x100
 8005436:	f401 6480 	and.w	r4, r1, #1024	; 0x400
 800543a:	f001 0102 	and.w	r1, r1, #2
 800543e:	b17a      	cbz	r2, 8005460 <adc_special_function_config+0x30>
 8005440:	b11b      	cbz	r3, 800544a <adc_special_function_config+0x1a>
 8005442:	6843      	ldr	r3, [r0, #4]
 8005444:	f443 7380 	orr.w	r3, r3, #256	; 0x100
 8005448:	6043      	str	r3, [r0, #4]
 800544a:	b11c      	cbz	r4, 8005454 <adc_special_function_config+0x24>
 800544c:	6843      	ldr	r3, [r0, #4]
 800544e:	f443 6380 	orr.w	r3, r3, #1024	; 0x400
 8005452:	6043      	str	r3, [r0, #4]
 8005454:	b119      	cbz	r1, 800545e <adc_special_function_config+0x2e>
 8005456:	6883      	ldr	r3, [r0, #8]
 8005458:	f043 0302 	orr.w	r3, r3, #2
 800545c:	6083      	str	r3, [r0, #8]
 800545e:	bd10      	pop	{r4, pc}
 8005460:	b11b      	cbz	r3, 800546a <adc_special_function_config+0x3a>
 8005462:	6843      	ldr	r3, [r0, #4]
 8005464:	f423 7380 	bic.w	r3, r3, #256	; 0x100
 8005468:	6043      	str	r3, [r0, #4]
 800546a:	b11c      	cbz	r4, 8005474 <adc_special_function_config+0x44>
 800546c:	6843      	ldr	r3, [r0, #4]
 800546e:	f423 6380 	bic.w	r3, r3, #1024	; 0x400
 8005472:	6043      	str	r3, [r0, #4]
 8005474:	2900      	cmp	r1, #0
 8005476:	d0f2      	beq.n	800545e <adc_special_function_config+0x2e>
 8005478:	6883      	ldr	r3, [r0, #8]
 800547a:	f023 0302 	bic.w	r3, r3, #2
 800547e:	e7ed      	b.n	800545c <adc_special_function_config+0x2c>

08005480 <adc_data_alignment_config>:
 8005480:	6883      	ldr	r3, [r0, #8]
 8005482:	b119      	cbz	r1, 800548c <adc_data_alignment_config+0xc>
 8005484:	f443 6300 	orr.w	r3, r3, #2048	; 0x800
 8005488:	6083      	str	r3, [r0, #8]
 800548a:	4770      	bx	lr
 800548c:	f423 6300 	bic.w	r3, r3, #2048	; 0x800
 8005490:	e7fa      	b.n	8005488 <adc_data_alignment_config+0x8>

08005492 <adc_enable>:
 8005492:	6883      	ldr	r3, [r0, #8]
 8005494:	07db      	lsls	r3, r3, #31
 8005496:	bf5e      	ittt	pl
 8005498:	6883      	ldrpl	r3, [r0, #8]
 800549a:	f043 0301 	orrpl.w	r3, r3, #1
 800549e:	6083      	strpl	r3, [r0, #8]
 80054a0:	4770      	bx	lr

080054a2 <adc_calibration_enable>:
 80054a2:	6883      	ldr	r3, [r0, #8]
 80054a4:	f100 0208 	add.w	r2, r0, #8
 80054a8:	f043 0308 	orr.w	r3, r3, #8
 80054ac:	6083      	str	r3, [r0, #8]
 80054ae:	6813      	ldr	r3, [r2, #0]
 80054b0:	0719      	lsls	r1, r3, #28
 80054b2:	d4fc      	bmi.n	80054ae <adc_calibration_enable+0xc>
 80054b4:	6883      	ldr	r3, [r0, #8]
 80054b6:	f043 0304 	orr.w	r3, r3, #4
 80054ba:	6083      	str	r3, [r0, #8]
 80054bc:	6813      	ldr	r3, [r2, #0]
 80054be:	075b      	lsls	r3, r3, #29
 80054c0:	d4fc      	bmi.n	80054bc <adc_calibration_enable+0x1a>
 80054c2:	4770      	bx	lr

080054c4 <adc_tempsensor_vrefint_enable>:
 80054c4:	4a03      	ldr	r2, [pc, #12]	; (80054d4 <adc_tempsensor_vrefint_enable+0x10>)
 80054c6:	f8d2 3408 	ldr.w	r3, [r2, #1032]	; 0x408
 80054ca:	f443 0300 	orr.w	r3, r3, #8388608	; 0x800000
 80054ce:	f8c2 3408 	str.w	r3, [r2, #1032]	; 0x408
 80054d2:	4770      	bx	lr
 80054d4:	40012000 	andmi	r2, r1, r0

080054d8 <adc_channel_length_config>:
 80054d8:	2901      	cmp	r1, #1
 80054da:	d002      	beq.n	80054e2 <adc_channel_length_config+0xa>
 80054dc:	2902      	cmp	r1, #2
 80054de:	d00c      	beq.n	80054fa <adc_channel_length_config+0x22>
 80054e0:	4770      	bx	lr
 80054e2:	6ac3      	ldr	r3, [r0, #44]	; 0x2c
 80054e4:	3a01      	subs	r2, #1
 80054e6:	f423 0370 	bic.w	r3, r3, #15728640	; 0xf00000
 80054ea:	62c3      	str	r3, [r0, #44]	; 0x2c
 80054ec:	6ac3      	ldr	r3, [r0, #44]	; 0x2c
 80054ee:	0512      	lsls	r2, r2, #20
 80054f0:	f402 0270 	and.w	r2, r2, #15728640	; 0xf00000
 80054f4:	431a      	orrs	r2, r3
 80054f6:	62c2      	str	r2, [r0, #44]	; 0x2c
 80054f8:	4770      	bx	lr
 80054fa:	6b83      	ldr	r3, [r0, #56]	; 0x38
 80054fc:	3a01      	subs	r2, #1
 80054fe:	f423 1340 	bic.w	r3, r3, #3145728	; 0x300000
 8005502:	6383      	str	r3, [r0, #56]	; 0x38
 8005504:	6b83      	ldr	r3, [r0, #56]	; 0x38
 8005506:	0512      	lsls	r2, r2, #20
 8005508:	f402 1240 	and.w	r2, r2, #3145728	; 0x300000
 800550c:	431a      	orrs	r2, r3
 800550e:	6382      	str	r2, [r0, #56]	; 0x38
 8005510:	4770      	bx	lr

08005512 <adc_inserted_channel_config>:
 8005512:	b530      	push	{r4, r5, lr}
 8005514:	6b84      	ldr	r4, [r0, #56]	; 0x38
 8005516:	6b85      	ldr	r5, [r0, #56]	; 0x38
 8005518:	f3c4 5401 	ubfx	r4, r4, #20, #2
 800551c:	1a61      	subs	r1, r4, r1
 800551e:	f06f 0404 	mvn.w	r4, #4
 8005522:	4361      	muls	r1, r4
 8005524:	241f      	movs	r4, #31
 8005526:	310f      	adds	r1, #15
 8005528:	408c      	lsls	r4, r1
 800552a:	ea25 0504 	bic.w	r5, r5, r4
 800552e:	fa02 f101 	lsl.w	r1, r2, r1
 8005532:	4329      	orrs	r1, r5
 8005534:	2a09      	cmp	r2, #9
 8005536:	6381      	str	r1, [r0, #56]	; 0x38
 8005538:	d80b      	bhi.n	8005552 <adc_inserted_channel_config+0x40>
 800553a:	2407      	movs	r4, #7
 800553c:	6901      	ldr	r1, [r0, #16]
 800553e:	eb02 0242 	add.w	r2, r2, r2, lsl #1
 8005542:	4094      	lsls	r4, r2
 8005544:	ea21 0104 	bic.w	r1, r1, r4
 8005548:	fa03 f202 	lsl.w	r2, r3, r2
 800554c:	430a      	orrs	r2, r1
 800554e:	6102      	str	r2, [r0, #16]
 8005550:	bd30      	pop	{r4, r5, pc}
 8005552:	2a11      	cmp	r2, #17
 8005554:	d8fc      	bhi.n	8005550 <adc_inserted_channel_config+0x3e>
 8005556:	2407      	movs	r4, #7
 8005558:	3a0a      	subs	r2, #10
 800555a:	68c1      	ldr	r1, [r0, #12]
 800555c:	eb02 0242 	add.w	r2, r2, r2, lsl #1
 8005560:	4094      	lsls	r4, r2
 8005562:	ea21 0104 	bic.w	r1, r1, r4
 8005566:	4093      	lsls	r3, r2
 8005568:	430b      	orrs	r3, r1
 800556a:	60c3      	str	r3, [r0, #12]
 800556c:	e7f0      	b.n	8005550 <adc_inserted_channel_config+0x3e>

0800556e <adc_external_trigger_source_config>:
 800556e:	2901      	cmp	r1, #1
 8005570:	d002      	beq.n	8005578 <adc_external_trigger_source_config+0xa>
 8005572:	2902      	cmp	r1, #2
 8005574:	d008      	beq.n	8005588 <adc_external_trigger_source_config+0x1a>
 8005576:	4770      	bx	lr
 8005578:	6883      	ldr	r3, [r0, #8]
 800557a:	f423 2360 	bic.w	r3, r3, #917504	; 0xe0000
 800557e:	6083      	str	r3, [r0, #8]
 8005580:	6883      	ldr	r3, [r0, #8]
 8005582:	4313      	orrs	r3, r2
 8005584:	6083      	str	r3, [r0, #8]
 8005586:	4770      	bx	lr
 8005588:	6883      	ldr	r3, [r0, #8]
 800558a:	f423 43e0 	bic.w	r3, r3, #28672	; 0x7000
 800558e:	e7f6      	b.n	800557e <adc_external_trigger_source_config+0x10>

08005590 <adc_external_trigger_config>:
 8005590:	f001 0301 	and.w	r3, r1, #1
 8005594:	f001 0102 	and.w	r1, r1, #2
 8005598:	b152      	cbz	r2, 80055b0 <adc_external_trigger_config+0x20>
 800559a:	b11b      	cbz	r3, 80055a4 <adc_external_trigger_config+0x14>
 800559c:	6883      	ldr	r3, [r0, #8]
 800559e:	f443 1380 	orr.w	r3, r3, #1048576	; 0x100000
 80055a2:	6083      	str	r3, [r0, #8]
 80055a4:	b119      	cbz	r1, 80055ae <adc_external_trigger_config+0x1e>
 80055a6:	6883      	ldr	r3, [r0, #8]
 80055a8:	f443 4300 	orr.w	r3, r3, #32768	; 0x8000
 80055ac:	6083      	str	r3, [r0, #8]
 80055ae:	4770      	bx	lr
 80055b0:	b11b      	cbz	r3, 80055ba <adc_external_trigger_config+0x2a>
 80055b2:	6883      	ldr	r3, [r0, #8]
 80055b4:	f423 1380 	bic.w	r3, r3, #1048576	; 0x100000
 80055b8:	6083      	str	r3, [r0, #8]
 80055ba:	2900      	cmp	r1, #0
 80055bc:	d0f7      	beq.n	80055ae <adc_external_trigger_config+0x1e>
 80055be:	6883      	ldr	r3, [r0, #8]
 80055c0:	f423 4300 	bic.w	r3, r3, #32768	; 0x8000
 80055c4:	e7f2      	b.n	80055ac <adc_external_trigger_config+0x1c>

080055c6 <adc_software_trigger_enable>:
 80055c6:	07ca      	lsls	r2, r1, #31
 80055c8:	bf42      	ittt	mi
 80055ca:	6883      	ldrmi	r3, [r0, #8]
 80055cc:	f443 0380 	orrmi.w	r3, r3, #4194304	; 0x400000
 80055d0:	6083      	strmi	r3, [r0, #8]
 80055d2:	078b      	lsls	r3, r1, #30
 80055d4:	bf42      	ittt	mi
 80055d6:	6883      	ldrmi	r3, [r0, #8]
 80055d8:	f443 1300 	orrmi.w	r3, r3, #2097152	; 0x200000
 80055dc:	6083      	strmi	r3, [r0, #8]
 80055de:	4770      	bx	lr

080055e0 <enet_delay>:
 80055e0:	2300      	movs	r3, #0
 80055e2:	b082      	sub	sp, #8
 80055e4:	9301      	str	r3, [sp, #4]
 80055e6:	9001      	str	r0, [sp, #4]
 80055e8:	9b01      	ldr	r3, [sp, #4]
 80055ea:	b90b      	cbnz	r3, 80055f0 <enet_delay+0x10>
 80055ec:	b002      	add	sp, #8
 80055ee:	4770      	bx	lr
 80055f0:	9b01      	ldr	r3, [sp, #4]
 80055f2:	3b01      	subs	r3, #1
 80055f4:	9301      	str	r3, [sp, #4]
 80055f6:	e7f7      	b.n	80055e8 <enet_delay+0x8>

080055f8 <enet_software_reset>:
 80055f8:	4b07      	ldr	r3, [pc, #28]	; (8005618 <enet_software_reset+0x20>)
 80055fa:	681a      	ldr	r2, [r3, #0]
 80055fc:	f042 0201 	orr.w	r2, r2, #1
 8005600:	601a      	str	r2, [r3, #0]
 8005602:	4a06      	ldr	r2, [pc, #24]	; (800561c <enet_software_reset+0x24>)
 8005604:	6819      	ldr	r1, [r3, #0]
 8005606:	07c9      	lsls	r1, r1, #31
 8005608:	d501      	bpl.n	800560e <enet_software_reset+0x16>
 800560a:	3a01      	subs	r2, #1
 800560c:	d1fa      	bne.n	8005604 <enet_software_reset+0xc>
 800560e:	6818      	ldr	r0, [r3, #0]
 8005610:	43c0      	mvns	r0, r0
 8005612:	f000 0001 	and.w	r0, r0, #1
 8005616:	4770      	bx	lr
 8005618:	40029000 	andmi	r9, r2, r0
 800561c:	0004ffff 	strdeq	pc, [r4], -pc	; <UNPREDICTABLE>

08005620 <enet_descriptors_chain_init>:
 8005620:	f5b0 0fe0 	cmp.w	r0, #7340032	; 0x700000
 8005624:	b570      	push	{r4, r5, r6, lr}
 8005626:	4a17      	ldr	r2, [pc, #92]	; (8005684 <enet_descriptors_chain_init+0x64>)
 8005628:	d120      	bne.n	800566c <enet_descriptors_chain_init+0x4c>
 800562a:	2100      	movs	r1, #0
 800562c:	f44f 1080 	mov.w	r0, #1048576	; 0x100000
 8005630:	2401      	movs	r4, #1
 8005632:	4b15      	ldr	r3, [pc, #84]	; (8005688 <enet_descriptors_chain_init+0x68>)
 8005634:	6113      	str	r3, [r2, #16]
 8005636:	4a15      	ldr	r2, [pc, #84]	; (800568c <enet_descriptors_chain_init+0x6c>)
 8005638:	6013      	str	r3, [r2, #0]
 800563a:	4a15      	ldr	r2, [pc, #84]	; (8005690 <enet_descriptors_chain_init+0x70>)
 800563c:	2500      	movs	r5, #0
 800563e:	4e15      	ldr	r6, [pc, #84]	; (8005694 <enet_descriptors_chain_init+0x74>)
 8005640:	2c01      	cmp	r4, #1
 8005642:	6035      	str	r5, [r6, #0]
 8005644:	4e14      	ldr	r6, [pc, #80]	; (8005698 <enet_descriptors_chain_init+0x78>)
 8005646:	609a      	str	r2, [r3, #8]
 8005648:	6035      	str	r5, [r6, #0]
 800564a:	bf0c      	ite	eq
 800564c:	461d      	moveq	r5, r3
 800564e:	f103 0510 	addne.w	r5, r3, #16
 8005652:	2c02      	cmp	r4, #2
 8005654:	bf08      	it	eq
 8005656:	f202 52f4 	addweq	r2, r2, #1524	; 0x5f4
 800565a:	e9c3 0100 	strd	r0, r1, [r3]
 800565e:	bf04      	itt	eq
 8005660:	e9c3 0104 	strdeq	r0, r1, [r3, #16]
 8005664:	e9c3 2306 	strdeq	r2, r3, [r3, #24]
 8005668:	60dd      	str	r5, [r3, #12]
 800566a:	bd70      	pop	{r4, r5, r6, pc}
 800566c:	4b0b      	ldr	r3, [pc, #44]	; (800569c <enet_descriptors_chain_init+0x7c>)
 800566e:	f244 51f4 	movw	r1, #17908	; 0x45f4
 8005672:	60d3      	str	r3, [r2, #12]
 8005674:	4a0a      	ldr	r2, [pc, #40]	; (80056a0 <enet_descriptors_chain_init+0x80>)
 8005676:	f04f 4000 	mov.w	r0, #2147483648	; 0x80000000
 800567a:	6013      	str	r3, [r2, #0]
 800567c:	2402      	movs	r4, #2
 800567e:	4a09      	ldr	r2, [pc, #36]	; (80056a4 <enet_descriptors_chain_init+0x84>)
 8005680:	e7dc      	b.n	800563c <enet_descriptors_chain_init+0x1c>
 8005682:	bf00      	nop
 8005684:	40029000 	andmi	r9, r2, r0
 8005688:	20004c14 	andcs	r4, r0, r4, lsl ip
 800568c:	200039d8 	ldrdcs	r3, [r0], -r8
 8005690:	20004620 	andcs	r4, r0, r0, lsr #12
 8005694:	200039cc 	andcs	r3, r0, ip, asr #19
 8005698:	200039d0 	ldrdcs	r3, [r0], -r0
 800569c:	20004600 	andcs	r4, r0, r0, lsl #12
 80056a0:	200039d4 	ldrdcs	r3, [r0], -r4
 80056a4:	20003a18 	andcs	r3, r0, r8, lsl sl

080056a8 <enet_frame_receive>:
 80056a8:	4a1d      	ldr	r2, [pc, #116]	; (8005720 <enet_frame_receive+0x78>)
 80056aa:	b510      	push	{r4, lr}
 80056ac:	6813      	ldr	r3, [r2, #0]
 80056ae:	681b      	ldr	r3, [r3, #0]
 80056b0:	2b00      	cmp	r3, #0
 80056b2:	db33      	blt.n	800571c <enet_frame_receive+0x74>
 80056b4:	b970      	cbnz	r0, 80056d4 <enet_frame_receive+0x2c>
 80056b6:	f04f 4100 	mov.w	r1, #2147483648	; 0x80000000
 80056ba:	6813      	ldr	r3, [r2, #0]
 80056bc:	6019      	str	r1, [r3, #0]
 80056be:	4919      	ldr	r1, [pc, #100]	; (8005724 <enet_frame_receive+0x7c>)
 80056c0:	6948      	ldr	r0, [r1, #20]
 80056c2:	0604      	lsls	r4, r0, #24
 80056c4:	d419      	bmi.n	80056fa <enet_frame_receive+0x52>
 80056c6:	6859      	ldr	r1, [r3, #4]
 80056c8:	0448      	lsls	r0, r1, #17
 80056ca:	d51b      	bpl.n	8005704 <enet_frame_receive+0x5c>
 80056cc:	68db      	ldr	r3, [r3, #12]
 80056ce:	2001      	movs	r0, #1
 80056d0:	6013      	str	r3, [r2, #0]
 80056d2:	bd10      	pop	{r4, pc}
 80056d4:	f403 4403 	and.w	r4, r3, #33536	; 0x8300
 80056d8:	f5b4 7f40 	cmp.w	r4, #768	; 0x300
 80056dc:	d11e      	bne.n	800571c <enet_frame_receive+0x74>
 80056de:	f3c3 430d 	ubfx	r3, r3, #16, #14
 80056e2:	3b04      	subs	r3, #4
 80056e4:	428b      	cmp	r3, r1
 80056e6:	d819      	bhi.n	800571c <enet_frame_receive+0x74>
 80056e8:	2100      	movs	r1, #0
 80056ea:	4299      	cmp	r1, r3
 80056ec:	6814      	ldr	r4, [r2, #0]
 80056ee:	d2e2      	bcs.n	80056b6 <enet_frame_receive+0xe>
 80056f0:	68a4      	ldr	r4, [r4, #8]
 80056f2:	5d0c      	ldrb	r4, [r1, r4]
 80056f4:	5444      	strb	r4, [r0, r1]
 80056f6:	3101      	adds	r1, #1
 80056f8:	e7f7      	b.n	80056ea <enet_frame_receive+0x42>
 80056fa:	2080      	movs	r0, #128	; 0x80
 80056fc:	6148      	str	r0, [r1, #20]
 80056fe:	2000      	movs	r0, #0
 8005700:	6088      	str	r0, [r1, #8]
 8005702:	e7e0      	b.n	80056c6 <enet_frame_receive+0x1e>
 8005704:	f411 4f00 	tst.w	r1, #32768	; 0x8000
 8005708:	4906      	ldr	r1, [pc, #24]	; (8005724 <enet_frame_receive+0x7c>)
 800570a:	bf05      	ittet	eq
 800570c:	3310      	addeq	r3, #16
 800570e:	6809      	ldreq	r1, [r1, #0]
 8005710:	68cb      	ldrne	r3, [r1, #12]
 8005712:	f3c1 0184 	ubfxeq	r1, r1, #2, #5
 8005716:	bf08      	it	eq
 8005718:	185b      	addeq	r3, r3, r1
 800571a:	e7d8      	b.n	80056ce <enet_frame_receive+0x26>
 800571c:	2000      	movs	r0, #0
 800571e:	e7d8      	b.n	80056d2 <enet_frame_receive+0x2a>
 8005720:	200039d4 	ldrdcs	r3, [r0], -r4
 8005724:	40029000 	andmi	r9, r2, r0

08005728 <enet_frame_transmit>:
 8005728:	4a1e      	ldr	r2, [pc, #120]	; (80057a4 <enet_frame_transmit+0x7c>)
 800572a:	b530      	push	{r4, r5, lr}
 800572c:	6813      	ldr	r3, [r2, #0]
 800572e:	681b      	ldr	r3, [r3, #0]
 8005730:	2b00      	cmp	r3, #0
 8005732:	db34      	blt.n	800579e <enet_frame_transmit+0x76>
 8005734:	f240 53f4 	movw	r3, #1524	; 0x5f4
 8005738:	4299      	cmp	r1, r3
 800573a:	d830      	bhi.n	800579e <enet_frame_transmit+0x76>
 800573c:	b9e8      	cbnz	r0, 800577a <enet_frame_transmit+0x52>
 800573e:	6813      	ldr	r3, [r2, #0]
 8005740:	4819      	ldr	r0, [pc, #100]	; (80057a8 <enet_frame_transmit+0x80>)
 8005742:	6059      	str	r1, [r3, #4]
 8005744:	6819      	ldr	r1, [r3, #0]
 8005746:	f041 4130 	orr.w	r1, r1, #2952790016	; 0xb0000000
 800574a:	6019      	str	r1, [r3, #0]
 800574c:	6941      	ldr	r1, [r0, #20]
 800574e:	6944      	ldr	r4, [r0, #20]
 8005750:	f001 0104 	and.w	r1, r1, #4
 8005754:	f004 0420 	and.w	r4, r4, #32
 8005758:	4321      	orrs	r1, r4
 800575a:	d110      	bne.n	800577e <enet_frame_transmit+0x56>
 800575c:	6819      	ldr	r1, [r3, #0]
 800575e:	02c8      	lsls	r0, r1, #11
 8005760:	d511      	bpl.n	8005786 <enet_frame_transmit+0x5e>
 8005762:	68db      	ldr	r3, [r3, #12]
 8005764:	2001      	movs	r0, #1
 8005766:	6013      	str	r3, [r2, #0]
 8005768:	bd30      	pop	{r4, r5, pc}
 800576a:	5cc5      	ldrb	r5, [r0, r3]
 800576c:	68a4      	ldr	r4, [r4, #8]
 800576e:	551d      	strb	r5, [r3, r4]
 8005770:	3301      	adds	r3, #1
 8005772:	428b      	cmp	r3, r1
 8005774:	6814      	ldr	r4, [r2, #0]
 8005776:	d1f8      	bne.n	800576a <enet_frame_transmit+0x42>
 8005778:	e7e1      	b.n	800573e <enet_frame_transmit+0x16>
 800577a:	2300      	movs	r3, #0
 800577c:	e7f9      	b.n	8005772 <enet_frame_transmit+0x4a>
 800577e:	6141      	str	r1, [r0, #20]
 8005780:	2100      	movs	r1, #0
 8005782:	6041      	str	r1, [r0, #4]
 8005784:	e7ea      	b.n	800575c <enet_frame_transmit+0x34>
 8005786:	f411 1f00 	tst.w	r1, #2097152	; 0x200000
 800578a:	4907      	ldr	r1, [pc, #28]	; (80057a8 <enet_frame_transmit+0x80>)
 800578c:	bf05      	ittet	eq
 800578e:	3310      	addeq	r3, #16
 8005790:	6809      	ldreq	r1, [r1, #0]
 8005792:	690b      	ldrne	r3, [r1, #16]
 8005794:	f3c1 0184 	ubfxeq	r1, r1, #2, #5
 8005798:	bf08      	it	eq
 800579a:	185b      	addeq	r3, r3, r1
 800579c:	e7e2      	b.n	8005764 <enet_frame_transmit+0x3c>
 800579e:	2000      	movs	r0, #0
 80057a0:	e7e2      	b.n	8005768 <enet_frame_transmit+0x40>
 80057a2:	bf00      	nop
 80057a4:	200039d8 	ldrdcs	r3, [r0], -r8
 80057a8:	40029000 	andmi	r9, r2, r0

080057ac <enet_transmit_checksum_config>:
 80057ac:	6803      	ldr	r3, [r0, #0]
 80057ae:	f423 0340 	bic.w	r3, r3, #12582912	; 0xc00000
 80057b2:	430b      	orrs	r3, r1
 80057b4:	6003      	str	r3, [r0, #0]
 80057b6:	4770      	bx	lr

080057b8 <enet_mac_address_set>:
 80057b8:	888a      	ldrh	r2, [r1, #4]
 80057ba:	4b03      	ldr	r3, [pc, #12]	; (80057c8 <enet_mac_address_set+0x10>)
 80057bc:	50c2      	str	r2, [r0, r3]
 80057be:	680a      	ldr	r2, [r1, #0]
 80057c0:	3304      	adds	r3, #4
 80057c2:	50c2      	str	r2, [r0, r3]
 80057c4:	4770      	bx	lr
 80057c6:	bf00      	nop
 80057c8:	40028040 	andmi	r8, r2, r0, asr #32

080057cc <enet_rx_enable>:
 80057cc:	4a05      	ldr	r2, [pc, #20]	; (80057e4 <enet_rx_enable+0x18>)
 80057ce:	6813      	ldr	r3, [r2, #0]
 80057d0:	f043 0304 	orr.w	r3, r3, #4
 80057d4:	6013      	str	r3, [r2, #0]
 80057d6:	f502 5280 	add.w	r2, r2, #4096	; 0x1000
 80057da:	6993      	ldr	r3, [r2, #24]
 80057dc:	f043 0302 	orr.w	r3, r3, #2
 80057e0:	6193      	str	r3, [r2, #24]
 80057e2:	4770      	bx	lr
 80057e4:	40028000 	andmi	r8, r2, r0

080057e8 <enet_phy_write_read>:
 80057e8:	b530      	push	{r4, r5, lr}
 80057ea:	4604      	mov	r4, r0
 80057ec:	4d13      	ldr	r5, [pc, #76]	; (800583c <enet_phy_write_read+0x54>)
 80057ee:	0192      	lsls	r2, r2, #6
 80057f0:	6928      	ldr	r0, [r5, #16]
 80057f2:	f402 62f8 	and.w	r2, r2, #1984	; 0x7c0
 80057f6:	f420 407f 	bic.w	r0, r0, #65280	; 0xff00
 80057fa:	f020 00c3 	bic.w	r0, r0, #195	; 0xc3
 80057fe:	4302      	orrs	r2, r0
 8005800:	02c9      	lsls	r1, r1, #11
 8005802:	b289      	uxth	r1, r1
 8005804:	2c02      	cmp	r4, #2
 8005806:	ea42 0204 	orr.w	r2, r2, r4
 800580a:	ea42 0201 	orr.w	r2, r2, r1
 800580e:	bf08      	it	eq
 8005810:	8819      	ldrheq	r1, [r3, #0]
 8005812:	f042 0201 	orr.w	r2, r2, #1
 8005816:	bf08      	it	eq
 8005818:	6169      	streq	r1, [r5, #20]
 800581a:	612a      	str	r2, [r5, #16]
 800581c:	4907      	ldr	r1, [pc, #28]	; (800583c <enet_phy_write_read+0x54>)
 800581e:	4a08      	ldr	r2, [pc, #32]	; (8005840 <enet_phy_write_read+0x58>)
 8005820:	6908      	ldr	r0, [r1, #16]
 8005822:	07c0      	lsls	r0, r0, #31
 8005824:	d501      	bpl.n	800582a <enet_phy_write_read+0x42>
 8005826:	3a01      	subs	r2, #1
 8005828:	d1fa      	bne.n	8005820 <enet_phy_write_read+0x38>
 800582a:	690a      	ldr	r2, [r1, #16]
 800582c:	43d2      	mvns	r2, r2
 800582e:	f002 0001 	and.w	r0, r2, #1
 8005832:	b90c      	cbnz	r4, 8005838 <enet_phy_write_read+0x50>
 8005834:	694a      	ldr	r2, [r1, #20]
 8005836:	801a      	strh	r2, [r3, #0]
 8005838:	bd30      	pop	{r4, r5, pc}
 800583a:	bf00      	nop
 800583c:	40028000 	andmi	r8, r2, r0
 8005840:	0004ffff 	strdeq	pc, [r4], -pc	; <UNPREDICTABLE>

08005844 <enet_phy_config>:
 8005844:	b537      	push	{r0, r1, r2, r4, r5, lr}
 8005846:	4d22      	ldr	r5, [pc, #136]	; (80058d0 <enet_phy_config+0x8c>)
 8005848:	2001      	movs	r0, #1
 800584a:	692c      	ldr	r4, [r5, #16]
 800584c:	f7fe ff5e 	bl	800470c <rcu_clock_freq_get>
 8005850:	4b20      	ldr	r3, [pc, #128]	; (80058d4 <enet_phy_config+0x90>)
 8005852:	4a21      	ldr	r2, [pc, #132]	; (80058d8 <enet_phy_config+0x94>)
 8005854:	4403      	add	r3, r0
 8005856:	4293      	cmp	r3, r2
 8005858:	f024 041c 	bic.w	r4, r4, #28
 800585c:	d21f      	bcs.n	800589e <enet_phy_config+0x5a>
 800585e:	f044 0408 	orr.w	r4, r4, #8
 8005862:	f44f 4300 	mov.w	r3, #32768	; 0x8000
 8005866:	612c      	str	r4, [r5, #16]
 8005868:	2200      	movs	r2, #0
 800586a:	f8ad 3006 	strh.w	r3, [sp, #6]
 800586e:	2101      	movs	r1, #1
 8005870:	2002      	movs	r0, #2
 8005872:	f10d 0306 	add.w	r3, sp, #6
 8005876:	f7ff ffb7 	bl	80057e8 <enet_phy_write_read>
 800587a:	b310      	cbz	r0, 80058c2 <enet_phy_config+0x7e>
 800587c:	2200      	movs	r2, #0
 800587e:	4817      	ldr	r0, [pc, #92]	; (80058dc <enet_phy_config+0x98>)
 8005880:	f7ff feae 	bl	80055e0 <enet_delay>
 8005884:	2101      	movs	r1, #1
 8005886:	4610      	mov	r0, r2
 8005888:	f10d 0306 	add.w	r3, sp, #6
 800588c:	f7ff ffac 	bl	80057e8 <enet_phy_write_read>
 8005890:	b1b8      	cbz	r0, 80058c2 <enet_phy_config+0x7e>
 8005892:	f8bd 0006 	ldrh.w	r0, [sp, #6]
 8005896:	43c0      	mvns	r0, r0
 8005898:	f3c0 30c0 	ubfx	r0, r0, #15, #1
 800589c:	e012      	b.n	80058c4 <enet_phy_config+0x80>
 800589e:	4b10      	ldr	r3, [pc, #64]	; (80058e0 <enet_phy_config+0x9c>)
 80058a0:	4a10      	ldr	r2, [pc, #64]	; (80058e4 <enet_phy_config+0xa0>)
 80058a2:	4403      	add	r3, r0
 80058a4:	4293      	cmp	r3, r2
 80058a6:	d802      	bhi.n	80058ae <enet_phy_config+0x6a>
 80058a8:	f044 040c 	orr.w	r4, r4, #12
 80058ac:	e7d9      	b.n	8005862 <enet_phy_config+0x1e>
 80058ae:	4b0e      	ldr	r3, [pc, #56]	; (80058e8 <enet_phy_config+0xa4>)
 80058b0:	4a0e      	ldr	r2, [pc, #56]	; (80058ec <enet_phy_config+0xa8>)
 80058b2:	4403      	add	r3, r0
 80058b4:	4293      	cmp	r3, r2
 80058b6:	d3d4      	bcc.n	8005862 <enet_phy_config+0x1e>
 80058b8:	4b0d      	ldr	r3, [pc, #52]	; (80058f0 <enet_phy_config+0xac>)
 80058ba:	4a0e      	ldr	r2, [pc, #56]	; (80058f4 <enet_phy_config+0xb0>)
 80058bc:	4403      	add	r3, r0
 80058be:	4293      	cmp	r3, r2
 80058c0:	d902      	bls.n	80058c8 <enet_phy_config+0x84>
 80058c2:	2000      	movs	r0, #0
 80058c4:	b003      	add	sp, #12
 80058c6:	bd30      	pop	{r4, r5, pc}
 80058c8:	f044 0404 	orr.w	r4, r4, #4
 80058cc:	e7c9      	b.n	8005862 <enet_phy_config+0x1e>
 80058ce:	bf00      	nop
 80058d0:	40028000 	andmi	r8, r2, r0
 80058d4:	feced300 	cdp2	3, 12, cr13, cr14, cr0, {0}
 80058d8:	00e4e1c0 	rsceq	lr, r4, r0, asr #3
 80058dc:	0004ffff 	strdeq	pc, [r4], -pc	; <UNPREDICTABLE>
 80058e0:	fde9f140 	stc2l	1, cr15, [r9, #256]!	; 0x100
 80058e4:	017d783f 	cmneq	sp, pc, lsr r8
 80058e8:	fc6c7900 	stc2l	9, cr7, [ip], #-0	; <UNPREDICTABLE>
 80058ec:	02625a00 	rsbeq	r5, r2, #0, 20
 80058f0:	fa0a1f00 	blx	828d4f8 <__exidx_end+0x286b0c>
 80058f4:	01312d00 	teqeq	r1, r0, lsl #26

080058f8 <enet_init>:
 80058f8:	2300      	movs	r3, #0
 80058fa:	b5f7      	push	{r0, r1, r2, r4, r5, r6, r7, lr}
 80058fc:	4604      	mov	r4, r0
 80058fe:	460d      	mov	r5, r1
 8005900:	4616      	mov	r6, r2
 8005902:	f8ad 3006 	strh.w	r3, [sp, #6]
 8005906:	f7ff ff9d 	bl	8005844 <enet_phy_config>
 800590a:	2800      	cmp	r0, #0
 800590c:	d039      	beq.n	8005982 <enet_init+0x8a>
 800590e:	4b3c      	ldr	r3, [pc, #240]	; (8005a00 <enet_init+0x108>)
 8005910:	4a3c      	ldr	r2, [pc, #240]	; (8005a04 <enet_init+0x10c>)
 8005912:	6819      	ldr	r1, [r3, #0]
 8005914:	f44f 50a8 	mov.w	r0, #5376	; 0x1500
 8005918:	400a      	ands	r2, r1
 800591a:	601a      	str	r2, [r3, #0]
 800591c:	2200      	movs	r2, #0
 800591e:	605a      	str	r2, [r3, #4]
 8005920:	609a      	str	r2, [r3, #8]
 8005922:	60da      	str	r2, [r3, #12]
 8005924:	6999      	ldr	r1, [r3, #24]
 8005926:	2c01      	cmp	r4, #1
 8005928:	f021 01be 	bic.w	r1, r1, #190	; 0xbe
 800592c:	ea4f 4101 	mov.w	r1, r1, lsl #16
 8005930:	ea4f 4111 	mov.w	r1, r1, lsr #16
 8005934:	f041 0180 	orr.w	r1, r1, #128	; 0x80
 8005938:	6199      	str	r1, [r3, #24]
 800593a:	4933      	ldr	r1, [pc, #204]	; (8005a08 <enet_init+0x110>)
 800593c:	f8c1 0080 	str.w	r0, [r1, #128]	; 0x80
 8005940:	61da      	str	r2, [r3, #28]
 8005942:	6988      	ldr	r0, [r1, #24]
 8005944:	4b31      	ldr	r3, [pc, #196]	; (8005a0c <enet_init+0x114>)
 8005946:	ea03 0300 	and.w	r3, r3, r0
 800594a:	f043 7308 	orr.w	r3, r3, #35651584	; 0x2200000
 800594e:	618b      	str	r3, [r1, #24]
 8005950:	680b      	ldr	r3, [r1, #0]
 8005952:	4b2f      	ldr	r3, [pc, #188]	; (8005a10 <enet_init+0x118>)
 8005954:	600b      	str	r3, [r1, #0]
 8005956:	d01e      	beq.n	8005996 <enet_init+0x9e>
 8005958:	08e3      	lsrs	r3, r4, #3
 800595a:	0861      	lsrs	r1, r4, #1
 800595c:	f401 5100 	and.w	r1, r1, #8192	; 0x2000
 8005960:	f403 7380 	and.w	r3, r3, #256	; 0x100
 8005964:	430b      	orrs	r3, r1
 8005966:	f8ad 3006 	strh.w	r3, [sp, #6]
 800596a:	2101      	movs	r1, #1
 800596c:	2002      	movs	r0, #2
 800596e:	f10d 0306 	add.w	r3, sp, #6
 8005972:	f7ff ff39 	bl	80057e8 <enet_phy_write_read>
 8005976:	b158      	cbz	r0, 8005990 <enet_init+0x98>
 8005978:	f06f 407f 	mvn.w	r0, #4278190080	; 0xff000000
 800597c:	f7ff fe30 	bl	80055e0 <enet_delay>
 8005980:	e05d      	b.n	8005a3e <enet_init+0x146>
 8005982:	4824      	ldr	r0, [pc, #144]	; (8005a14 <enet_init+0x11c>)
 8005984:	f7ff fe2c 	bl	80055e0 <enet_delay>
 8005988:	f7ff ff5c 	bl	8005844 <enet_phy_config>
 800598c:	2800      	cmp	r0, #0
 800598e:	d1be      	bne.n	800590e <enet_init+0x16>
 8005990:	2000      	movs	r0, #0
 8005992:	b003      	add	sp, #12
 8005994:	bdf0      	pop	{r4, r5, r6, r7, pc}
 8005996:	4614      	mov	r4, r2
 8005998:	4f1f      	ldr	r7, [pc, #124]	; (8005a18 <enet_init+0x120>)
 800599a:	2201      	movs	r2, #1
 800599c:	2000      	movs	r0, #0
 800599e:	4611      	mov	r1, r2
 80059a0:	f10d 0306 	add.w	r3, sp, #6
 80059a4:	f7ff ff20 	bl	80057e8 <enet_phy_write_read>
 80059a8:	f8bd 2006 	ldrh.w	r2, [sp, #6]
 80059ac:	3401      	adds	r4, #1
 80059ae:	f002 0204 	and.w	r2, r2, #4
 80059b2:	f8ad 2006 	strh.w	r2, [sp, #6]
 80059b6:	b912      	cbnz	r2, 80059be <enet_init+0xc6>
 80059b8:	42bc      	cmp	r4, r7
 80059ba:	d1ee      	bne.n	800599a <enet_init+0xa2>
 80059bc:	e7e8      	b.n	8005990 <enet_init+0x98>
 80059be:	42bc      	cmp	r4, r7
 80059c0:	d0e6      	beq.n	8005990 <enet_init+0x98>
 80059c2:	f44f 5280 	mov.w	r2, #4096	; 0x1000
 80059c6:	2101      	movs	r1, #1
 80059c8:	f8ad 2006 	strh.w	r2, [sp, #6]
 80059cc:	2002      	movs	r0, #2
 80059ce:	2200      	movs	r2, #0
 80059d0:	f7ff ff0a 	bl	80057e8 <enet_phy_write_read>
 80059d4:	2800      	cmp	r0, #0
 80059d6:	d0db      	beq.n	8005990 <enet_init+0x98>
 80059d8:	2400      	movs	r4, #0
 80059da:	4f0f      	ldr	r7, [pc, #60]	; (8005a18 <enet_init+0x120>)
 80059dc:	2201      	movs	r2, #1
 80059de:	2000      	movs	r0, #0
 80059e0:	4611      	mov	r1, r2
 80059e2:	f10d 0306 	add.w	r3, sp, #6
 80059e6:	f7ff feff 	bl	80057e8 <enet_phy_write_read>
 80059ea:	f8bd 2006 	ldrh.w	r2, [sp, #6]
 80059ee:	3401      	adds	r4, #1
 80059f0:	f002 0220 	and.w	r2, r2, #32
 80059f4:	f8ad 2006 	strh.w	r2, [sp, #6]
 80059f8:	b982      	cbnz	r2, 8005a1c <enet_init+0x124>
 80059fa:	42bc      	cmp	r4, r7
 80059fc:	d1ee      	bne.n	80059dc <enet_init+0xe4>
 80059fe:	e7c7      	b.n	8005990 <enet_init+0x98>
 8005a00:	40028000 	andmi	r8, r2, r0
 8005a04:	fd30810f 	ldc2	1, cr8, [r0, #-60]!	; 0xffffffc4
 8005a08:	40029000 	andmi	r9, r2, r0
 8005a0c:	f8de3f23 			; <UNDEFINED> instruction: 0xf8de3f23
 8005a10:	02c16000 	sbceq	r6, r1, #0
 8005a14:	008fffff 	strdeq	pc, [pc], pc	; <UNPREDICTABLE>
 8005a18:	0004ffff 	strdeq	pc, [r4], -pc	; <UNPREDICTABLE>
 8005a1c:	42bc      	cmp	r4, r7
 8005a1e:	d0b7      	beq.n	8005990 <enet_init+0x98>
 8005a20:	2101      	movs	r1, #1
 8005a22:	2210      	movs	r2, #16
 8005a24:	2000      	movs	r0, #0
 8005a26:	f7ff fedf 	bl	80057e8 <enet_phy_write_read>
 8005a2a:	f8bd 3006 	ldrh.w	r3, [sp, #6]
 8005a2e:	f3c3 0480 	ubfx	r4, r3, #2, #1
 8005a32:	0799      	lsls	r1, r3, #30
 8005a34:	ea4f 24c4 	mov.w	r4, r4, lsl #11
 8005a38:	d401      	bmi.n	8005a3e <enet_init+0x146>
 8005a3a:	f444 4480 	orr.w	r4, r4, #16384	; 0x4000
 8005a3e:	4b63      	ldr	r3, [pc, #396]	; (8005bcc <enet_init+0x2d4>)
 8005a40:	681a      	ldr	r2, [r3, #0]
 8005a42:	f422 42b0 	bic.w	r2, r2, #22528	; 0x5800
 8005a46:	4314      	orrs	r4, r2
 8005a48:	056a      	lsls	r2, r5, #21
 8005a4a:	601c      	str	r4, [r3, #0]
 8005a4c:	d50b      	bpl.n	8005a66 <enet_init+0x16e>
 8005a4e:	681a      	ldr	r2, [r3, #0]
 8005a50:	f005 6580 	and.w	r5, r5, #67108864	; 0x4000000
 8005a54:	f442 6280 	orr.w	r2, r2, #1024	; 0x400
 8005a58:	601a      	str	r2, [r3, #0]
 8005a5a:	4a5d      	ldr	r2, [pc, #372]	; (8005bd0 <enet_init+0x2d8>)
 8005a5c:	6993      	ldr	r3, [r2, #24]
 8005a5e:	f023 6380 	bic.w	r3, r3, #67108864	; 0x4000000
 8005a62:	431d      	orrs	r5, r3
 8005a64:	6195      	str	r5, [r2, #24]
 8005a66:	4959      	ldr	r1, [pc, #356]	; (8005bcc <enet_init+0x2d4>)
 8005a68:	684b      	ldr	r3, [r1, #4]
 8005a6a:	431e      	orrs	r6, r3
 8005a6c:	4b59      	ldr	r3, [pc, #356]	; (8005bd4 <enet_init+0x2dc>)
 8005a6e:	604e      	str	r6, [r1, #4]
 8005a70:	681a      	ldr	r2, [r3, #0]
 8005a72:	07d7      	lsls	r7, r2, #31
 8005a74:	d510      	bpl.n	8005a98 <enet_init+0x1a0>
 8005a76:	685a      	ldr	r2, [r3, #4]
 8005a78:	680c      	ldr	r4, [r1, #0]
 8005a7a:	f002 0080 	and.w	r0, r2, #128	; 0x80
 8005a7e:	f024 0480 	bic.w	r4, r4, #128	; 0x80
 8005a82:	4320      	orrs	r0, r4
 8005a84:	6008      	str	r0, [r1, #0]
 8005a86:	4852      	ldr	r0, [pc, #328]	; (8005bd0 <enet_init+0x2d8>)
 8005a88:	0892      	lsrs	r2, r2, #2
 8005a8a:	6981      	ldr	r1, [r0, #24]
 8005a8c:	f002 02c0 	and.w	r2, r2, #192	; 0xc0
 8005a90:	f021 01c0 	bic.w	r1, r1, #192	; 0xc0
 8005a94:	430a      	orrs	r2, r1
 8005a96:	6182      	str	r2, [r0, #24]
 8005a98:	681a      	ldr	r2, [r3, #0]
 8005a9a:	0796      	lsls	r6, r2, #30
 8005a9c:	d508      	bpl.n	8005ab0 <enet_init+0x1b8>
 8005a9e:	494c      	ldr	r1, [pc, #304]	; (8005bd0 <enet_init+0x2d8>)
 8005aa0:	6898      	ldr	r0, [r3, #8]
 8005aa2:	680a      	ldr	r2, [r1, #0]
 8005aa4:	f022 7240 	bic.w	r2, r2, #50331648	; 0x3000000
 8005aa8:	f422 3280 	bic.w	r2, r2, #65536	; 0x10000
 8005aac:	4302      	orrs	r2, r0
 8005aae:	600a      	str	r2, [r1, #0]
 8005ab0:	681a      	ldr	r2, [r3, #0]
 8005ab2:	0755      	lsls	r5, r2, #29
 8005ab4:	d508      	bpl.n	8005ac8 <enet_init+0x1d0>
 8005ab6:	4946      	ldr	r1, [pc, #280]	; (8005bd0 <enet_init+0x2d8>)
 8005ab8:	68d8      	ldr	r0, [r3, #12]
 8005aba:	680a      	ldr	r2, [r1, #0]
 8005abc:	f422 027e 	bic.w	r2, r2, #16646144	; 0xfe0000
 8005ac0:	f422 527c 	bic.w	r2, r2, #16128	; 0x3f00
 8005ac4:	4302      	orrs	r2, r0
 8005ac6:	600a      	str	r2, [r1, #0]
 8005ac8:	681a      	ldr	r2, [r3, #0]
 8005aca:	0714      	lsls	r4, r2, #28
 8005acc:	d508      	bpl.n	8005ae0 <enet_init+0x1e8>
 8005ace:	4940      	ldr	r1, [pc, #256]	; (8005bd0 <enet_init+0x2d8>)
 8005ad0:	6918      	ldr	r0, [r3, #16]
 8005ad2:	680a      	ldr	r2, [r1, #0]
 8005ad4:	f422 4240 	bic.w	r2, r2, #49152	; 0xc000
 8005ad8:	f022 0202 	bic.w	r2, r2, #2
 8005adc:	4302      	orrs	r2, r0
 8005ade:	600a      	str	r2, [r1, #0]
 8005ae0:	681a      	ldr	r2, [r3, #0]
 8005ae2:	06d0      	lsls	r0, r2, #27
 8005ae4:	d506      	bpl.n	8005af4 <enet_init+0x1fc>
 8005ae6:	493a      	ldr	r1, [pc, #232]	; (8005bd0 <enet_init+0x2d8>)
 8005ae8:	4a3b      	ldr	r2, [pc, #236]	; (8005bd8 <enet_init+0x2e0>)
 8005aea:	6988      	ldr	r0, [r1, #24]
 8005aec:	4002      	ands	r2, r0
 8005aee:	6958      	ldr	r0, [r3, #20]
 8005af0:	4302      	orrs	r2, r0
 8005af2:	618a      	str	r2, [r1, #24]
 8005af4:	681a      	ldr	r2, [r3, #0]
 8005af6:	0691      	lsls	r1, r2, #26
 8005af8:	d508      	bpl.n	8005b0c <enet_init+0x214>
 8005afa:	4935      	ldr	r1, [pc, #212]	; (8005bd0 <enet_init+0x2d8>)
 8005afc:	6998      	ldr	r0, [r3, #24]
 8005afe:	698a      	ldr	r2, [r1, #24]
 8005b00:	f022 7280 	bic.w	r2, r2, #16777216	; 0x1000000
 8005b04:	f022 0204 	bic.w	r2, r2, #4
 8005b08:	4302      	orrs	r2, r0
 8005b0a:	618a      	str	r2, [r1, #24]
 8005b0c:	681a      	ldr	r2, [r3, #0]
 8005b0e:	0652      	lsls	r2, r2, #25
 8005b10:	d506      	bpl.n	8005b20 <enet_init+0x228>
 8005b12:	492e      	ldr	r1, [pc, #184]	; (8005bcc <enet_init+0x2d4>)
 8005b14:	69d8      	ldr	r0, [r3, #28]
 8005b16:	69ca      	ldr	r2, [r1, #28]
 8005b18:	0c52      	lsrs	r2, r2, #17
 8005b1a:	0452      	lsls	r2, r2, #17
 8005b1c:	4302      	orrs	r2, r0
 8005b1e:	61ca      	str	r2, [r1, #28]
 8005b20:	681a      	ldr	r2, [r3, #0]
 8005b22:	0617      	lsls	r7, r2, #24
 8005b24:	d517      	bpl.n	8005b56 <enet_init+0x25e>
 8005b26:	4c29      	ldr	r4, [pc, #164]	; (8005bcc <enet_init+0x2d4>)
 8005b28:	6a1a      	ldr	r2, [r3, #32]
 8005b2a:	69a0      	ldr	r0, [r4, #24]
 8005b2c:	f422 417f 	bic.w	r1, r2, #65280	; 0xff00
 8005b30:	f020 00be 	bic.w	r0, r0, #190	; 0xbe
 8005b34:	0400      	lsls	r0, r0, #16
 8005b36:	0c00      	lsrs	r0, r0, #16
 8005b38:	f021 0141 	bic.w	r1, r1, #65	; 0x41
 8005b3c:	4301      	orrs	r1, r0
 8005b3e:	4824      	ldr	r0, [pc, #144]	; (8005bd0 <enet_init+0x2d8>)
 8005b40:	61a1      	str	r1, [r4, #24]
 8005b42:	f8d0 1080 	ldr.w	r1, [r0, #128]	; 0x80
 8005b46:	0a12      	lsrs	r2, r2, #8
 8005b48:	f021 0177 	bic.w	r1, r1, #119	; 0x77
 8005b4c:	f002 0277 	and.w	r2, r2, #119	; 0x77
 8005b50:	430a      	orrs	r2, r1
 8005b52:	f8c0 2080 	str.w	r2, [r0, #128]	; 0x80
 8005b56:	681a      	ldr	r2, [r3, #0]
 8005b58:	05d6      	lsls	r6, r2, #23
 8005b5a:	bf42      	ittt	mi
 8005b5c:	6a59      	ldrmi	r1, [r3, #36]	; 0x24
 8005b5e:	4a1b      	ldrmi	r2, [pc, #108]	; (8005bcc <enet_init+0x2d4>)
 8005b60:	6091      	strmi	r1, [r2, #8]
 8005b62:	681a      	ldr	r2, [r3, #0]
 8005b64:	0595      	lsls	r5, r2, #22
 8005b66:	bf42      	ittt	mi
 8005b68:	4a18      	ldrmi	r2, [pc, #96]	; (8005bcc <enet_init+0x2d4>)
 8005b6a:	6a99      	ldrmi	r1, [r3, #40]	; 0x28
 8005b6c:	60d1      	strmi	r1, [r2, #12]
 8005b6e:	681a      	ldr	r2, [r3, #0]
 8005b70:	0554      	lsls	r4, r2, #21
 8005b72:	d508      	bpl.n	8005b86 <enet_init+0x28e>
 8005b74:	4915      	ldr	r1, [pc, #84]	; (8005bcc <enet_init+0x2d4>)
 8005b76:	6ad8      	ldr	r0, [r3, #44]	; 0x2c
 8005b78:	684a      	ldr	r2, [r1, #4]
 8005b7a:	f422 62fb 	bic.w	r2, r2, #2008	; 0x7d8
 8005b7e:	f022 0206 	bic.w	r2, r2, #6
 8005b82:	4302      	orrs	r2, r0
 8005b84:	604a      	str	r2, [r1, #4]
 8005b86:	681a      	ldr	r2, [r3, #0]
 8005b88:	0510      	lsls	r0, r2, #20
 8005b8a:	d508      	bpl.n	8005b9e <enet_init+0x2a6>
 8005b8c:	490f      	ldr	r1, [pc, #60]	; (8005bcc <enet_init+0x2d4>)
 8005b8e:	6b18      	ldr	r0, [r3, #48]	; 0x30
 8005b90:	680a      	ldr	r2, [r1, #0]
 8005b92:	f422 3291 	bic.w	r2, r2, #74240	; 0x12200
 8005b96:	f022 0270 	bic.w	r2, r2, #112	; 0x70
 8005b9a:	4302      	orrs	r2, r0
 8005b9c:	600a      	str	r2, [r1, #0]
 8005b9e:	681a      	ldr	r2, [r3, #0]
 8005ba0:	04d1      	lsls	r1, r2, #19
 8005ba2:	d506      	bpl.n	8005bb2 <enet_init+0x2ba>
 8005ba4:	4909      	ldr	r1, [pc, #36]	; (8005bcc <enet_init+0x2d4>)
 8005ba6:	6b58      	ldr	r0, [r3, #52]	; 0x34
 8005ba8:	680a      	ldr	r2, [r1, #0]
 8005baa:	f422 0240 	bic.w	r2, r2, #12582912	; 0xc00000
 8005bae:	4302      	orrs	r2, r0
 8005bb0:	600a      	str	r2, [r1, #0]
 8005bb2:	681a      	ldr	r2, [r3, #0]
 8005bb4:	0492      	lsls	r2, r2, #18
 8005bb6:	d506      	bpl.n	8005bc6 <enet_init+0x2ce>
 8005bb8:	4904      	ldr	r1, [pc, #16]	; (8005bcc <enet_init+0x2d4>)
 8005bba:	6b9b      	ldr	r3, [r3, #56]	; 0x38
 8005bbc:	680a      	ldr	r2, [r1, #0]
 8005bbe:	f422 2260 	bic.w	r2, r2, #917504	; 0xe0000
 8005bc2:	4313      	orrs	r3, r2
 8005bc4:	600b      	str	r3, [r1, #0]
 8005bc6:	2001      	movs	r0, #1
 8005bc8:	e6e3      	b.n	8005992 <enet_init+0x9a>
 8005bca:	bf00      	nop
 8005bcc:	40028000 	andmi	r8, r2, r0
 8005bd0:	40029000 	andmi	r9, r2, r0
 8005bd4:	200039dc 	ldrdcs	r3, [r0], -ip
 8005bd8:	fdde3fe7 	ldc2l	15, cr3, [lr, #924]	; 0x39c

08005bdc <enet_txfifo_flush>:
 8005bdc:	4b06      	ldr	r3, [pc, #24]	; (8005bf8 <enet_txfifo_flush+0x1c>)
 8005bde:	4807      	ldr	r0, [pc, #28]	; (8005bfc <enet_txfifo_flush+0x20>)
 8005be0:	699a      	ldr	r2, [r3, #24]
 8005be2:	f442 1280 	orr.w	r2, r2, #1048576	; 0x100000
 8005be6:	619a      	str	r2, [r3, #24]
 8005be8:	699a      	ldr	r2, [r3, #24]
 8005bea:	02d2      	lsls	r2, r2, #11
 8005bec:	d502      	bpl.n	8005bf4 <enet_txfifo_flush+0x18>
 8005bee:	3801      	subs	r0, #1
 8005bf0:	d1fa      	bne.n	8005be8 <enet_txfifo_flush+0xc>
 8005bf2:	4770      	bx	lr
 8005bf4:	2001      	movs	r0, #1
 8005bf6:	4770      	bx	lr
 8005bf8:	40029000 	andmi	r9, r2, r0
 8005bfc:	0004ffff 	strdeq	pc, [r4], -pc	; <UNPREDICTABLE>

08005c00 <enet_tx_enable>:
 8005c00:	4a06      	ldr	r2, [pc, #24]	; (8005c1c <enet_tx_enable+0x1c>)
 8005c02:	b508      	push	{r3, lr}
 8005c04:	6813      	ldr	r3, [r2, #0]
 8005c06:	f043 0308 	orr.w	r3, r3, #8
 8005c0a:	6013      	str	r3, [r2, #0]
 8005c0c:	f7ff ffe6 	bl	8005bdc <enet_txfifo_flush>
 8005c10:	4a03      	ldr	r2, [pc, #12]	; (8005c20 <enet_tx_enable+0x20>)
 8005c12:	6993      	ldr	r3, [r2, #24]
 8005c14:	f443 5300 	orr.w	r3, r3, #8192	; 0x2000
 8005c18:	6193      	str	r3, [r2, #24]
 8005c1a:	bd08      	pop	{r3, pc}
 8005c1c:	40028000 	andmi	r8, r2, r0
 8005c20:	40029000 	andmi	r9, r2, r0

08005c24 <enet_enable>:
 8005c24:	b508      	push	{r3, lr}
 8005c26:	f7ff ffeb 	bl	8005c00 <enet_tx_enable>
 8005c2a:	e8bd 4008 	ldmia.w	sp!, {r3, lr}
 8005c2e:	f7ff bdcd 	b.w	80057cc <enet_rx_enable>

08005c32 <enet_desc_information_get>:
 8005c32:	2905      	cmp	r1, #5
 8005c34:	d817      	bhi.n	8005c66 <enet_desc_information_get+0x34>
 8005c36:	e8df f001 	tbb	[pc, r1]
 8005c3a:	03091012 	movweq	r1, #36882	; 0x9012
 8005c3e:	68401007 	stmdavs	r0, {r0, r1, r2, ip}^
 8005c42:	f3c0 000c 	ubfx	r0, r0, #0, #13
 8005c46:	4770      	bx	lr
 8005c48:	88c0      	ldrh	r0, [r0, #6]
 8005c4a:	e7fa      	b.n	8005c42 <enet_desc_information_get+0x10>
 8005c4c:	8840      	ldrh	r0, [r0, #2]
 8005c4e:	f3c0 000d 	ubfx	r0, r0, #0, #14
 8005c52:	2804      	cmp	r0, #4
 8005c54:	d90a      	bls.n	8005c6c <enet_desc_information_get+0x3a>
 8005c56:	3804      	subs	r0, #4
 8005c58:	4770      	bx	lr
 8005c5a:	6880      	ldr	r0, [r0, #8]
 8005c5c:	4770      	bx	lr
 8005c5e:	6800      	ldr	r0, [r0, #0]
 8005c60:	f3c0 00c3 	ubfx	r0, r0, #3, #4
 8005c64:	4770      	bx	lr
 8005c66:	f04f 30ff 	mov.w	r0, #4294967295	; 0xffffffff
 8005c6a:	4770      	bx	lr
 8005c6c:	2000      	movs	r0, #0
 8005c6e:	4770      	bx	lr

08005c70 <enet_rxframe_drop>:
 8005c70:	f04f 4300 	mov.w	r3, #2147483648	; 0x80000000
 8005c74:	4814      	ldr	r0, [pc, #80]	; (8005cc8 <enet_rxframe_drop+0x58>)
 8005c76:	b510      	push	{r4, lr}
 8005c78:	6802      	ldr	r2, [r0, #0]
 8005c7a:	4914      	ldr	r1, [pc, #80]	; (8005ccc <enet_rxframe_drop+0x5c>)
 8005c7c:	6854      	ldr	r4, [r2, #4]
 8005c7e:	6013      	str	r3, [r2, #0]
 8005c80:	f414 4f80 	tst.w	r4, #16384	; 0x4000
 8005c84:	680b      	ldr	r3, [r1, #0]
 8005c86:	d009      	beq.n	8005c9c <enet_rxframe_drop+0x2c>
 8005c88:	b12b      	cbz	r3, 8005c96 <enet_rxframe_drop+0x26>
 8005c8a:	68da      	ldr	r2, [r3, #12]
 8005c8c:	6002      	str	r2, [r0, #0]
 8005c8e:	681a      	ldr	r2, [r3, #0]
 8005c90:	b1ba      	cbz	r2, 8005cc2 <enet_rxframe_drop+0x52>
 8005c92:	600a      	str	r2, [r1, #0]
 8005c94:	bd10      	pop	{r4, pc}
 8005c96:	68d3      	ldr	r3, [r2, #12]
 8005c98:	6003      	str	r3, [r0, #0]
 8005c9a:	e7fb      	b.n	8005c94 <enet_rxframe_drop+0x24>
 8005c9c:	f414 4f00 	tst.w	r4, #32768	; 0x8000
 8005ca0:	4c0b      	ldr	r4, [pc, #44]	; (8005cd0 <enet_rxframe_drop+0x60>)
 8005ca2:	d006      	beq.n	8005cb2 <enet_rxframe_drop+0x42>
 8005ca4:	68e2      	ldr	r2, [r4, #12]
 8005ca6:	6002      	str	r2, [r0, #0]
 8005ca8:	2b00      	cmp	r3, #0
 8005caa:	d0f3      	beq.n	8005c94 <enet_rxframe_drop+0x24>
 8005cac:	681b      	ldr	r3, [r3, #0]
 8005cae:	600b      	str	r3, [r1, #0]
 8005cb0:	e7f0      	b.n	8005c94 <enet_rxframe_drop+0x24>
 8005cb2:	6824      	ldr	r4, [r4, #0]
 8005cb4:	3210      	adds	r2, #16
 8005cb6:	f3c4 0484 	ubfx	r4, r4, #2, #5
 8005cba:	4422      	add	r2, r4
 8005cbc:	6002      	str	r2, [r0, #0]
 8005cbe:	2b00      	cmp	r3, #0
 8005cc0:	d0e8      	beq.n	8005c94 <enet_rxframe_drop+0x24>
 8005cc2:	3310      	adds	r3, #16
 8005cc4:	e7f3      	b.n	8005cae <enet_rxframe_drop+0x3e>
 8005cc6:	bf00      	nop
 8005cc8:	200039d4 	ldrdcs	r3, [r0], -r4
 8005ccc:	200039cc 	andcs	r3, r0, ip, asr #19
 8005cd0:	40029000 	andmi	r9, r2, r0

08005cd4 <enet_rxframe_size_get>:
 8005cd4:	b508      	push	{r3, lr}
 8005cd6:	4b0c      	ldr	r3, [pc, #48]	; (8005d08 <enet_rxframe_size_get+0x34>)
 8005cd8:	681b      	ldr	r3, [r3, #0]
 8005cda:	6818      	ldr	r0, [r3, #0]
 8005cdc:	2800      	cmp	r0, #0
 8005cde:	db10      	blt.n	8005d02 <enet_rxframe_size_get+0x2e>
 8005ce0:	f400 4303 	and.w	r3, r0, #33536	; 0x8300
 8005ce4:	f5b3 7f40 	cmp.w	r3, #768	; 0x300
 8005ce8:	d003      	beq.n	8005cf2 <enet_rxframe_size_get+0x1e>
 8005cea:	f7ff ffc1 	bl	8005c70 <enet_rxframe_drop>
 8005cee:	2001      	movs	r0, #1
 8005cf0:	bd08      	pop	{r3, pc}
 8005cf2:	f000 0321 	and.w	r3, r0, #33	; 0x21
 8005cf6:	2b21      	cmp	r3, #33	; 0x21
 8005cf8:	d0f7      	beq.n	8005cea <enet_rxframe_size_get+0x16>
 8005cfa:	f3c0 400d 	ubfx	r0, r0, #16, #14
 8005cfe:	3804      	subs	r0, #4
 8005d00:	e7f6      	b.n	8005cf0 <enet_rxframe_size_get+0x1c>
 8005d02:	2000      	movs	r0, #0
 8005d04:	e7f4      	b.n	8005cf0 <enet_rxframe_size_get+0x1c>
 8005d06:	bf00      	nop
 8005d08:	200039d4 	ldrdcs	r3, [r0], -r4

08005d0c <enet_initpara_reset>:
 8005d0c:	2200      	movs	r2, #0
 8005d0e:	4b08      	ldr	r3, [pc, #32]	; (8005d30 <enet_initpara_reset+0x24>)
 8005d10:	e9c3 2200 	strd	r2, r2, [r3]
 8005d14:	e9c3 2202 	strd	r2, r2, [r3, #8]
 8005d18:	e9c3 2204 	strd	r2, r2, [r3, #16]
 8005d1c:	e9c3 2206 	strd	r2, r2, [r3, #24]
 8005d20:	e9c3 2208 	strd	r2, r2, [r3, #32]
 8005d24:	e9c3 220a 	strd	r2, r2, [r3, #40]	; 0x28
 8005d28:	e9c3 220c 	strd	r2, r2, [r3, #48]	; 0x30
 8005d2c:	639a      	str	r2, [r3, #56]	; 0x38
 8005d2e:	4770      	bx	lr
 8005d30:	200039dc 	ldrdcs	r3, [r0], -ip

08005d34 <enet_deinit>:
 8005d34:	b508      	push	{r3, lr}
 8005d36:	f640 200e 	movw	r0, #2574	; 0xa0e
 8005d3a:	f7fe fc26 	bl	800458a <rcu_periph_reset_enable>
 8005d3e:	f640 200e 	movw	r0, #2574	; 0xa0e
 8005d42:	f7fe fc24 	bl	800458e <rcu_periph_reset_disable>
 8005d46:	e8bd 4008 	ldmia.w	sp!, {r3, lr}
 8005d4a:	f7ff bfdf 	b.w	8005d0c <enet_initpara_reset>
	...

08005d50 <i2c_clock_config>:
 8005d50:	b5f8      	push	{r3, r4, r5, r6, r7, lr}
 8005d52:	4605      	mov	r5, r0
 8005d54:	2002      	movs	r0, #2
 8005d56:	460c      	mov	r4, r1
 8005d58:	4617      	mov	r7, r2
 8005d5a:	f7fe fcd7 	bl	800470c <rcu_clock_freq_get>
 8005d5e:	4603      	mov	r3, r0
 8005d60:	4828      	ldr	r0, [pc, #160]	; (8005e04 <i2c_clock_config+0xb4>)
 8005d62:	4a29      	ldr	r2, [pc, #164]	; (8005e08 <i2c_clock_config+0xb8>)
 8005d64:	fbb3 f0f0 	udiv	r0, r3, r0
 8005d68:	4293      	cmp	r3, r2
 8005d6a:	bf94      	ite	ls
 8005d6c:	4601      	movls	r1, r0
 8005d6e:	213f      	movhi	r1, #63	; 0x3f
 8005d70:	686e      	ldr	r6, [r5, #4]
 8005d72:	4a26      	ldr	r2, [pc, #152]	; (8005e0c <i2c_clock_config+0xbc>)
 8005d74:	f026 063f 	bic.w	r6, r6, #63	; 0x3f
 8005d78:	430e      	orrs	r6, r1
 8005d7a:	4294      	cmp	r4, r2
 8005d7c:	606e      	str	r6, [r5, #4]
 8005d7e:	d816      	bhi.n	8005dae <i2c_clock_config+0x5e>
 8005d80:	3001      	adds	r0, #1
 8005d82:	283e      	cmp	r0, #62	; 0x3e
 8005d84:	d90d      	bls.n	8005da2 <i2c_clock_config+0x52>
 8005d86:	223f      	movs	r2, #63	; 0x3f
 8005d88:	622a      	str	r2, [r5, #32]
 8005d8a:	0064      	lsls	r4, r4, #1
 8005d8c:	fbb3 f4f4 	udiv	r4, r3, r4
 8005d90:	2c04      	cmp	r4, #4
 8005d92:	bf38      	it	cc
 8005d94:	2404      	movcc	r4, #4
 8005d96:	69ea      	ldr	r2, [r5, #28]
 8005d98:	f3c4 040b 	ubfx	r4, r4, #0, #12
 8005d9c:	4314      	orrs	r4, r2
 8005d9e:	61ec      	str	r4, [r5, #28]
 8005da0:	bdf8      	pop	{r3, r4, r5, r6, r7, pc}
 8005da2:	2802      	cmp	r0, #2
 8005da4:	d801      	bhi.n	8005daa <i2c_clock_config+0x5a>
 8005da6:	2202      	movs	r2, #2
 8005da8:	e7ee      	b.n	8005d88 <i2c_clock_config+0x38>
 8005daa:	6228      	str	r0, [r5, #32]
 8005dac:	e7ed      	b.n	8005d8a <i2c_clock_config+0x3a>
 8005dae:	4a18      	ldr	r2, [pc, #96]	; (8005e10 <i2c_clock_config+0xc0>)
 8005db0:	4294      	cmp	r4, r2
 8005db2:	d8f5      	bhi.n	8005da0 <i2c_clock_config+0x50>
 8005db4:	f44f 7296 	mov.w	r2, #300	; 0x12c
 8005db8:	4351      	muls	r1, r2
 8005dba:	f44f 727a 	mov.w	r2, #1000	; 0x3e8
 8005dbe:	fbb1 f1f2 	udiv	r1, r1, r2
 8005dc2:	3101      	adds	r1, #1
 8005dc4:	6229      	str	r1, [r5, #32]
 8005dc6:	b9a7      	cbnz	r7, 8005df2 <i2c_clock_config+0xa2>
 8005dc8:	eb04 0444 	add.w	r4, r4, r4, lsl #1
 8005dcc:	fbb3 f4f4 	udiv	r4, r3, r4
 8005dd0:	69eb      	ldr	r3, [r5, #28]
 8005dd2:	f423 4380 	bic.w	r3, r3, #16384	; 0x4000
 8005dd6:	61eb      	str	r3, [r5, #28]
 8005dd8:	f3c4 030b 	ubfx	r3, r4, #0, #12
 8005ddc:	b90b      	cbnz	r3, 8005de2 <i2c_clock_config+0x92>
 8005dde:	f044 0401 	orr.w	r4, r4, #1
 8005de2:	69eb      	ldr	r3, [r5, #28]
 8005de4:	f443 4300 	orr.w	r3, r3, #32768	; 0x8000
 8005de8:	61eb      	str	r3, [r5, #28]
 8005dea:	69eb      	ldr	r3, [r5, #28]
 8005dec:	4323      	orrs	r3, r4
 8005dee:	61eb      	str	r3, [r5, #28]
 8005df0:	e7d6      	b.n	8005da0 <i2c_clock_config+0x50>
 8005df2:	2219      	movs	r2, #25
 8005df4:	4354      	muls	r4, r2
 8005df6:	fbb3 f4f4 	udiv	r4, r3, r4
 8005dfa:	69eb      	ldr	r3, [r5, #28]
 8005dfc:	f443 4380 	orr.w	r3, r3, #16384	; 0x4000
 8005e00:	e7e9      	b.n	8005dd6 <i2c_clock_config+0x86>
 8005e02:	bf00      	nop
 8005e04:	000f4240 	andeq	r4, pc, r0, asr #4
 8005e08:	03c14dbf 	biceq	r4, r1, #12224	; 0x2fc0
 8005e0c:	000186a0 	andeq	r8, r1, r0, lsr #13
 8005e10:	00061a80 	andeq	r1, r6, r0, lsl #21

08005e14 <i2c_ack_config>:
 8005e14:	6803      	ldr	r3, [r0, #0]
 8005e16:	2901      	cmp	r1, #1
 8005e18:	bf0c      	ite	eq
 8005e1a:	f443 6380 	orreq.w	r3, r3, #1024	; 0x400
 8005e1e:	f423 6380 	bicne.w	r3, r3, #1024	; 0x400
 8005e22:	6003      	str	r3, [r0, #0]
 8005e24:	4770      	bx	lr

08005e26 <i2c_ackpos_config>:
 8005e26:	6803      	ldr	r3, [r0, #0]
 8005e28:	b919      	cbnz	r1, 8005e32 <i2c_ackpos_config+0xc>
 8005e2a:	f443 6300 	orr.w	r3, r3, #2048	; 0x800
 8005e2e:	6003      	str	r3, [r0, #0]
 8005e30:	4770      	bx	lr
 8005e32:	f423 6300 	bic.w	r3, r3, #2048	; 0x800
 8005e36:	e7fa      	b.n	8005e2e <i2c_ackpos_config+0x8>

08005e38 <i2c_master_addressing>:
 8005e38:	3202      	adds	r2, #2
 8005e3a:	bf0c      	ite	eq
 8005e3c:	f021 0101 	biceq.w	r1, r1, #1
 8005e40:	f041 0101 	orrne.w	r1, r1, #1
 8005e44:	6101      	str	r1, [r0, #16]
 8005e46:	4770      	bx	lr

08005e48 <i2c_enable>:
 8005e48:	6803      	ldr	r3, [r0, #0]
 8005e4a:	f043 0301 	orr.w	r3, r3, #1
 8005e4e:	6003      	str	r3, [r0, #0]
 8005e50:	4770      	bx	lr

08005e52 <i2c_start_on_bus>:
 8005e52:	6803      	ldr	r3, [r0, #0]
 8005e54:	f443 7380 	orr.w	r3, r3, #256	; 0x100
 8005e58:	6003      	str	r3, [r0, #0]
 8005e5a:	4770      	bx	lr

08005e5c <i2c_stop_on_bus>:
 8005e5c:	6803      	ldr	r3, [r0, #0]
 8005e5e:	f443 7300 	orr.w	r3, r3, #512	; 0x200
 8005e62:	6003      	str	r3, [r0, #0]
 8005e64:	4770      	bx	lr

08005e66 <i2c_data_transmit>:
 8005e66:	6101      	str	r1, [r0, #16]
 8005e68:	4770      	bx	lr

08005e6a <i2c_data_receive>:
 8005e6a:	6900      	ldr	r0, [r0, #16]
 8005e6c:	b2c0      	uxtb	r0, r0
 8005e6e:	4770      	bx	lr

08005e70 <i2c_flag_get>:
 8005e70:	098b      	lsrs	r3, r1, #6
 8005e72:	581a      	ldr	r2, [r3, r0]
 8005e74:	2301      	movs	r3, #1
 8005e76:	f001 011f 	and.w	r1, r1, #31
 8005e7a:	408b      	lsls	r3, r1
 8005e7c:	4213      	tst	r3, r2
 8005e7e:	bf14      	ite	ne
 8005e80:	2001      	movne	r0, #1
 8005e82:	2000      	moveq	r0, #0
 8005e84:	4770      	bx	lr

08005e86 <i2c_flag_clear>:
 8005e86:	f240 5301 	movw	r3, #1281	; 0x501
 8005e8a:	4299      	cmp	r1, r3
 8005e8c:	b510      	push	{r4, lr}
 8005e8e:	d102      	bne.n	8005e96 <i2c_flag_clear+0x10>
 8005e90:	6943      	ldr	r3, [r0, #20]
 8005e92:	6983      	ldr	r3, [r0, #24]
 8005e94:	bd10      	pop	{r4, pc}
 8005e96:	2201      	movs	r2, #1
 8005e98:	098c      	lsrs	r4, r1, #6
 8005e9a:	5823      	ldr	r3, [r4, r0]
 8005e9c:	f001 011f 	and.w	r1, r1, #31
 8005ea0:	408a      	lsls	r2, r1
 8005ea2:	ea23 0302 	bic.w	r3, r3, r2
 8005ea6:	5023      	str	r3, [r4, r0]
 8005ea8:	e7f4      	b.n	8005e94 <i2c_flag_clear+0xe>
	...

08005eac <mac_address_get(unsigned char*)>:
 8005eac:	2102      	movs	r1, #2
 8005eae:	4a07      	ldr	r2, [pc, #28]	; (8005ecc <mac_address_get(unsigned char*)+0x20>)
 8005eb0:	f8d2 37e8 	ldr.w	r3, [r2, #2024]	; 0x7e8
 8005eb4:	f8d2 27ec 	ldr.w	r2, [r2, #2028]	; 0x7ec
 8005eb8:	7001      	strb	r1, [r0, #0]
 8005eba:	7042      	strb	r2, [r0, #1]
 8005ebc:	0e1a      	lsrs	r2, r3, #24
 8005ebe:	7082      	strb	r2, [r0, #2]
 8005ec0:	0c1a      	lsrs	r2, r3, #16
 8005ec2:	70c2      	strb	r2, [r0, #3]
 8005ec4:	0a1a      	lsrs	r2, r3, #8
 8005ec6:	7102      	strb	r2, [r0, #4]
 8005ec8:	7143      	strb	r3, [r0, #5]
 8005eca:	4770      	bx	lr
 8005ecc:	1ffff000 	svcne	0x00fff000

Disassembly of section .rodata:

08005ed0 <SOFTWARE_VERSION-0x59>:
	...
 8005ed8:	04030201 	streq	r0, [r3], #-513	; 0xfffffdff
 8005edc:	09080706 	stmdbeq	r8, {r1, r2, r8, r9, sl}
 8005ee0:	00000000 	andeq	r0, r0, r0
 8005ee4:	04030201 	streq	r0, [r3], #-513	; 0xfffffdff
 8005ee8:	343a3431 	ldrtcc	r3, [sl], #-1073	; 0xfffffbcf
 8005eec:	30323a39 	eorscc	r3, r2, r9, lsr sl
 8005ef0:	74634f00 	strbtvc	r4, [r3], #-3840	; 0xfffff100
 8005ef4:	20303120 	eorscs	r3, r0, r0, lsr #2
 8005ef8:	32323032 	eorscc	r3, r2, #50	; 0x32
 8005efc:	6f6f4200 	svcvs	0x006f4200
 8005f00:	616f6c74 	smcvs	63172	; 0xf6c4
 8005f04:	20726564 	rsbscs	r6, r2, r4, ror #10
 8005f08:	50544654 	subspl	r4, r4, r4, asr r6
 8005f0c:	72655320 	rsbvc	r5, r5, #32, 6	; 0x80000000
 8005f10:	00726576 	rsbseq	r6, r2, r6, ror r5
 8005f14:	746f6f42 	strbtvc	r6, [pc], #-3906	; 8005f1c <_etext+0x4c>
 8005f18:	64616f6c 	strbtvs	r6, [r1], #-3948	; 0xfffff094
 8005f1c:	54207265 	strtpl	r7, [r0], #-613	; 0xfffffd9b
 8005f20:	20505446 	subscs	r5, r0, r6, asr #8
 8005f24:	72767253 	rsbsvc	r7, r6, #805306373	; 0x30000005
	...

08005f29 <SOFTWARE_VERSION>:
 8005f29:	00342e31 	eorseq	r2, r4, r1, lsr lr
 8005f2d:	65687445 	strbvs	r7, [r8, #-1093]!	; 0xfffffbbb
 8005f31:	74656e72 	strbtvc	r6, [r5], #-3698	; 0xfffff18e
 8005f35:	61747320 	cmnvs	r4, r0, lsr #6
 8005f39:	25007472 	strcs	r7, [r0, #-1138]	; 0xfffffb8e
 8005f3d:	64252e64 	strtvs	r2, [r5], #-3684	; 0xfffff19c
 8005f41:	2e64252e 	cdpcs	5, 6, cr2, cr4, cr14, {1}
 8005f45:	252f6425 	strcs	r6, [pc, #-1061]!	; 8005b28 <enet_init+0x230>
 8005f49:	63252064 			; <UNDEFINED> instruction: 0x63252064
 8005f4d:	68744500 	ldmdavs	r4!, {r8, sl, lr}^
 8005f51:	656e7265 	strbvs	r7, [lr, #-613]!	; 0xfffffd9b
 8005f55:	68732074 	ldmdavs	r3!, {r2, r4, r5, r6, sp}^
 8005f59:	6f647475 	svcvs	0x00647475
 8005f5d:	44006e77 	strmi	r6, [r0], #-3703	; 0xfffff189
 8005f61:	20504348 	subscs	r4, r0, r8, asr #6
 8005f65:	656e6572 	strbvs	r6, [lr, #-1394]!	; 0xfffffa8e
 8005f69:	676e6977 			; <UNDEFINED> instruction: 0x676e6977
 8005f6d:	746f4700 	strbtvc	r4, [pc], #-1792	; 8005f75 <SOFTWARE_VERSION+0x4c>
 8005f71:	00504920 	subseq	r4, r0, r0, lsr #18
 8005f75:	50434844 	subpl	r4, r3, r4, asr #16
 8005f79:	74657220 	strbtvc	r7, [r5], #-544	; 0xfffffde0
 8005f7d:	6e697972 			; <UNDEFINED> instruction: 0x6e697972
 8005f81:	48440067 	stmdami	r4, {r0, r1, r2, r5, r6}^
 8005f85:	45205043 	strmi	r5, [r0, #-67]!	; 0xffffffbd
 8005f89:	726f7272 	rsbvc	r7, pc, #536870919	; 0x20000007
 8005f8d:	206f4e00 	rsbcs	r4, pc, r0, lsl #28
 8005f91:	70736964 	rsbsvc	r6, r3, r4, ror #18
 8005f95:	2079616c 	rsbscs	r6, r9, ip, ror #2
 8005f99:	6e756f66 	cdpvs	15, 7, cr6, cr5, cr6, {3}
 8005f9d:	53530064 	cmppl	r3, #100	; 0x64
 8005fa1:	30333144 	eorscc	r3, r3, r4, asr #2
 8005fa5:	48530036 	ldmdami	r3, {r1, r2, r4, r5}^
 8005fa9:	36303131 			; <UNDEFINED> instruction: 0x36303131
 8005fad:	20732500 	rsbscs	r2, r3, r0, lsl #10
 8005fb1:	2c642528 	cfstr64cs	mvdx2, [r4], #-160	; 0xffffff60
 8005fb5:	0a296425 	beq	8a5f051 <__exidx_end+0xa58665>
 8005fb9:	eeaa4000 	cdp	0, 10, cr4, cr10, cr0, {0}
 8005fbd:	 	andmi	lr, r0, sl, lsr #29

08005fc0 <_OledFont8x6>:
 8005fc0:	00000040 	andeq	r0, r0, r0, asr #32
 8005fc4:	40000000 	andmi	r0, r0, r0
 8005fc8:	005f0000 	subseq	r0, pc, r0
 8005fcc:	00400000 	subeq	r0, r0, r0
 8005fd0:	00070007 	andeq	r0, r7, r7
 8005fd4:	7f144000 	svcvc	0x00144000
 8005fd8:	00147f14 	andseq	r7, r4, r4, lsl pc
 8005fdc:	7f2a2440 	svcvc	0x002a2440
 8005fe0:	4000122a 	andmi	r1, r0, sl, lsr #4
 8005fe4:	64081323 	strvs	r1, [r8], #-803	; 0xfffffcdd
 8005fe8:	36400062 	strbcc	r0, [r0], -r2, rrx
 8005fec:	50205649 	eorpl	r5, r0, r9, asr #12
 8005ff0:	08004000 	stmdaeq	r0, {lr}
 8005ff4:	00000307 	andeq	r0, r0, r7, lsl #6
 8005ff8:	221c0040 	andscs	r0, ip, #64	; 0x40
 8005ffc:	40000041 	andmi	r0, r0, r1, asr #32
 8006000:	1c224100 	stfnes	f4, [r2], #-0
 8006004:	2a400000 	bcs	900600c <__exidx_end+0xfff620>
 8006008:	2a1c7f1c 	bcs	8725c80 <__exidx_end+0x71f294>
 800600c:	08084000 	stmdaeq	r8, {lr}
 8006010:	0008083e 	andeq	r0, r8, lr, lsr r8
 8006014:	70800040 	addvc	r0, r0, r0, asr #32
 8006018:	40000030 	andmi	r0, r0, r0, lsr r0
 800601c:	08080808 	stmdaeq	r8, {r3, fp}
 8006020:	00400008 	subeq	r0, r0, r8
 8006024:	00606000 	rsbeq	r6, r0, r0
 8006028:	10204000 	eorne	r4, r0, r0
 800602c:	00020408 	andeq	r0, r2, r8, lsl #8
 8006030:	49513e40 	ldmdbmi	r1, {r6, r9, sl, fp, ip, sp}^
 8006034:	40003e45 	andmi	r3, r0, r5, asr #28
 8006038:	407f4200 	rsbsmi	r4, pc, r0, lsl #4
 800603c:	72400000 	subvc	r0, r0, #0
 8006040:	46494949 	strbmi	r4, [r9], -r9, asr #18
 8006044:	41214000 			; <UNDEFINED> instruction: 0x41214000
 8006048:	00334d49 	eorseq	r4, r3, r9, asr #26
 800604c:	12141840 	andsne	r1, r4, #64, 16	; 0x400000
 8006050:	4000107f 	andmi	r1, r0, pc, ror r0
 8006054:	45454527 	strbmi	r4, [r5, #-1319]	; 0xfffffad9
 8006058:	3c400039 	mcrrcc	0, 3, r0, r0, cr9
 800605c:	3149494a 	cmpcc	r9, sl, asr #18
 8006060:	21414000 	mrscs	r4, (UNDEF: 65)
 8006064:	00070911 	andeq	r0, r7, r1, lsl r9
 8006068:	49493640 	stmdbmi	r9, {r6, r9, sl, ip, sp}^
 800606c:	40003649 	andmi	r3, r0, r9, asr #12
 8006070:	29494946 	stmdbcs	r9, {r1, r2, r6, r8, fp, lr}^
 8006074:	0040001e 	subeq	r0, r0, lr, lsl r0
 8006078:	00001400 	andeq	r1, r0, r0, lsl #8
 800607c:	40004000 	andmi	r4, r0, r0
 8006080:	00000034 	andeq	r0, r0, r4, lsr r0
 8006084:	14080040 	strne	r0, [r8], #-64	; 0xffffffc0
 8006088:	40004122 	andmi	r4, r0, r2, lsr #2
 800608c:	14141414 	ldrne	r1, [r4], #-1044	; 0xfffffbec
 8006090:	00400014 	subeq	r0, r0, r4, lsl r0
 8006094:	08142241 	ldmdaeq	r4, {r0, r6, r9, sp}
 8006098:	01024000 	mrseq	r4, (UNDEF: 2)
 800609c:	00060959 	andeq	r0, r6, r9, asr r9
 80060a0:	5d413e40 	stclpl	14, cr3, [r1, #-256]	; 0xffffff00
 80060a4:	40004e59 	andmi	r4, r0, r9, asr lr
 80060a8:	1211127c 	andsne	r1, r1, #124, 4	; 0xc0000007
 80060ac:	7f40007c 	svcvc	0x0040007c
 80060b0:	36494949 	strbcc	r4, [r9], -r9, asr #18
 80060b4:	413e4000 	teqmi	lr, r0
 80060b8:	00224141 	eoreq	r4, r2, r1, asr #2
 80060bc:	41417f40 	cmpmi	r1, r0, asr #30
 80060c0:	40003e41 	andmi	r3, r0, r1, asr #28
 80060c4:	4949497f 	stmdbmi	r9, {r0, r1, r2, r3, r4, r5, r6, r8, fp, lr}^
 80060c8:	7f400041 	svcvc	0x00400041
 80060cc:	01090909 	tsteq	r9, r9, lsl #18
 80060d0:	413e4000 	teqmi	lr, r0
 80060d4:	00735141 	rsbseq	r5, r3, r1, asr #2
 80060d8:	08087f40 	stmdaeq	r8, {r6, r8, r9, sl, fp, ip, sp, lr}
 80060dc:	40007f08 	andmi	r7, r0, r8, lsl #30
 80060e0:	417f4100 	cmnmi	pc, r0, lsl #2
 80060e4:	20400000 	subcs	r0, r0, r0
 80060e8:	013f4140 	teqeq	pc, r0, asr #2
 80060ec:	087f4000 	ldmdaeq	pc!, {lr}^	; <UNPREDICTABLE>
 80060f0:	00412214 	subeq	r2, r1, r4, lsl r2
 80060f4:	40407f40 	submi	r7, r0, r0, asr #30
 80060f8:	40004040 	andmi	r4, r0, r0, asr #32
 80060fc:	021c027f 	andseq	r0, ip, #-268435449	; 0xf0000007
 8006100:	7f40007f 	svcvc	0x0040007f
 8006104:	7f100804 	svcvc	0x00100804
 8006108:	413e4000 	teqmi	lr, r0
 800610c:	003e4141 	eorseq	r4, lr, r1, asr #2
 8006110:	09097f40 	stmdbeq	r9, {r6, r8, r9, sl, fp, ip, sp, lr}
 8006114:	40000609 	andmi	r0, r0, r9, lsl #12
 8006118:	2151413e 	cmpcs	r1, lr, lsr r1
 800611c:	7f40005e 	svcvc	0x0040005e
 8006120:	46291909 	strtmi	r1, [r9], -r9, lsl #18
 8006124:	49264000 	stmdbmi	r6!, {lr}
 8006128:	00324949 	eorseq	r4, r2, r9, asr #18
 800612c:	7f010340 	svcvc	0x00010340
 8006130:	40000301 	andmi	r0, r0, r1, lsl #6
 8006134:	4040403f 	submi	r4, r0, pc, lsr r0
 8006138:	1f40003f 	svcne	0x0040003f
 800613c:	1f204020 	svcne	0x00204020
 8006140:	403f4000 	eorsmi	r4, pc, r0
 8006144:	003f4038 	eorseq	r4, pc, r8, lsr r0	; <UNPREDICTABLE>
 8006148:	08146340 	ldmdaeq	r4, {r6, r8, r9, sp, lr}
 800614c:	40006314 	andmi	r6, r0, r4, lsl r3
 8006150:	04780403 	ldrbteq	r0, [r8], #-1027	; 0xfffffbfd
 8006154:	61400003 	cmpvs	r0, r3
 8006158:	434d4959 	movtmi	r4, #55641	; 0xd959
 800615c:	7f004000 	svcvc	0x00004000
 8006160:	00414141 	subeq	r4, r1, r1, asr #2
 8006164:	08040240 	stmdaeq	r4, {r6, r9}
 8006168:	40002010 	andmi	r2, r0, r0, lsl r0
 800616c:	41414100 	mrsmi	r4, (UNDEF: 81)
 8006170:	0440007f 	strbeq	r0, [r0], #-127	; 0xffffff81
 8006174:	04020102 	streq	r0, [r2], #-258	; 0xfffffefe
 8006178:	40404000 	submi	r4, r0, r0
 800617c:	00404040 	subeq	r4, r0, r0, asr #32
 8006180:	07030040 	streq	r0, [r3, -r0, asr #32]
 8006184:	40000008 	andmi	r0, r0, r8
 8006188:	78545420 	ldmdavc	r4, {r5, sl, ip, lr}^
 800618c:	7f400040 	svcvc	0x00400040
 8006190:	38444428 	stmdacc	r4, {r3, r5, sl, lr}^
 8006194:	44384000 	ldrtmi	r4, [r8], #-0
 8006198:	00284444 	eoreq	r4, r8, r4, asr #8
 800619c:	44443840 	strbmi	r3, [r4], #-2112	; 0xfffff7c0
 80061a0:	40007f28 	andmi	r7, r0, r8, lsr #30
 80061a4:	54545438 	ldrbpl	r5, [r4], #-1080	; 0xfffffbc8
 80061a8:	00400018 	subeq	r0, r0, r8, lsl r0
 80061ac:	02097e08 	andeq	r7, r9, #8, 28	; 0x80
 80061b0:	a4184000 	ldrge	r4, [r8], #-0
 80061b4:	00789ca4 	rsbseq	r9, r8, r4, lsr #25
 80061b8:	04087f40 	streq	r7, [r8], #-3904	; 0xfffff0c0
 80061bc:	40007804 	andmi	r7, r0, r4, lsl #16
 80061c0:	407d4400 	rsbsmi	r4, sp, r0, lsl #8
 80061c4:	20400000 	subcs	r0, r0, r0
 80061c8:	003d4040 	eorseq	r4, sp, r0, asr #32
 80061cc:	107f4000 	rsbsne	r4, pc, r0
 80061d0:	00004428 	andeq	r4, r0, r8, lsr #8
 80061d4:	7f410040 	svcvc	0x00410040
 80061d8:	40000040 	andmi	r0, r0, r0, asr #32
 80061dc:	0478047c 	ldrbteq	r0, [r8], #-1148	; 0xfffffb84
 80061e0:	7c400078 	mcrrvc	0, 7, r0, r0, cr8
 80061e4:	78040408 	stmdavc	r4, {r3, sl}
 80061e8:	44384000 	ldrtmi	r4, [r8], #-0
 80061ec:	00384444 	eorseq	r4, r8, r4, asr #8
 80061f0:	2418fc40 	ldrcs	pc, [r8], #-3136	; 0xfffff3c0
 80061f4:	40001824 	andmi	r1, r0, r4, lsr #16
 80061f8:	18242418 	stmdane	r4!, {r3, r4, sl, sp}
 80061fc:	7c4000fc 	mcrrvc	0, 15, r0, r0, cr12
 8006200:	08040408 	stmdaeq	r4, {r3, sl}
 8006204:	54484000 	strbpl	r4, [r8], #-0
 8006208:	00245454 	eoreq	r5, r4, r4, asr r4
 800620c:	3f040440 	svccc	0x00040440
 8006210:	40002444 	andmi	r2, r0, r4, asr #8
 8006214:	2040403c 	subcs	r4, r0, ip, lsr r0
 8006218:	1c40007c 	mcrrne	0, 7, r0, r0, cr12
 800621c:	1c204020 	stcne	0, cr4, [r0], #-128	; 0xffffff80
 8006220:	403c4000 	eorsmi	r4, ip, r0
 8006224:	003c4030 	eorseq	r4, ip, r0, lsr r0
 8006228:	10284440 	eorne	r4, r8, r0, asr #8
 800622c:	40004428 	andmi	r4, r0, r8, lsr #8
 8006230:	9090904c 	addsls	r9, r0, ip, asr #32
 8006234:	4440007c 	strbmi	r0, [r0], #-124	; 0xffffff84
 8006238:	444c5464 	strbmi	r5, [ip], #-1124	; 0xfffffb9c
 800623c:	08004000 	stmdaeq	r0, {lr}
 8006240:	00004136 	andeq	r4, r0, r6, lsr r1
 8006244:	77000040 	strvc	r0, [r0, -r0, asr #32]
 8006248:	40000000 	andmi	r0, r0, r0
 800624c:	08364100 	ldmdaeq	r6!, {r8, lr}
 8006250:	02400000 	subeq	r0, r0, #0
 8006254:	02040201 	andeq	r0, r4, #268435456	; 0x10000000
 8006258:	263c4000 	ldrtcs	r4, [ip], -r0
 800625c:	003c2623 	eorseq	r2, ip, r3, lsr #12

08006260 <oled_128x32_init>:
 8006260:	a880d5ae 	stmge	r0, {r1, r2, r3, r5, r7, r8, sl, ip, lr, pc}
 8006264:	4000d31f 	andmi	sp, r0, pc, lsl r3
 8006268:	0020148d 	eoreq	r1, r0, sp, lsl #9
 800626c:	02dac8a1 	sbcseq	ip, sl, #10551296	; 0xa10000
 8006270:	f1d97f81 			; <UNDEFINED> instruction: 0xf1d97f81
 8006274:	a6a440db 	ssatge	r4, #5, fp, asr #1

08006278 <oled_128x64_init>:
 8006278:	a880d5ae 	stmge	r0, {r1, r2, r3, r5, r7, r8, sl, ip, lr, pc}
 800627c:	4000d33f 	andmi	sp, r0, pc, lsr r3
 8006280:	0020148d 	eoreq	r1, r0, sp, lsl #9
 8006284:	12dac8a1 	sbcsne	ip, sl, #10551296	; 0xa10000
 8006288:	f1d97f81 			; <UNDEFINED> instruction: 0xf1d97f81
 800628c:	a6a440db 	ssatge	r4, #5, fp, asr #1

08006290 <vtable for Ssd1306>:
	...
 8006298:	0800142d 	stmdaeq	r0, {r0, r2, r3, r5, sl, ip}
 800629c:	08001459 	stmdaeq	r0, {r0, r3, r4, r6, sl, ip}
 80062a0:	08001769 	stmdaeq	r0, {r0, r3, r5, r6, r8, r9, sl, ip}
 80062a4:	080016f1 	stmdaeq	r0, {r0, r4, r5, r6, r7, r9, sl, ip}
 80062a8:	080015bd 	stmdaeq	r0, {r0, r2, r3, r4, r5, r7, r8, sl, ip}
 80062ac:	08001479 	stmdaeq	r0, {r0, r3, r4, r5, r6, sl, ip}
 80062b0:	080014a1 	stmdaeq	r0, {r0, r5, r7, sl, ip}
 80062b4:	08001593 	stmdaeq	r0, {r0, r1, r4, r7, r8, sl, ip}
 80062b8:	0800154d 	stmdaeq	r0, {r0, r2, r3, r6, r8, sl, ip}
 80062bc:	0800142f 	stmdaeq	r0, {r0, r1, r2, r3, r5, sl, ip}
 80062c0:	080015f9 	stmdaeq	r0, {r0, r3, r4, r5, r6, r7, r8, sl, ip}
 80062c4:	08001605 	stmdaeq	r0, {r0, r2, r9, sl, ip}
 80062c8:	0800161f 	stmdaeq	r0, {r0, r1, r2, r3, r4, r9, sl, ip}
 80062cc:	08001431 	stmdaeq	r0, {r0, r4, r5, sl, ip}
 80062d0:	65746544 	ldrbvs	r6, [r4, #-1348]!	; 0xfffffabc
 80062d4:	64657463 	strbtvs	r7, [r5], #-1123	; 0xfffffb9d
 80062d8:	20732520 	rsbscs	r2, r3, r0, lsr #10
 80062dc:	68746977 	ldmdavs	r4!, {r0, r1, r2, r4, r5, r6, r8, fp, sp, lr}^
 80062e0:	63657320 	cmnvs	r5, #32, 6	; 0x80000000
 80062e4:	20726f74 	rsbscs	r6, r2, r4, ror pc
 80062e8:	657a6973 	ldrbvs	r6, [sl, #-2419]!	; 0xfffff68d
 80062ec:	20642520 	rsbcs	r2, r4, r0, lsr #10
 80062f0:	61746f74 	cmnvs	r4, r4, ror pc
 80062f4:	6425206c 	strtvs	r2, [r5], #-108	; 0xffffff94
 80062f8:	74796220 	ldrbtvc	r6, [r9], #-544	; 0xfffffde0
 80062fc:	000a7365 	andeq	r7, sl, r5, ror #6
 8006300:	20212a21 	eorcs	r2, r1, r1, lsr #20
 8006304:	536e5f6d 	cmnpl	lr, #436	; 0x1b4
 8006308:	74726174 	ldrbtvc	r6, [r2], #-372	; 0xfffffe8c
 800630c:	72646441 	rsbvc	r6, r4, #1090519040	; 0x41000000
 8006310:	20737365 	rsbscs	r7, r3, r5, ror #6
 8006314:	30203d3d 	eorcc	r3, r0, sp, lsr sp
 8006318:	212a2120 			; <UNDEFINED> instruction: 0x212a2120
 800631c:	0000000a 	andeq	r0, r0, sl

08006320 <s_aStorSize>:
 8006320:	00000060 	andeq	r0, r0, r0, rrx
 8006324:	00000090 	muleq	r0, r0, r0
 8006328:	00000020 	andeq	r0, r0, r0, lsr #32
 800632c:	00000040 	andeq	r0, r0, r0, asr #32
 8006330:	00000060 	andeq	r0, r0, r0, rrx
 8006334:	00000040 	andeq	r0, r0, r0, asr #32
 8006338:	00000020 	andeq	r0, r0, r0, lsr #32
 800633c:	00000020 	andeq	r0, r0, r0, lsr #32
 8006340:	000001e0 	andeq	r0, r0, r0, ror #3
 8006344:	00000040 	andeq	r0, r0, r0, asr #32
 8006348:	00000020 	andeq	r0, r0, r0, lsr #32
 800634c:	00000060 	andeq	r0, r0, r0, rrx
 8006350:	00000030 	andeq	r0, r0, r0, lsr r0
 8006354:	00000020 	andeq	r0, r0, r0, lsr #32
 8006358:	000003b0 			; <UNDEFINED> instruction: 0x000003b0
 800635c:	00000030 	andeq	r0, r0, r0, lsr r0
 8006360:	00000040 	andeq	r0, r0, r0, asr #32
 8006364:	00000020 	andeq	r0, r0, r0, lsr #32
 8006368:	00000060 	andeq	r0, r0, r0, rrx
 800636c:	00000020 	andeq	r0, r0, r0, lsr #32
 8006370:	00000400 	andeq	r0, r0, r0, lsl #8
 8006374:	00000020 	andeq	r0, r0, r0, lsr #32
 8006378:	00000020 	andeq	r0, r0, r0, lsr #32
 800637c:	00000040 	andeq	r0, r0, r0, asr #32
 8006380:	00000060 	andeq	r0, r0, r0, rrx
 8006384:	00000020 	andeq	r0, r0, r0, lsr #32
 8006388:	00000020 	andeq	r0, r0, r0, lsr #32
 800638c:	00000020 	andeq	r0, r0, r0, lsr #32

08006390 <vtable for StoreNetwork>:
	...
 8006398:	08001b19 	stmdaeq	r0, {r0, r3, r4, r8, r9, fp, ip}
 800639c:	08001c2d 	stmdaeq	r0, {r0, r2, r3, r5, sl, fp, ip}
 80063a0:	08001b21 	stmdaeq	r0, {r0, r5, r8, r9, fp, ip}
 80063a4:	08001c41 	stmdaeq	r0, {r0, r6, sl, fp, ip}
 80063a8:	08001bd1 	stmdaeq	r0, {r0, r4, r6, r7, r8, r9, fp, ip}
 80063ac:	08001ba5 	stmdaeq	r0, {r0, r2, r5, r7, r8, r9, fp, ip}
 80063b0:	08001b75 	stmdaeq	r0, {r0, r2, r4, r5, r6, r8, r9, fp, ip}
 80063b4:	08001bfd 	stmdaeq	r0, {r0, r2, r3, r4, r5, r6, r7, r8, r9, fp, ip}
 80063b8:	08001b45 	stmdaeq	r0, {r0, r2, r6, r8, r9, fp, ip}
 80063bc:	fffffffc 			; <UNDEFINED> instruction: 0xfffffffc
 80063c0:	00000000 	andeq	r0, r0, r0
 80063c4:	08001b1b 	stmdaeq	r0, {r0, r1, r3, r4, r8, r9, fp, ip}
 80063c8:	08001c39 	stmdaeq	r0, {r0, r3, r4, r5, sl, fp, ip}
 80063cc:	08001bf5 	stmdaeq	r0, {r0, r2, r4, r5, r6, r7, r8, r9, fp, ip}
 80063d0:	08001bc9 	stmdaeq	r0, {r0, r3, r6, r7, r8, r9, fp, ip}
 80063d4:	08001b9d 	stmdaeq	r0, {r0, r2, r3, r4, r7, r8, r9, fp, ip}
 80063d8:	08001c25 	stmdaeq	r0, {r0, r2, r5, sl, fp, ip}
 80063dc:	08001b6d 	stmdaeq	r0, {r0, r2, r3, r5, r6, r8, r9, fp, ip}

080063e0 <vtable for StoreRemoteConfig>:
	...
 80063e8:	08001c75 	stmdaeq	r0, {r0, r2, r4, r5, r6, sl, fp, ip}
 80063ec:	08001cbd 	stmdaeq	r0, {r0, r2, r3, r4, r5, r7, sl, fp, ip}
 80063f0:	08001c99 	stmdaeq	r0, {r0, r3, r4, r7, sl, fp, ip}
 80063f4:	08001c79 	stmdaeq	r0, {r0, r3, r4, r5, r6, sl, fp, ip}
 80063f8:	252e6425 	strcs	r6, [lr, #-1061]!	; 0xfffffbdb
 80063fc:	64252e64 	strtvs	r2, [r5], #-3684	; 0xfffff19c
 8006400:	2c64252e 	cfstr64cs	mvdx2, [r4], #-184	; 0xffffff48
 8006404:	252c7325 	strcs	r7, [ip, #-805]!	; 0xfffffcdb
 8006408:	64252c73 	strtvs	r2, [r5], #-3187	; 0xfffff38d
 800640c:	0a73252c 	beq	9ccf8c4 <__exidx_end+0x1cc8ed8>
 8006410:	2e642500 	cdpcs	5, 6, cr2, cr4, cr0, {0}
 8006414:	252e6425 	strcs	r6, [lr, #-1061]!	; 0xfffffbdb
 8006418:	64252e64 	strtvs	r2, [r5], #-3684	; 0xfffff19c
 800641c:	2c73252c 	cfldr64cs	mvdx2, [r3], #-176	; 0xffffff50
 8006420:	252c7325 	strcs	r7, [ip, #-805]!	; 0xfffffcdb
 8006424:	74000a64 	strvc	r0, [r0], #-2660	; 0xfffff59c
 8006428:	3a707466 	bcc	9c235c8 <__exidx_end+0x1c1cbdc>
 800642c:	000a7325 	andeq	r7, sl, r5, lsr #6
 8006430:	73726576 	cmnvc	r2, #494927872	; 0x1d800000
 8006434:	3a6e6f69 	bcc	9ba21e0 <__exidx_end+0x1b9b7f4>
 8006438:	75007325 	strvc	r7, [r0, #-805]	; 0xfffffcdb
 800643c:	6d697470 	cfstrdvs	mvd7, [r9, #-448]!	; 0xfffffe40
 8006440:	25203a65 	strcs	r3, [r0, #-2661]!	; 0xfffff59b
 8006444:	000a7375 	andeq	r7, sl, r5, ror r3
 8006448:	61657243 	cmnvs	r5, r3, asr #4
 800644c:	54206574 	strtpl	r6, [r0], #-1396	; 0xfffffa8c
 8006450:	20505446 	subscs	r5, r0, r6, asr #8
 8006454:	76726553 			; <UNDEFINED> instruction: 0x76726553
 8006458:	54007265 	strpl	r7, [r0], #-613	; 0xfffffd9b
 800645c:	20505446 	subscs	r5, r0, r6, asr #8
 8006460:	45006e4f 	strmi	r6, [r0, #-3663]	; 0xfffff1b1
 8006464:	726f7272 	rsbvc	r7, pc, #536870919	; 0x20000007
 8006468:	4654203a 			; <UNDEFINED> instruction: 0x4654203a
 800646c:	44005054 	strmi	r5, [r0], #-84	; 0xffffffac
 8006470:	74656c65 	strbtvc	r6, [r5], #-3173	; 0xfffff39b
 8006474:	46542065 	ldrbmi	r2, [r4], -r5, rrx
 8006478:	53205054 			; <UNDEFINED> instruction: 0x53205054
 800647c:	65767265 	ldrbvs	r7, [r6, #-613]!	; 0xfffffd9b
 8006480:	46540072 			; <UNDEFINED> instruction: 0x46540072
 8006484:	4f205054 	svcmi	0x00205054
 8006488:	74006666 	strvc	r6, [r0], #-1638	; 0xfffff99a
 800648c:	23707466 	cmncs	r0, #1711276032	; 0x66000000
 8006490:	52524500 	subspl	r4, r2, #0, 10
 8006494:	3f23524f 	svccc	0x0023524f
 8006498:	5245000a 	subpl	r0, r5, #10
 800649c:	23524f52 	cmpcs	r2, #328	; 0x148
 80064a0:	72000a21 	andvc	r0, r0, #135168	; 0x21000
 80064a4:	6f6f6265 	svcvs	0x006f6265
 80064a8:	00232374 	eoreq	r2, r3, r4, ror r3
 80064ac:	7473696c 	ldrbtvc	r6, [r3], #-2412	; 0xfffff694
 80064b0:	696c0023 	stmdbvs	ip!, {r0, r1, r5}^
 80064b4:	2a237473 	bcs	88e3688 <__exidx_end+0x8dcc9c>
 80064b8:	74707500 	ldrbtvc	r7, [r0], #-1280	; 0xfffffb00
 80064bc:	23656d69 	cmncs	r5, #6720	; 0x1a40
 80064c0:	72657600 	rsbvc	r7, r5, #0, 12
 80064c4:	6e6f6973 			; <UNDEFINED> instruction: 0x6e6f6973
 80064c8:	61660023 	cmnvs	r6, r3, lsr #32
 80064cc:	726f7463 	rsbvc	r7, pc, #1660944384	; 0x63000000
 80064d0:	00232379 	eoreq	r2, r3, r9, ror r3

080064d4 <s_Node>:
 80064d4:	2d747241 	lfmcs	f7, 2, [r4, #-260]!	; 0xfffffefc
 80064d8:	0074654e 	rsbseq	r6, r4, lr, asr #10
	...
 80064e4:	41730000 	cmnmi	r3, r0
 80064e8:	45204e43 	strmi	r4, [r0, #-3651]!	; 0xfffff1bd
 80064ec:	31332e31 	teqcc	r3, r1, lsr lr
	...
 80064f8:	2043534f 	subcs	r5, r3, pc, asr #6
 80064fc:	76726553 			; <UNDEFINED> instruction: 0x76726553
 8006500:	00007265 	andeq	r7, r0, r5, ror #4
 8006504:	00000000 	andeq	r0, r0, r0
 8006508:	544c0000 	strbpl	r0, [ip], #-0
 800650c:	00000043 	andeq	r0, r0, r3, asr #32
	...
 800651c:	2043534f 	subcs	r5, r3, pc, asr #6
 8006520:	65696c43 	strbvs	r6, [r9, #-3139]!	; 0xfffff3bd
 8006524:	0000746e 	andeq	r7, r0, lr, ror #8
 8006528:	00000000 	andeq	r0, r0, r0
 800652c:	44520000 	ldrbmi	r0, [r2], #-0
 8006530:	74654e4d 	strbtvc	r4, [r5], #-3661	; 0xfffff1b3
 8006534:	524c4c20 	subpl	r4, ip, #32, 24	; 0x2000
 8006538:	6e4f2050 	mcrvs	0, 2, r2, cr15, cr0, {2}
 800653c:	0000796c 	andeq	r7, r0, ip, ror #18
 8006540:	776f6853 			; <UNDEFINED> instruction: 0x776f6853
 8006544:	656c6966 	strbvs	r6, [ip, #-2406]!	; 0xfffff69a
	...
 8006550:	494d0000 	stmdbmi	sp, {}^	; <UNPREDICTABLE>
 8006554:	00004944 	andeq	r4, r0, r4, asr #18
	...
 8006564:	00504444 	subseq	r4, r0, r4, asr #8
	...
 8006574:	6f420000 	svcvs	0x00420000
 8006578:	6f6c746f 	svcvs	0x006c746f
 800657c:	72656461 	rsbvc	r6, r5, #1627389952	; 0x61000000
 8006580:	54465420 	strbpl	r5, [r6], #-1056	; 0xfffffbe0
 8006584:	00000050 	andeq	r0, r0, r0, asr r0

08006588 <s_Output>:
 8006588:	00584d44 	subseq	r4, r8, r4, asr #26
	...
 8006594:	004d4452 	subeq	r4, sp, r2, asr r4
	...
 80065a0:	696e6f4d 	stmdbvs	lr!, {r0, r2, r3, r6, r8, r9, sl, fp, sp, lr}^
 80065a4:	00726f74 	rsbseq	r6, r2, r4, ror pc
 80065a8:	00000000 	andeq	r0, r0, r0
 80065ac:	65786950 	ldrbvs	r6, [r8, #-2384]!	; 0xfffff6b0
 80065b0:	0000006c 	andeq	r0, r0, ip, rrx
 80065b4:	00000000 	andeq	r0, r0, r0
 80065b8:	656d6954 	strbvs	r6, [sp, #-2388]!	; 0xfffff6ac
 80065bc:	65646f43 	strbvs	r6, [r4, #-3907]!	; 0xfffff0bd
 80065c0:	00000000 	andeq	r0, r0, r0
 80065c4:	0043534f 	subeq	r5, r3, pc, asr #6
	...
 80065d0:	666e6f43 	strbtvs	r6, [lr], -r3, asr #30
 80065d4:	00006769 	andeq	r6, r0, r9, ror #14
 80065d8:	00000000 	andeq	r0, r0, r0
 80065dc:	70657453 	rsbvc	r7, r5, r3, asr r4
 80065e0:	00726570 	rsbseq	r6, r2, r0, ror r5
 80065e4:	00000000 	andeq	r0, r0, r0
 80065e8:	79616c50 	stmdbvc	r1!, {r4, r6, sl, fp, sp, lr}^
 80065ec:	00007265 	andeq	r7, r0, r5, ror #4
 80065f0:	00000000 	andeq	r0, r0, r0
 80065f4:	2d747241 	lfmcs	f7, 2, [r4, #-260]!	; 0xfffffefc
 80065f8:	0074654e 	rsbseq	r6, r4, lr, asr #10
 80065fc:	00000000 	andeq	r0, r0, r0
 8006600:	69726553 	ldmdbvs	r2!, {r0, r1, r4, r6, r8, sl, sp, lr}^
 8006604:	00006c61 	andeq	r6, r0, r1, ror #24
 8006608:	00000000 	andeq	r0, r0, r0
 800660c:	20424752 	subcs	r4, r2, r2, asr r7
 8006610:	656e6150 	strbvs	r6, [lr, #-336]!	; 0xfffffeb0
 8006614:	0000006c 	andeq	r0, r0, ip, rrx

08006618 <RemoteConfig::s_GET>:
 8006618:	080022f9 	stmdaeq	r0, {r0, r3, r4, r5, r6, r7, r9, sp}
 800661c:	00000000 	andeq	r0, r0, r0
 8006620:	080064a3 	stmdaeq	r0, {r0, r1, r5, r7, sl, sp, lr}
 8006624:	00000008 	andeq	r0, r0, r8
 8006628:	08001cdd 	stmdaeq	r0, {r0, r2, r3, r4, r6, r7, sl, fp, ip}
 800662c:	00000000 	andeq	r0, r0, r0
 8006630:	080064ac 	stmdaeq	r0, {r2, r3, r5, r7, sl, sp, lr}
 8006634:	00000005 	andeq	r0, r0, r5
 8006638:	08001cdd 	stmdaeq	r0, {r0, r2, r3, r4, r6, r7, sl, fp, ip}
 800663c:	00000000 	andeq	r0, r0, r0
 8006640:	080064b2 	stmdaeq	r0, {r1, r4, r5, r7, sl, sp, lr}
 8006644:	00000006 	andeq	r0, r0, r6
 8006648:	08001e3d 	stmdaeq	r0, {r0, r2, r3, r4, r5, r9, sl, fp, ip}
 800664c:	00000000 	andeq	r0, r0, r0
 8006650:	080064b9 	stmdaeq	r0, {r0, r3, r4, r5, r7, sl, sp, lr}
 8006654:	00000007 	andeq	r0, r0, r7
 8006658:	08001dfd 	stmdaeq	r0, {r0, r2, r3, r4, r5, r6, r7, r8, sl, fp, ip}
 800665c:	00000000 	andeq	r0, r0, r0
 8006660:	080064c1 	stmdaeq	r0, {r0, r6, r7, sl, sp, lr}
 8006664:	00000008 	andeq	r0, r0, r8
 8006668:	08001dad 	stmdaeq	r0, {r0, r2, r3, r5, r7, r8, sl, fp, ip}
 800666c:	00000000 	andeq	r0, r0, r0
 8006670:	0800648b 	stmdaeq	r0, {r0, r1, r3, r7, sl, sp, lr}
 8006674:	00000005 	andeq	r0, r0, r5
 8006678:	08002271 	stmdaeq	r0, {r0, r4, r5, r6, r9, sp}
 800667c:	00000000 	andeq	r0, r0, r0
 8006680:	080064ca 	stmdaeq	r0, {r1, r3, r6, r7, sl, sp, lr}
 8006684:	00000009 	andeq	r0, r0, r9
 8006688:	6f626552 	svcvs	0x00626552
 800668c:	6e69746f 	cdpvs	4, 6, cr7, cr9, cr15, {3}
 8006690:	2e2e2067 	cdpcs	0, 2, cr2, cr14, cr7, {3}
 8006694:	52000a2e 	andpl	r0, r0, #188416	; 0x2e000
 8006698:	6f6f6265 	svcvs	0x006f6265
 800669c:	676e6974 			; <UNDEFINED> instruction: 0x676e6974
 80066a0:	2e2e2e20 	cdpcs	14, 2, cr2, cr14, cr0, {1}
 80066a4:	54465400 	strbpl	r5, [r6], #-1024	; 0xfffffc00
 80066a8:	6e652050 	mcrvs	0, 3, r2, cr5, cr0, {2}
 80066ac:	0a646564 	beq	991fc44 <__exidx_end+0x1919258>
 80066b0:	54465400 	strbpl	r5, [r6], #-1024	; 0xfffffc00
 80066b4:	6e452050 	mcrvs	0, 2, r2, cr5, cr0, {2}
 80066b8:	00646564 	rsbeq	r6, r4, r4, ror #10
 80066bc:	50544654 	subspl	r4, r4, r4, asr r6
 80066c0:	61747320 	cmnvs	r4, r0, lsr #6
 80066c4:	64657472 	strbtvs	r7, [r5], #-1138	; 0xfffffb8e
 80066c8:	4654000a 	ldrbmi	r0, [r4], -sl
 80066cc:	53205054 			; <UNDEFINED> instruction: 0x53205054
 80066d0:	74726174 	ldrbtvc	r6, [r2], #-372	; 0xfffffe8c
 80066d4:	 	strvs	r6, [r0, -r5, ror #8]

080066d7 <tftpfileserver::FILE_NAME>:
 80066d7:	32336467 	eorscc	r6, r3, #1728053248	; 0x67000000
 80066db:	37303266 	ldrcc	r3, [r0, -r6, ror #4]!
 80066df:	6e69622e 	cdpvs	2, 6, cr6, cr9, cr14, {1}
	...

080066e4 <vtable for TFTPFileServer>:
	...
 80066ec:	080023b5 	stmdaeq	r0, {r0, r2, r4, r5, r7, r8, r9, sp}
 80066f0:	080023c9 	stmdaeq	r0, {r0, r3, r6, r7, r8, r9, sp}
 80066f4:	080023a1 	stmdaeq	r0, {r0, r5, r7, r8, r9, sp}
 80066f8:	08002469 	stmdaeq	r0, {r0, r3, r5, r6, sl, sp}
 80066fc:	08002435 	stmdaeq	r0, {r0, r2, r4, r5, sl, sp}
 8006700:	080023a5 	stmdaeq	r0, {r0, r2, r5, r7, r8, r9, sp}
 8006704:	080023db 	stmdaeq	r0, {r0, r1, r3, r4, r6, r7, r8, r9, sp}
 8006708:	080023a9 	stmdaeq	r0, {r0, r3, r5, r7, r8, r9, sp}
 800670c:	202c7325 	eorcs	r7, ip, r5, lsr #6
 8006710:	74636573 	strbtvc	r6, [r3], #-1395	; 0xfffffa8d
 8006714:	7320726f 			; <UNDEFINED> instruction: 0x7320726f
 8006718:	20657a69 	rsbcs	r7, r5, r9, ror #20
 800671c:	202c6425 	eorcs	r6, ip, r5, lsr #8
 8006720:	62206425 	eorvs	r6, r0, #620756992	; 0x25000000
 8006724:	73657479 	cmnvc	r5, #2030043136	; 0x79000000
 8006728:	64255b20 	strtvs	r5, [r5], #-2848	; 0xfffff4e0
 800672c:	5d426b20 	vstrpl	d22, [r2, #-128]	; 0xffffff80
 8006730:	7265000a 	rsbvc	r0, r5, #10
 8006734:	3a726f72 	bcc	9ca2504 <__exidx_end+0x1c9bb18>
 8006738:	616c6620 	cmnvs	ip, r0, lsr #12
 800673c:	73206873 			; <UNDEFINED> instruction: 0x73206873
 8006740:	20657a69 	rsbcs	r7, r5, r9, ror #20
 8006744:	3e206425 	cdpcc	4, 2, cr6, cr0, cr5, {1}
 8006748:	0a642520 	beq	990fbd0 <__exidx_end+0x19091e4>
 800674c:	69725700 	ldmdbvs	r2!, {r8, r9, sl, ip, lr}^
 8006750:	66206574 			; <UNDEFINED> instruction: 0x66206574
 8006754:	776d7269 	strbvc	r7, [sp, -r9, ror #4]!
 8006758:	00657261 	rsbeq	r7, r5, r1, ror #4
 800675c:	73617245 	cmnvc	r1, #1342177284	; 0x50000004
 8006760:	72650065 	rsbvc	r0, r5, #101	; 0x65
 8006764:	3a726f72 	bcc	9ca2534 <__exidx_end+0x1c9bb48>
 8006768:	616c6620 	cmnvs	ip, r0, lsr #12
 800676c:	65206873 	strvs	r6, [r0, #-2163]!	; 0xfffff78d
 8006770:	65736172 	ldrbvs	r6, [r3, #-370]!	; 0xfffffe8e
 8006774:	69725700 	ldmdbvs	r2!, {r8, r9, sl, ip, lr}^
 8006778:	676e6974 			; <UNDEFINED> instruction: 0x676e6974
 800677c:	72726500 	rsbsvc	r6, r2, #0, 10
 8006780:	203a726f 	eorscs	r7, sl, pc, ror #4
 8006784:	73616c66 	cmnvc	r1, #26112	; 0x6600
 8006788:	72772068 	rsbsvc	r2, r7, #104	; 0x68
 800678c:	00657469 	rsbeq	r7, r5, r9, ror #8
 8006790:	656e6f44 	strbvs	r6, [lr, #-3908]!	; 0xfffff0bc
 8006794:	33444700 	movtcc	r4, #18176	; 0x4700
 8006798:	30324632 	eorscc	r4, r2, r2, lsr r6
 800679c:	69620037 	stmdbvs	r2!, {r0, r1, r2, r4, r5}^
 80067a0:	7500646e 	strvc	r6, [r0, #-1134]	; 0xfffffb92
 80067a4:	6e69626e 	cdpvs	2, 6, cr6, cr9, cr14, {3}
 80067a8:	41000a64 	tstmi	r0, r4, ror #20
 80067ac:	6c205052 	stcvs	0, cr5, [r0], #-328	; 0xfffffeb8
 80067b0:	756b6f6f 	strbvc	r6, [fp, #-3951]!	; 0xfffff091
 80067b4:	61662070 	smcvs	25088	; 0x6200
 80067b8:	64656c69 	strbtvs	r6, [r5], #-3177	; 0xfffff397
 80067bc:	203e2d20 	eorscs	r2, lr, r0, lsr #26
 80067c0:	61666564 	cmnvs	r6, r4, ror #10
 80067c4:	20746c75 	rsbscs	r6, r4, r5, ror ip
 80067c8:	65746167 	ldrbvs	r6, [r4, #-359]!	; 0xfffffe99
 80067cc:	0a796177 	beq	9e5edb0 <__exidx_end+0x1e583c4>
 80067d0:	50524100 	subspl	r4, r2, r0, lsl #2
 80067d4:	6f6f6c20 	svcvs	0x006f6c20
 80067d8:	2070756b 	rsbscs	r7, r0, fp, ror #10
 80067dc:	6c696166 	stfvse	f6, [r9], #-408	; 0xfffffe68
 80067e0:	000a6465 	andeq	r6, sl, r5, ror #8
 80067e4:	61766e49 	cmnvs	r6, r9, asr #28
 80067e8:	2064696c 	rsbcs	r6, r4, ip, ror #18
 80067ec:	7265706f 	rsbvc	r7, r5, #111	; 0x6f
 80067f0:	6f697461 	svcvs	0x00697461
 80067f4:	6e49006e 	cdpvs	0, 4, cr0, cr9, cr14, {3}
 80067f8:	696c6176 	stmdbvs	ip!, {r1, r2, r4, r5, r6, r8, sp, lr}^
 80067fc:	69662064 	stmdbvs	r6!, {r2, r5, r6, sp}^
 8006800:	6e20656c 	cfsh64vs	mvdx6, mvdx0, #60
 8006804:	00656d61 	rsbeq	r6, r5, r1, ror #26
 8006808:	6574636f 	ldrbvs	r6, [r4, #-879]!	; 0xfffffc91
 800680c:	656e0074 	strbvs	r0, [lr, #-116]!	; 0xffffff8c
 8006810:	63736174 	cmnvs	r3, #116, 2
 8006814:	46006969 	strmi	r6, [r0], -r9, ror #18
 8006818:	20656c69 	rsbcs	r6, r5, r9, ror #24
 800681c:	20746f6e 	rsbscs	r6, r4, lr, ror #30
 8006820:	6e756f66 	cdpvs	15, 7, cr6, cr5, cr6, {3}
 8006824:	63410064 	movtvs	r0, #4196	; 0x1064
 8006828:	73736563 	cmnvc	r3, #415236096	; 0x18c00000
 800682c:	6f697620 	svcvs	0x00697620
 8006830:	6974616c 	ldmdbvs	r4!, {r2, r3, r5, r6, r8, sp, lr}^
 8006834:	57006e6f 	strpl	r6, [r0, -pc, ror #28]
 8006838:	65746972 	ldrbvs	r6, [r4, #-2418]!	; 0xfffff68e
 800683c:	69616620 	stmdbvs	r1!, {r5, r9, sl, sp, lr}^
 8006840:	0064656c 	rsbeq	r6, r4, ip, ror #10

08006844 <vtable for TFTPDaemon>:
	...
 800686c:	30687465 	rsbcc	r7, r8, r5, ror #8
 8006870:	67696700 	strbvs	r6, [r9, -r0, lsl #14]!
 8006874:	76656461 	strbtvc	r6, [r5], -r1, ror #8
 8006878:	5f656369 	svcpl	0x00656369
 800687c:	74654e00 	strbtvc	r4, [r5], #-3584	; 0xfffff200
 8006880:	6b726f77 	blvs	9ca2664 <__exidx_end+0x1c9bc78>
 8006884:	4820000a 	stmdami	r0!, {r1, r3}
 8006888:	6e74736f 	cdpvs	3, 7, cr7, cr4, cr15, {3}
 800688c:	20656d61 	rsbcs	r6, r5, r1, ror #26
 8006890:	25203a20 	strcs	r3, [r0, #-2592]!	; 0xfffff5e0
 8006894:	20000a73 	andcs	r0, r0, r3, ror sl
 8006898:	614e6649 	cmpvs	lr, r9, asr #12
 800689c:	2020656d 	eorcs	r6, r0, sp, ror #10
 80068a0:	203a2020 	eorscs	r2, sl, r0, lsr #32
 80068a4:	203a6425 	eorscs	r6, sl, r5, lsr #8
 80068a8:	000a7325 	andeq	r7, sl, r5, lsr #6
 80068ac:	656e4920 	strbvs	r4, [lr, #-2336]!	; 0xfffff6e0
 80068b0:	20202074 	eorcs	r2, r0, r4, ror r0
 80068b4:	3a202020 	bcc	880e93c <__exidx_end+0x807f50>
 80068b8:	2e642520 	cdpcs	5, 6, cr2, cr4, cr0, {1}
 80068bc:	252e6425 	strcs	r6, [lr, #-1061]!	; 0xfffffbdb
 80068c0:	64252e64 	strtvs	r2, [r5], #-3684	; 0xfffff19c
 80068c4:	0a64252f 	beq	990fd88 <__exidx_end+0x190939c>
 80068c8:	654e2000 	strbvs	r2, [lr, #-0]
 80068cc:	73616d74 	cmnvc	r1, #116, 26	; 0x1d00
 80068d0:	2020206b 	eorcs	r2, r0, fp, rrx
 80068d4:	6425203a 	strtvs	r2, [r5], #-58	; 0xffffffc6
 80068d8:	2e64252e 	cdpcs	5, 6, cr2, cr4, cr14, {1}
 80068dc:	252e6425 	strcs	r6, [lr, #-1061]!	; 0xfffffbdb
 80068e0:	20000a64 	andcs	r0, r0, r4, ror #20
 80068e4:	65746147 	ldrbvs	r6, [r4, #-327]!	; 0xfffffeb9
 80068e8:	20796177 	rsbscs	r6, r9, r7, ror r1
 80068ec:	203a2020 	eorscs	r2, sl, r0, lsr #32
 80068f0:	252e6425 	strcs	r6, [lr, #-1061]!	; 0xfffffbdb
 80068f4:	64252e64 	strtvs	r2, [r5], #-3684	; 0xfffff19c
 80068f8:	0a64252e 	beq	990fdb8 <__exidx_end+0x19093cc>
 80068fc:	72422000 	subvc	r2, r2, #0
 8006900:	6364616f 	cmnvs	r4, #-1073741797	; 0xc000001b
 8006904:	20747361 	rsbscs	r7, r4, r1, ror #6
 8006908:	6425203a 	strtvs	r2, [r5], #-58	; 0xffffffc6
 800690c:	2e64252e 	cdpcs	5, 6, cr2, cr4, cr14, {1}
 8006910:	252e6425 	strcs	r6, [lr, #-1061]!	; 0xfffffbdb
 8006914:	20000a64 	andcs	r0, r0, r4, ror #20
 8006918:	2063614d 	rsbcs	r6, r3, sp, asr #2
 800691c:	20202020 	eorcs	r2, r0, r0, lsr #32
 8006920:	203a2020 	eorscs	r2, sl, r0, lsr #32
 8006924:	78322e25 	ldmdavc	r2!, {r0, r2, r5, r9, sl, fp, sp}
 8006928:	322e253a 	eorcc	r2, lr, #243269632	; 0xe800000
 800692c:	2e253a78 			; <UNDEFINED> instruction: 0x2e253a78
 8006930:	253a7832 	ldrcs	r7, [sl, #-2098]!	; 0xfffff7ce
 8006934:	3a78322e 	bcc	9e131f4 <__exidx_end+0x1e0c808>
 8006938:	78322e25 	ldmdavc	r2!, {r0, r2, r5, r9, sl, fp, sp}
 800693c:	322e253a 	eorcc	r2, lr, #243269632	; 0xe800000
 8006940:	20000a78 	andcs	r0, r0, r8, ror sl
 8006944:	65646f4d 	strbvs	r6, [r4, #-3917]!	; 0xfffff0b3
 8006948:	20202020 	eorcs	r2, r0, r0, lsr #32
 800694c:	203a2020 	eorscs	r2, sl, r0, lsr #32
 8006950:	000a6325 	andeq	r6, sl, r5, lsr #6
 8006954:	37335b1b 			; <UNDEFINED> instruction: 0x37335b1b
 8006958:	5b1b006d 	blpl	86c6b14 <__exidx_end+0x6c0128>
 800695c:	006d3034 	rsbeq	r3, sp, r4, lsr r0
 8006960:	30335b1b 	eorscc	r5, r3, fp, lsl fp
 8006964:	5b1b006d 	blpl	86c6b20 <__exidx_end+0x6c0134>
 8006968:	006d3133 	rsbeq	r3, sp, r3, lsr r1
 800696c:	32335b1b 	eorscc	r5, r3, #27648	; 0x6c00
 8006970:	5b1b006d 	blpl	86c6b2c <__exidx_end+0x6c0140>
 8006974:	006d3333 	rsbeq	r3, sp, r3, lsr r3
 8006978:	39335b1b 	ldmdbcc	r3!, {r0, r1, r3, r4, r8, r9, fp, ip, lr}
 800697c:	565b006d 	ldrbpl	r0, [fp], -sp, rrx
 8006980:	732a2e25 			; <UNDEFINED> instruction: 0x732a2e25
 8006984:	7325205d 			; <UNDEFINED> instruction: 0x7325205d
 8006988:	6d6f4320 	stclvs	3, cr4, [pc, #-128]!	; 8006910 <vtable for TFTPDaemon+0xcc>
 800698c:	656c6970 	strbvs	r6, [ip, #-2416]!	; 0xfffff690
 8006990:	6e6f2064 	cdpvs	0, 6, cr2, cr15, cr4, {3}
 8006994:	2a2e2520 	bcs	8b8fe1c <__exidx_end+0xb89430>
 8006998:	74612073 	strbtvc	r2, [r1], #-115	; 0xffffff8d
 800699c:	2a2e2520 	bcs	8b8fe24 <__exidx_end+0xb89438>
 80069a0:	44470073 	strbmi	r0, [r7], #-115	; 0xffffff8d
 80069a4:	32463233 	subcc	r3, r6, #805306371	; 0x30000003
 80069a8:	5f433730 	svcpl	0x00433730
 80069ac:	4c415645 	mcrrmi	6, 4, r5, r1, cr5
 80069b0:	00000000 	andeq	r0, r0, r0

080069b4 <days_of_month>:
 80069b4:	0000001f 	andeq	r0, r0, pc, lsl r0
 80069b8:	0000001c 	andeq	r0, r0, ip, lsl r0
 80069bc:	0000001f 	andeq	r0, r0, pc, lsl r0
 80069c0:	0000001e 	andeq	r0, r0, lr, lsl r0
 80069c4:	0000001f 	andeq	r0, r0, pc, lsl r0
 80069c8:	0000001e 	andeq	r0, r0, lr, lsl r0
 80069cc:	0000001f 	andeq	r0, r0, pc, lsl r0
 80069d0:	0000001f 	andeq	r0, r0, pc, lsl r0
 80069d4:	0000001e 	andeq	r0, r0, lr, lsl r0
 80069d8:	0000001f 	andeq	r0, r0, pc, lsl r0
 80069dc:	0000001e 	andeq	r0, r0, lr, lsl r0
 80069e0:	0000001f 	andeq	r0, r0, pc, lsl r0

Disassembly of section .ARM:

080069e4 <__exidx_start>:
 80069e4:	7fffa628 	svcvc	0x00ffa628
 80069e8:	00000001 	andeq	r0, r0, r1

Disassembly of section .ARM.attributes:

080069ec <.ARM.attributes>:
 80069ec:	00002e41 	andeq	r2, r0, r1, asr #28
 80069f0:	61656100 	cmnvs	r5, r0, lsl #2
 80069f4:	01006962 	tsteq	r0, r2, ror #18
 80069f8:	00000024 	andeq	r0, r0, r4, lsr #32
 80069fc:	726f4305 	rsbvc	r4, pc, #335544320	; 0x14000000
 8006a00:	2d786574 	cfldr64cs	mvdx6, [r8, #-464]!	; 0xfffffe30
 8006a04:	0600334d 	streq	r3, [r0], -sp, asr #6
 8006a08:	094d070a 	stmdbeq	sp, {r1, r3, r8, r9, sl}^
 8006a0c:	14041202 	strne	r1, [r4], #-514	; 0xfffffdfe
 8006a10:	17011501 	strne	r1, [r1, -r1, lsl #10]
 8006a14:	1a011803 	bne	804ca28 <__exidx_end+0x4603c>
 8006a18:	Address 0x0000000008006a18 is out of bounds.


Disassembly of section .data:

20000000 <s_multicast_mac>:
20000000:	005e0001 	subseq	r0, lr, r1
20000004:	00000000 	andeq	r0, r0, r0

20000008 <next_block>:
20000008:	20005000 	andcs	r5, r0, r0

2000000c <s_block_bucket>:
2000000c:	00000020 	andeq	r0, r0, r0, lsr #32
20000010:	00000000 	andeq	r0, r0, r0
20000014:	00000040 	andeq	r0, r0, r0, asr #32
20000018:	00000000 	andeq	r0, r0, r0
2000001c:	00000060 	andeq	r0, r0, r0, rrx
20000020:	00000000 	andeq	r0, r0, r0
20000024:	00000080 	andeq	r0, r0, r0, lsl #1
20000028:	00000000 	andeq	r0, r0, r0
2000002c:	00000100 	andeq	r0, r0, r0, lsl #2
20000030:	00000000 	andeq	r0, r0, r0
20000034:	00000140 	andeq	r0, r0, r0, asr #2
20000038:	00000000 	andeq	r0, r0, r0
2000003c:	00000180 	andeq	r0, r0, r0, lsl #3
20000040:	00000000 	andeq	r0, r0, r0
20000044:	00000200 	andeq	r0, r0, r0, lsl #4
20000048:	00000000 	andeq	r0, r0, r0
2000004c:	00000300 	andeq	r0, r0, r0, lsl #6
20000050:	00000000 	andeq	r0, r0, r0
20000054:	00000400 	andeq	r0, r0, r0, lsl #8
20000058:	00000000 	andeq	r0, r0, r0
2000005c:	0001a800 	andeq	sl, r1, r0, lsl #16
	...

2000006c <SystemCoreClock>:
2000006c:	07270e00 	streq	r0, [r7, -r0, lsl #28]!

Disassembly of section .bss:

20000070 <outptr>:
20000070:	00000000 	andeq	r0, r0, r0

20000074 <Display::s_pThis>:
20000074:	00000000 	andeq	r0, r0, r0

20000078 <_ClearBuffer>:
	...

20000100 <Ssd1306::s_pThis>:
20000100:	00000000 	andeq	r0, r0, r0

20000104 <SpiFlashStore::s_SpiFlashData>:
	...

20001104 <SpiFlashStore::s_nStartAddress>:
20001104:	00000000 	andeq	r0, r0, r0

20001108 <SpiFlashStore::s_bHaveFlashChip>:
20001108:	00000000 	andeq	r0, r0, r0

2000110c <SpiFlashStore::s_nSpiFlashStoreSize>:
2000110c:	00000000 	andeq	r0, r0, r0

20001110 <SpiFlashStore::s_State>:
20001110:	00000000 	andeq	r0, r0, r0

20001114 <SpiFlashStore::s_pThis>:
20001114:	00000000 	andeq	r0, r0, r0

20001118 <SpiFlashStore::s_bIsNew>:
20001118:	00000000 	andeq	r0, r0, r0

2000111c <StoreNetwork::s_pThis>:
2000111c:	00000000 	andeq	r0, r0, r0

20001120 <StoreRemoteConfig::s_pThis>:
20001120:	00000000 	andeq	r0, r0, r0

20001124 <RemoteConfig::s_pUdpBuffer>:
20001124:	00000000 	andeq	r0, r0, r0

20001128 <RemoteConfig::s_RemoteConfigListBin>:
	...

2000114c <RemoteConfig::s_pThis>:
2000114c:	00000000 	andeq	r0, r0, r0

20001150 <SpiFlashInstall::s_pThis>:
20001150:	00000000 	andeq	r0, r0, r0

20001154 <g_ip_info>:
	...

20001160 <g_mac_address>:
20001160:	00000000 	andeq	r0, r0, r0
	...

20001166 <s_is_dhcp>:
	...

20001168 <s_p>:
20001168:	00000000 	andeq	r0, r0, r0

2000116c <s_ticker>:
2000116c:	00000000 	andeq	r0, r0, r0

20001170 <s_mac_address>:
	...

20001178 <s_mac_address_arp_reply>:
	...

20001180 <s_tcp>:
	...

2000176c <broadcast_mask>:
2000176c:	00000000 	andeq	r0, r0, r0

20001770 <gw_ip>:
20001770:	00000000 	andeq	r0, r0, r0

20001774 <on_network_mask>:
20001774:	00000000 	andeq	r0, r0, r0

20001778 <s_id>:
20001778:	00000000 	andeq	r0, r0, r0

2000177c <s_ports_allowed>:
	...

20001784 <s_recv_queue>:
	...

20002eac <s_send_packet>:
	...

20003498 <TFTPDaemon::s_pThis>:
20003498:	00000000 	andeq	r0, r0, r0

2000349c <Network::s_pThis>:
2000349c:	00000000 	andeq	r0, r0, r0

200034a0 <s_arp_announce>:
	...

200034cc <s_arp_reply>:
	...

200034f8 <s_arp_request>:
	...

20003524 <s_arp_records>:
	...

200036a4 <s_entry_current>:
200036a4:	00000000 	andeq	r0, r0, r0

200036a8 <s_dhcp_allocated_gw>:
200036a8:	00000000 	andeq	r0, r0, r0

200036ac <s_dhcp_allocated_ip>:
200036ac:	00000000 	andeq	r0, r0, r0

200036b0 <s_dhcp_allocated_netmask>:
200036b0:	00000000 	andeq	r0, r0, r0

200036b4 <s_dhcp_message>:
	...

200038d8 <s_dhcp_server_ip>:
200038d8:	00000000 	andeq	r0, r0, r0

200038dc <s_groups>:
	...

200038e4 <s_id>:
200038e4:	00000000 	andeq	r0, r0, r0

200038e8 <s_joins_allowed_index>:
200038e8:	00000000 	andeq	r0, r0, r0

200038ec <s_leave>:
	...

2000391c <s_multicast_mac>:
	...

20003924 <s_report>:
	...

20003952 <FirmwareVersion::s_FirmwareVersion>:
	...

20003968 <FirmwareVersion::s_Print>:
	...

200039a8 <FirmwareVersion::s_pThis>:
200039a8:	00000000 	andeq	r0, r0, r0

200039ac <LedBlink::s_pThis>:
200039ac:	00000000 	andeq	r0, r0, r0

200039b0 <Hardware::s_pThis>:
	...

200039b8 <s_micros>:
	...

200039c0 <set_timer>:
200039c0:	00000000 	andeq	r0, r0, r0

200039c4 <s_nSysTickMillis>:
200039c4:	00000000 	andeq	r0, r0, r0

200039c8 <s_nAddress>:
200039c8:	00000000 	andeq	r0, r0, r0

200039cc <dma_current_ptp_rxdesc>:
200039cc:	00000000 	andeq	r0, r0, r0

200039d0 <dma_current_ptp_txdesc>:
200039d0:	00000000 	andeq	r0, r0, r0

200039d4 <dma_current_rxdesc>:
200039d4:	00000000 	andeq	r0, r0, r0

200039d8 <dma_current_txdesc>:
200039d8:	00000000 	andeq	r0, r0, r0

200039dc <enet_initpara>:
	...

20003a18 <rx_buff>:
	...

20004600 <rxdesc_tab>:
	...

20004620 <tx_buff>:
	...

20004c14 <txdesc_tab>:
	...

Disassembly of section .heap:

20005000 <heap_low>:
	...

Disassembly of section .stack:

2001fc00 <_sp-0x400>:
	...
